ccopy_reg
_reconstructor
p0
(ctree
Tree
p1
c__builtin__
object
p2
Ntp3
Rp4
(dp5
S'root'
p6
g0
(ctree
vertex
p7
g2
Ntp8
Rp9
(dp10
S'_data'
p11
g0
(cpandas.core.internals
SingleBlockManager
p12
g2
Ntp13
Rp14
((lp15
cnumpy.core.multiarray
_reconstruct
p16
(cpandas.core.index
Index
p17
(I0
tp18
S'b'
p19
tp20
Rp21
((I1
(L1L
tp22
cnumpy
dtype
p23
(S'O8'
p24
I0
I1
tp25
Rp26
(I3
S'|'
p27
NNNI-1
I-1
I63
tp28
bI00
(lp29
S'Prog'
p30
atp31
(Ntp32
tp33
ba(lp34
g16
(cnumpy
ndarray
p35
(I0
tp36
g19
tp37
Rp38
(I1
(L1L
tp39
g26
I00
(lp40
g0
(g7
g2
Ntp41
Rp42
(dp43
g11
g0
(g12
g2
Ntp44
Rp45
((lp46
g16
(g17
(I0
tp47
g19
tp48
Rp49
((I1
(L4L
tp50
g26
I00
(lp51
S'Stmt1'
p52
aS'Stmt2'
p53
aS'Stmt3'
p54
aS'Stmt4'
p55
atp56
(Ntp57
tp58
ba(lp59
g16
(g35
(I0
tp60
g19
tp61
Rp62
(I1
(L4L
tp63
g26
I00
(lp64
g0
(g7
g2
Ntp65
Rp66
(dp67
g11
g0
(g12
g2
Ntp68
Rp69
((lp70
g16
(g17
(I0
tp71
g19
tp72
Rp73
((I1
(L1L
tp74
g26
I00
(lp75
S'Block_stmt'
p76
atp77
(Ntp78
tp79
ba(lp80
g16
(g35
(I0
tp81
g19
tp82
Rp83
(I1
(L1L
tp84
g26
I00
(lp85
g0
(g7
g2
Ntp86
Rp87
(dp88
g11
g0
(g12
g2
Ntp89
Rp90
((lp91
g16
(g17
(I0
tp92
g19
tp93
Rp94
((I1
(L2L
tp95
g26
I00
(lp96
S'Block_head'
p97
aS'Block'
p98
atp99
(Ntp100
tp101
ba(lp102
g16
(g35
(I0
tp103
g19
tp104
Rp105
(I1
(L2L
tp106
g26
I00
(lp107
g0
(g7
g2
Ntp108
Rp109
(dp110
g11
g0
(g12
g2
Ntp111
Rp112
((lp113
g16
(g17
(I0
tp114
g19
tp115
Rp116
((I1
(L1L
tp117
g26
I00
(lp118
S'Func'
p119
atp120
(Ntp121
tp122
ba(lp123
g16
(g35
(I0
tp124
g19
tp125
Rp126
(I1
(L1L
tp127
g26
I00
(lp128
g0
(g7
g2
Ntp129
Rp130
(dp131
g11
g0
(g12
g2
Ntp132
Rp133
((lp134
g16
(g17
(I0
tp135
g19
tp136
Rp137
((I1
(L5L
tp138
g26
I00
(lp139
S'_def_'
p140
aS'_f_'
p141
aS'_(_'
p142
aS'Paramlist'
p143
aS'_)_'
p144
atp145
(Ntp146
tp147
ba(lp148
g16
(g35
(I0
tp149
g19
tp150
Rp151
(I1
(L5L
tp152
g26
I00
(lp153
g0
(g7
g2
Ntp154
Rp155
(dp156
g11
g0
(g12
g2
Ntp157
Rp158
((lp159
g16
(g17
(I0
tp160
g19
tp161
Rp162
((I1
(L0L
tp163
g26
I00
(lp164
tp165
(Ntp166
tp167
ba(lp168
g16
(g35
(I0
tp169
g19
tp170
Rp171
(I1
(L0L
tp172
g26
I00
(lp173
tp174
ba(lp175
g162
atp176
bsS'name'
p177
S'def'
p178
sbag0
(g7
g2
Ntp179
Rp180
(dp181
g11
g0
(g12
g2
Ntp182
Rp183
((lp184
g16
(g17
(I0
tp185
g19
tp186
Rp187
((I1
(L0L
tp188
g26
I00
(lp189
tp190
(Ntp191
tp192
ba(lp193
g16
(g35
(I0
tp194
g19
tp195
Rp196
(I1
(L0L
tp197
g26
I00
(lp198
tp199
ba(lp200
g187
atp201
bsg177
S'f'
p202
sbag0
(g7
g2
Ntp203
Rp204
(dp205
g11
g0
(g12
g2
Ntp206
Rp207
((lp208
g16
(g17
(I0
tp209
g19
tp210
Rp211
((I1
(L0L
tp212
g26
I00
(lp213
tp214
(Ntp215
tp216
ba(lp217
g16
(g35
(I0
tp218
g19
tp219
Rp220
(I1
(L0L
tp221
g26
I00
(lp222
tp223
ba(lp224
g211
atp225
bsg177
S'('
p226
sbag0
(g7
g2
Ntp227
Rp228
(dp229
g11
g0
(g12
g2
Ntp230
Rp231
((lp232
g16
(g17
(I0
tp233
g19
tp234
Rp235
((I1
(L1L
tp236
g26
I00
(lp237
S'Pos_paramlist'
p238
atp239
(Ntp240
tp241
ba(lp242
g16
(g35
(I0
tp243
g19
tp244
Rp245
(I1
(L1L
tp246
g26
I00
(lp247
g0
(g7
g2
Ntp248
Rp249
(dp250
g11
g0
(g12
g2
Ntp251
Rp252
((lp253
g16
(g17
(I0
tp254
g19
tp255
Rp256
((I1
(L1L
tp257
g26
I00
(lp258
S'Pos_paramtuple'
p259
atp260
(Ntp261
tp262
ba(lp263
g16
(g35
(I0
tp264
g19
tp265
Rp266
(I1
(L1L
tp267
g26
I00
(lp268
g0
(g7
g2
Ntp269
Rp270
(dp271
g11
g0
(g12
g2
Ntp272
Rp273
((lp274
g16
(g17
(I0
tp275
g19
tp276
Rp277
((I1
(L1L
tp278
g26
I00
(lp279
S'Simple_var'
p280
atp281
(Ntp282
tp283
ba(lp284
g16
(g35
(I0
tp285
g19
tp286
Rp287
(I1
(L1L
tp288
g26
I00
(lp289
g0
(g7
g2
Ntp290
Rp291
(dp292
g11
g0
(g12
g2
Ntp293
Rp294
((lp295
g16
(g17
(I0
tp296
g19
tp297
Rp298
((I1
(L1L
tp299
g26
I00
(lp300
S'_x_'
p301
atp302
(Ntp303
tp304
ba(lp305
g16
(g35
(I0
tp306
g19
tp307
Rp308
(I1
(L1L
tp309
g26
I00
(lp310
g0
(g7
g2
Ntp311
Rp312
(dp313
g11
g0
(g12
g2
Ntp314
Rp315
((lp316
g16
(g17
(I0
tp317
g19
tp318
Rp319
((I1
(L0L
tp320
g26
I00
(lp321
tp322
(Ntp323
tp324
ba(lp325
g16
(g35
(I0
tp326
g19
tp327
Rp328
(I1
(L0L
tp329
g26
I00
(lp330
tp331
ba(lp332
g319
atp333
bsg177
S'x'
p334
sbatp335
ba(lp336
g298
atp337
bsg177
g280
sbatp338
ba(lp339
g277
atp340
bsg177
g259
sbatp341
ba(lp342
g256
atp343
bsg177
g238
sbatp344
ba(lp345
g235
atp346
bsg177
g143
sbag0
(g7
g2
Ntp347
Rp348
(dp349
g11
g0
(g12
g2
Ntp350
Rp351
((lp352
g16
(g17
(I0
tp353
g19
tp354
Rp355
((I1
(L0L
tp356
g26
I00
(lp357
tp358
(Ntp359
tp360
ba(lp361
g16
(g35
(I0
tp362
g19
tp363
Rp364
(I1
(L0L
tp365
g26
I00
(lp366
tp367
ba(lp368
g355
atp369
bsg177
S')'
p370
sbatp371
ba(lp372
g137
atp373
bsg177
g119
sbatp374
ba(lp375
g116
atp376
bsg177
g97
sbag0
(g7
g2
Ntp377
Rp378
(dp379
g11
g0
(g12
g2
Ntp380
Rp381
((lp382
g16
(g17
(I0
tp383
g19
tp384
Rp385
((I1
(L3L
tp386
g26
I00
(lp387
S'_:$blockbegin_'
p388
aS'Prog'
p389
aS'_$blockend_'
p390
atp391
(Ntp392
tp393
ba(lp394
g16
(g35
(I0
tp395
g19
tp396
Rp397
(I1
(L3L
tp398
g26
I00
(lp399
g0
(g7
g2
Ntp400
Rp401
(dp402
g11
g0
(g12
g2
Ntp403
Rp404
((lp405
g16
(g17
(I0
tp406
g19
tp407
Rp408
((I1
(L0L
tp409
g26
I00
(lp410
tp411
(Ntp412
tp413
ba(lp414
g16
(g35
(I0
tp415
g19
tp416
Rp417
(I1
(L0L
tp418
g26
I00
(lp419
tp420
ba(lp421
g408
atp422
bsg177
S':$blockbegin'
p423
sbag0
(g7
g2
Ntp424
Rp425
(dp426
g11
g0
(g12
g2
Ntp427
Rp428
((lp429
g16
(g17
(I0
tp430
g19
tp431
Rp432
((I1
(L2L
tp433
g26
I00
(lp434
S'Stmt1'
p435
aS'Stmt2'
p436
atp437
(Ntp438
tp439
ba(lp440
g16
(g35
(I0
tp441
g19
tp442
Rp443
(I1
(L2L
tp444
g26
I00
(lp445
g0
(g7
g2
Ntp446
Rp447
(dp448
g11
g0
(g12
g2
Ntp449
Rp450
((lp451
g16
(g17
(I0
tp452
g19
tp453
Rp454
((I1
(L1L
tp455
g26
I00
(lp456
S'Single_stmt'
p457
atp458
(Ntp459
tp460
ba(lp461
g16
(g35
(I0
tp462
g19
tp463
Rp464
(I1
(L1L
tp465
g26
I00
(lp466
g0
(g7
g2
Ntp467
Rp468
(dp469
g11
g0
(g12
g2
Ntp470
Rp471
((lp472
g16
(g17
(I0
tp473
g19
tp474
Rp475
((I1
(L2L
tp476
g26
I00
(lp477
S'Exprlist'
p478
aS'_;_'
p479
atp480
(Ntp481
tp482
ba(lp483
g16
(g35
(I0
tp484
g19
tp485
Rp486
(I1
(L2L
tp487
g26
I00
(lp488
g0
(g7
g2
Ntp489
Rp490
(dp491
g11
g0
(g12
g2
Ntp492
Rp493
((lp494
g16
(g17
(I0
tp495
g19
tp496
Rp497
((I1
(L1L
tp498
g26
I00
(lp499
S'Expr'
p500
atp501
(Ntp502
tp503
ba(lp504
g16
(g35
(I0
tp505
g19
tp506
Rp507
(I1
(L1L
tp508
g26
I00
(lp509
g0
(g7
g2
Ntp510
Rp511
(dp512
g11
g0
(g12
g2
Ntp513
Rp514
((lp515
g16
(g17
(I0
tp516
g19
tp517
Rp518
((I1
(L1L
tp519
g26
I00
(lp520
S'Val'
p521
atp522
(Ntp523
tp524
ba(lp525
g16
(g35
(I0
tp526
g19
tp527
Rp528
(I1
(L1L
tp529
g26
I00
(lp530
g0
(g7
g2
Ntp531
Rp532
(dp533
g11
g0
(g12
g2
Ntp534
Rp535
((lp536
g16
(g17
(I0
tp537
g19
tp538
Rp539
((I1
(L1L
tp540
g26
I00
(lp541
S'String'
p542
atp543
(Ntp544
tp545
ba(lp546
g16
(g35
(I0
tp547
g19
tp548
Rp549
(I1
(L1L
tp550
g26
I00
(lp551
g0
(g7
g2
Ntp552
Rp553
(dp554
g11
g0
(g12
g2
Ntp555
Rp556
((lp557
g16
(g17
(I0
tp558
g19
tp559
Rp560
((I1
(L1L
tp561
g26
I00
(lp562
S'_"""rechnen"""_'
p563
atp564
(Ntp565
tp566
ba(lp567
g16
(g35
(I0
tp568
g19
tp569
Rp570
(I1
(L1L
tp571
g26
I00
(lp572
g0
(g7
g2
Ntp573
Rp574
(dp575
g11
g0
(g12
g2
Ntp576
Rp577
((lp578
g16
(g17
(I0
tp579
g19
tp580
Rp581
((I1
(L0L
tp582
g26
I00
(lp583
tp584
(Ntp585
tp586
ba(lp587
g16
(g35
(I0
tp588
g19
tp589
Rp590
(I1
(L0L
tp591
g26
I00
(lp592
tp593
ba(lp594
g581
atp595
bsg177
S'"""rechnen"""'
p596
sbatp597
ba(lp598
g560
atp599
bsg177
g542
sbatp600
ba(lp601
g539
atp602
bsg177
g521
sbatp603
ba(lp604
g518
atp605
bsg177
g500
sbatp606
ba(lp607
g497
atp608
bsg177
g478
sbag0
(g7
g2
Ntp609
Rp610
(dp611
g11
g0
(g12
g2
Ntp612
Rp613
((lp614
g16
(g17
(I0
tp615
g19
tp616
Rp617
((I1
(L0L
tp618
g26
I00
(lp619
tp620
(Ntp621
tp622
ba(lp623
g16
(g35
(I0
tp624
g19
tp625
Rp626
(I1
(L0L
tp627
g26
I00
(lp628
tp629
ba(lp630
g617
atp631
bsg177
S';'
p632
sbatp633
ba(lp634
g475
atp635
bsg177
g457
sbatp636
ba(lp637
g454
atp638
bsg177
S'Stmt'
p639
sbag0
(g7
g2
Ntp640
Rp641
(dp642
g11
g0
(g12
g2
Ntp643
Rp644
((lp645
g16
(g17
(I0
tp646
g19
tp647
Rp648
((I1
(L1L
tp649
g26
I00
(lp650
S'Single_stmt'
p651
atp652
(Ntp653
tp654
ba(lp655
g16
(g35
(I0
tp656
g19
tp657
Rp658
(I1
(L1L
tp659
g26
I00
(lp660
g0
(g7
g2
Ntp661
Rp662
(dp663
g11
g0
(g12
g2
Ntp664
Rp665
((lp666
g16
(g17
(I0
tp667
g19
tp668
Rp669
((I1
(L2L
tp670
g26
I00
(lp671
S'Stmts'
p672
aS'_;_'
p673
atp674
(Ntp675
tp676
ba(lp677
g16
(g35
(I0
tp678
g19
tp679
Rp680
(I1
(L2L
tp681
g26
I00
(lp682
g0
(g7
g2
Ntp683
Rp684
(dp685
g11
g0
(g12
g2
Ntp686
Rp687
((lp688
g16
(g17
(I0
tp689
g19
tp690
Rp691
((I1
(L2L
tp692
g26
I00
(lp693
S'_return_'
p694
aS'Exprlist'
p695
atp696
(Ntp697
tp698
ba(lp699
g16
(g35
(I0
tp700
g19
tp701
Rp702
(I1
(L2L
tp703
g26
I00
(lp704
g0
(g7
g2
Ntp705
Rp706
(dp707
g11
g0
(g12
g2
Ntp708
Rp709
((lp710
g16
(g17
(I0
tp711
g19
tp712
Rp713
((I1
(L0L
tp714
g26
I00
(lp715
tp716
(Ntp717
tp718
ba(lp719
g16
(g35
(I0
tp720
g19
tp721
Rp722
(I1
(L0L
tp723
g26
I00
(lp724
tp725
ba(lp726
g713
atp727
bsg177
S'return'
p728
sbag0
(g7
g2
Ntp729
Rp730
(dp731
g11
g0
(g12
g2
Ntp732
Rp733
((lp734
g16
(g17
(I0
tp735
g19
tp736
Rp737
((I1
(L1L
tp738
g26
I00
(lp739
S'Expr'
p740
atp741
(Ntp742
tp743
ba(lp744
g16
(g35
(I0
tp745
g19
tp746
Rp747
(I1
(L1L
tp748
g26
I00
(lp749
g0
(g7
g2
Ntp750
Rp751
(dp752
g11
g0
(g12
g2
Ntp753
Rp754
((lp755
g16
(g17
(I0
tp756
g19
tp757
Rp758
((I1
(L3L
tp759
g26
I00
(lp760
S'Expr1'
p761
aS'_+_'
p762
aS'Expr2'
p763
atp764
(Ntp765
tp766
ba(lp767
g16
(g35
(I0
tp768
g19
tp769
Rp770
(I1
(L3L
tp771
g26
I00
(lp772
g0
(g7
g2
Ntp773
Rp774
(dp775
g11
g0
(g12
g2
Ntp776
Rp777
((lp778
g16
(g17
(I0
tp779
g19
tp780
Rp781
((I1
(L3L
tp782
g26
I00
(lp783
S'Expr1'
p784
aS'_+_'
p785
aS'Expr2'
p786
atp787
(Ntp788
tp789
ba(lp790
g16
(g35
(I0
tp791
g19
tp792
Rp793
(I1
(L3L
tp794
g26
I00
(lp795
g0
(g7
g2
Ntp796
Rp797
(dp798
g11
g0
(g12
g2
Ntp799
Rp800
((lp801
g16
(g17
(I0
tp802
g19
tp803
Rp804
((I1
(L3L
tp805
g26
I00
(lp806
S'Expr1'
p807
aS'_+_'
p808
aS'Expr2'
p809
atp810
(Ntp811
tp812
ba(lp813
g16
(g35
(I0
tp814
g19
tp815
Rp816
(I1
(L3L
tp817
g26
I00
(lp818
g0
(g7
g2
Ntp819
Rp820
(dp821
g11
g0
(g12
g2
Ntp822
Rp823
((lp824
g16
(g17
(I0
tp825
g19
tp826
Rp827
((I1
(L3L
tp828
g26
I00
(lp829
S'Expr1'
p830
aS'_**_'
p831
aS'Expr2'
p832
atp833
(Ntp834
tp835
ba(lp836
g16
(g35
(I0
tp837
g19
tp838
Rp839
(I1
(L3L
tp840
g26
I00
(lp841
g0
(g7
g2
Ntp842
Rp843
(dp844
g11
g0
(g12
g2
Ntp845
Rp846
((lp847
g16
(g17
(I0
tp848
g19
tp849
Rp850
((I1
(L1L
tp851
g26
I00
(lp852
S'Val'
p853
atp854
(Ntp855
tp856
ba(lp857
g16
(g35
(I0
tp858
g19
tp859
Rp860
(I1
(L1L
tp861
g26
I00
(lp862
g0
(g7
g2
Ntp863
Rp864
(dp865
g11
g0
(g12
g2
Ntp866
Rp867
((lp868
g16
(g17
(I0
tp869
g19
tp870
Rp871
((I1
(L1L
tp872
g26
I00
(lp873
S'Var'
p874
atp875
(Ntp876
tp877
ba(lp878
g16
(g35
(I0
tp879
g19
tp880
Rp881
(I1
(L1L
tp882
g26
I00
(lp883
g0
(g7
g2
Ntp884
Rp885
(dp886
g11
g0
(g12
g2
Ntp887
Rp888
((lp889
g16
(g17
(I0
tp890
g19
tp891
Rp892
((I1
(L1L
tp893
g26
I00
(lp894
S'_x_'
p895
atp896
(Ntp897
tp898
ba(lp899
g16
(g35
(I0
tp900
g19
tp901
Rp902
(I1
(L1L
tp903
g26
I00
(lp904
g0
(g7
g2
Ntp905
Rp906
(dp907
g11
g0
(g12
g2
Ntp908
Rp909
((lp910
g16
(g17
(I0
tp911
g19
tp912
Rp913
((I1
(L0L
tp914
g26
I00
(lp915
tp916
(Ntp917
tp918
ba(lp919
g16
(g35
(I0
tp920
g19
tp921
Rp922
(I1
(L0L
tp923
g26
I00
(lp924
tp925
ba(lp926
g913
atp927
bsg177
g334
sbatp928
ba(lp929
g892
atp930
bsg177
g874
sbatp931
ba(lp932
g871
atp933
bsg177
g853
sbatp934
ba(lp935
g850
atp936
bsg177
S'Expr'
p937
sbag0
(g7
g2
Ntp938
Rp939
(dp940
g11
g0
(g12
g2
Ntp941
Rp942
((lp943
g16
(g17
(I0
tp944
g19
tp945
Rp946
((I1
(L0L
tp947
g26
I00
(lp948
tp949
(Ntp950
tp951
ba(lp952
g16
(g35
(I0
tp953
g19
tp954
Rp955
(I1
(L0L
tp956
g26
I00
(lp957
tp958
ba(lp959
g946
atp960
bsg177
S'**'
p961
sbag0
(g7
g2
Ntp962
Rp963
(dp964
g11
g0
(g12
g2
Ntp965
Rp966
((lp967
g16
(g17
(I0
tp968
g19
tp969
Rp970
((I1
(L1L
tp971
g26
I00
(lp972
S'Val'
p973
atp974
(Ntp975
tp976
ba(lp977
g16
(g35
(I0
tp978
g19
tp979
Rp980
(I1
(L1L
tp981
g26
I00
(lp982
g0
(g7
g2
Ntp983
Rp984
(dp985
g11
g0
(g12
g2
Ntp986
Rp987
((lp988
g16
(g17
(I0
tp989
g19
tp990
Rp991
((I1
(L1L
tp992
g26
I00
(lp993
S'Number'
p994
atp995
(Ntp996
tp997
ba(lp998
g16
(g35
(I0
tp999
g19
tp1000
Rp1001
(I1
(L1L
tp1002
g26
I00
(lp1003
g0
(g7
g2
Ntp1004
Rp1005
(dp1006
g11
g0
(g12
g2
Ntp1007
Rp1008
((lp1009
g16
(g17
(I0
tp1010
g19
tp1011
Rp1012
((I1
(L1L
tp1013
g26
I00
(lp1014
S'_2_'
p1015
atp1016
(Ntp1017
tp1018
ba(lp1019
g16
(g35
(I0
tp1020
g19
tp1021
Rp1022
(I1
(L1L
tp1023
g26
I00
(lp1024
g0
(g7
g2
Ntp1025
Rp1026
(dp1027
g11
g0
(g12
g2
Ntp1028
Rp1029
((lp1030
g16
(g17
(I0
tp1031
g19
tp1032
Rp1033
((I1
(L0L
tp1034
g26
I00
(lp1035
tp1036
(Ntp1037
tp1038
ba(lp1039
g16
(g35
(I0
tp1040
g19
tp1041
Rp1042
(I1
(L0L
tp1043
g26
I00
(lp1044
tp1045
ba(lp1046
g1033
atp1047
bsg177
S'2'
p1048
sbatp1049
ba(lp1050
g1012
atp1051
bsg177
g994
sbatp1052
ba(lp1053
g991
atp1054
bsg177
g973
sbatp1055
ba(lp1056
g970
atp1057
bsg177
S'Expr'
p1058
sbatp1059
ba(lp1060
g827
atp1061
bsg177
S'Expr'
p1062
sbag0
(g7
g2
Ntp1063
Rp1064
(dp1065
g11
g0
(g12
g2
Ntp1066
Rp1067
((lp1068
g16
(g17
(I0
tp1069
g19
tp1070
Rp1071
((I1
(L0L
tp1072
g26
I00
(lp1073
tp1074
(Ntp1075
tp1076
ba(lp1077
g16
(g35
(I0
tp1078
g19
tp1079
Rp1080
(I1
(L0L
tp1081
g26
I00
(lp1082
tp1083
ba(lp1084
g1071
atp1085
bsg177
S'+'
p1086
sbag0
(g7
g2
Ntp1087
Rp1088
(dp1089
g11
g0
(g12
g2
Ntp1090
Rp1091
((lp1092
g16
(g17
(I0
tp1093
g19
tp1094
Rp1095
((I1
(L3L
tp1096
g26
I00
(lp1097
S'Expr1'
p1098
aS'_-_'
p1099
aS'Expr2'
p1100
atp1101
(Ntp1102
tp1103
ba(lp1104
g16
(g35
(I0
tp1105
g19
tp1106
Rp1107
(I1
(L3L
tp1108
g26
I00
(lp1109
g0
(g7
g2
Ntp1110
Rp1111
(dp1112
g11
g0
(g12
g2
Ntp1113
Rp1114
((lp1115
g16
(g17
(I0
tp1116
g19
tp1117
Rp1118
((I1
(L3L
tp1119
g26
I00
(lp1120
S'Expr1'
p1121
aS'_-_'
p1122
aS'Expr2'
p1123
atp1124
(Ntp1125
tp1126
ba(lp1127
g16
(g35
(I0
tp1128
g19
tp1129
Rp1130
(I1
(L3L
tp1131
g26
I00
(lp1132
g0
(g7
g2
Ntp1133
Rp1134
(dp1135
g11
g0
(g12
g2
Ntp1136
Rp1137
((lp1138
g16
(g17
(I0
tp1139
g19
tp1140
Rp1141
((I1
(L3L
tp1142
g26
I00
(lp1143
S'Expr1'
p1144
aS'_*_'
p1145
aS'Expr2'
p1146
atp1147
(Ntp1148
tp1149
ba(lp1150
g16
(g35
(I0
tp1151
g19
tp1152
Rp1153
(I1
(L3L
tp1154
g26
I00
(lp1155
g0
(g7
g2
Ntp1156
Rp1157
(dp1158
g11
g0
(g12
g2
Ntp1159
Rp1160
((lp1161
g16
(g17
(I0
tp1162
g19
tp1163
Rp1164
((I1
(L1L
tp1165
g26
I00
(lp1166
S'Val'
p1167
atp1168
(Ntp1169
tp1170
ba(lp1171
g16
(g35
(I0
tp1172
g19
tp1173
Rp1174
(I1
(L1L
tp1175
g26
I00
(lp1176
g0
(g7
g2
Ntp1177
Rp1178
(dp1179
g11
g0
(g12
g2
Ntp1180
Rp1181
((lp1182
g16
(g17
(I0
tp1183
g19
tp1184
Rp1185
((I1
(L1L
tp1186
g26
I00
(lp1187
S'Var'
p1188
atp1189
(Ntp1190
tp1191
ba(lp1192
g16
(g35
(I0
tp1193
g19
tp1194
Rp1195
(I1
(L1L
tp1196
g26
I00
(lp1197
g0
(g7
g2
Ntp1198
Rp1199
(dp1200
g11
g0
(g12
g2
Ntp1201
Rp1202
((lp1203
g16
(g17
(I0
tp1204
g19
tp1205
Rp1206
((I1
(L1L
tp1207
g26
I00
(lp1208
S'_x_'
p1209
atp1210
(Ntp1211
tp1212
ba(lp1213
g16
(g35
(I0
tp1214
g19
tp1215
Rp1216
(I1
(L1L
tp1217
g26
I00
(lp1218
g0
(g7
g2
Ntp1219
Rp1220
(dp1221
g11
g0
(g12
g2
Ntp1222
Rp1223
((lp1224
g16
(g17
(I0
tp1225
g19
tp1226
Rp1227
((I1
(L0L
tp1228
g26
I00
(lp1229
tp1230
(Ntp1231
tp1232
ba(lp1233
g16
(g35
(I0
tp1234
g19
tp1235
Rp1236
(I1
(L0L
tp1237
g26
I00
(lp1238
tp1239
ba(lp1240
g1227
atp1241
bsg177
g334
sbatp1242
ba(lp1243
g1206
atp1244
bsg177
g1188
sbatp1245
ba(lp1246
g1185
atp1247
bsg177
g1167
sbatp1248
ba(lp1249
g1164
atp1250
bsg177
S'Expr'
p1251
sbag0
(g7
g2
Ntp1252
Rp1253
(dp1254
g11
g0
(g12
g2
Ntp1255
Rp1256
((lp1257
g16
(g17
(I0
tp1258
g19
tp1259
Rp1260
((I1
(L0L
tp1261
g26
I00
(lp1262
tp1263
(Ntp1264
tp1265
ba(lp1266
g16
(g35
(I0
tp1267
g19
tp1268
Rp1269
(I1
(L0L
tp1270
g26
I00
(lp1271
tp1272
ba(lp1273
g1260
atp1274
bsg177
S'*'
p1275
sbag0
(g7
g2
Ntp1276
Rp1277
(dp1278
g11
g0
(g12
g2
Ntp1279
Rp1280
((lp1281
g16
(g17
(I0
tp1282
g19
tp1283
Rp1284
((I1
(L1L
tp1285
g26
I00
(lp1286
S'Val'
p1287
atp1288
(Ntp1289
tp1290
ba(lp1291
g16
(g35
(I0
tp1292
g19
tp1293
Rp1294
(I1
(L1L
tp1295
g26
I00
(lp1296
g0
(g7
g2
Ntp1297
Rp1298
(dp1299
g11
g0
(g12
g2
Ntp1300
Rp1301
((lp1302
g16
(g17
(I0
tp1303
g19
tp1304
Rp1305
((I1
(L1L
tp1306
g26
I00
(lp1307
S'Number'
p1308
atp1309
(Ntp1310
tp1311
ba(lp1312
g16
(g35
(I0
tp1313
g19
tp1314
Rp1315
(I1
(L1L
tp1316
g26
I00
(lp1317
g0
(g7
g2
Ntp1318
Rp1319
(dp1320
g11
g0
(g12
g2
Ntp1321
Rp1322
((lp1323
g16
(g17
(I0
tp1324
g19
tp1325
Rp1326
((I1
(L1L
tp1327
g26
I00
(lp1328
S'_4_'
p1329
atp1330
(Ntp1331
tp1332
ba(lp1333
g16
(g35
(I0
tp1334
g19
tp1335
Rp1336
(I1
(L1L
tp1337
g26
I00
(lp1338
g0
(g7
g2
Ntp1339
Rp1340
(dp1341
g11
g0
(g12
g2
Ntp1342
Rp1343
((lp1344
g16
(g17
(I0
tp1345
g19
tp1346
Rp1347
((I1
(L0L
tp1348
g26
I00
(lp1349
tp1350
(Ntp1351
tp1352
ba(lp1353
g16
(g35
(I0
tp1354
g19
tp1355
Rp1356
(I1
(L0L
tp1357
g26
I00
(lp1358
tp1359
ba(lp1360
g1347
atp1361
bsg177
S'4'
p1362
sbatp1363
ba(lp1364
g1326
atp1365
bsg177
g1308
sbatp1366
ba(lp1367
g1305
atp1368
bsg177
g1287
sbatp1369
ba(lp1370
g1284
atp1371
bsg177
S'Expr'
p1372
sbatp1373
ba(lp1374
g1141
atp1375
bsg177
S'Expr'
p1376
sbag0
(g7
g2
Ntp1377
Rp1378
(dp1379
g11
g0
(g12
g2
Ntp1380
Rp1381
((lp1382
g16
(g17
(I0
tp1383
g19
tp1384
Rp1385
((I1
(L0L
tp1386
g26
I00
(lp1387
tp1388
(Ntp1389
tp1390
ba(lp1391
g16
(g35
(I0
tp1392
g19
tp1393
Rp1394
(I1
(L0L
tp1395
g26
I00
(lp1396
tp1397
ba(lp1398
g1385
atp1399
bsg177
S'-'
p1400
sbag0
(g7
g2
Ntp1401
Rp1402
(dp1403
g11
g0
(g12
g2
Ntp1404
Rp1405
((lp1406
g16
(g17
(I0
tp1407
g19
tp1408
Rp1409
((I1
(L3L
tp1410
g26
I00
(lp1411
S'Expr1'
p1412
aS'_/_'
p1413
aS'Expr2'
p1414
atp1415
(Ntp1416
tp1417
ba(lp1418
g16
(g35
(I0
tp1419
g19
tp1420
Rp1421
(I1
(L3L
tp1422
g26
I00
(lp1423
g0
(g7
g2
Ntp1424
Rp1425
(dp1426
g11
g0
(g12
g2
Ntp1427
Rp1428
((lp1429
g16
(g17
(I0
tp1430
g19
tp1431
Rp1432
((I1
(L3L
tp1433
g26
I00
(lp1434
S'_(_'
p1435
aS'Expr'
p1436
aS'_)_'
p1437
atp1438
(Ntp1439
tp1440
ba(lp1441
g16
(g35
(I0
tp1442
g19
tp1443
Rp1444
(I1
(L3L
tp1445
g26
I00
(lp1446
g0
(g7
g2
Ntp1447
Rp1448
(dp1449
g11
g0
(g12
g2
Ntp1450
Rp1451
((lp1452
g16
(g17
(I0
tp1453
g19
tp1454
Rp1455
((I1
(L0L
tp1456
g26
I00
(lp1457
tp1458
(Ntp1459
tp1460
ba(lp1461
g16
(g35
(I0
tp1462
g19
tp1463
Rp1464
(I1
(L0L
tp1465
g26
I00
(lp1466
tp1467
ba(lp1468
g1455
atp1469
bsg177
g226
sbag0
(g7
g2
Ntp1470
Rp1471
(dp1472
g11
g0
(g12
g2
Ntp1473
Rp1474
((lp1475
g16
(g17
(I0
tp1476
g19
tp1477
Rp1478
((I1
(L3L
tp1479
g26
I00
(lp1480
S'Expr1'
p1481
aS'_-_'
p1482
aS'Expr2'
p1483
atp1484
(Ntp1485
tp1486
ba(lp1487
g16
(g35
(I0
tp1488
g19
tp1489
Rp1490
(I1
(L3L
tp1491
g26
I00
(lp1492
g0
(g7
g2
Ntp1493
Rp1494
(dp1495
g11
g0
(g12
g2
Ntp1496
Rp1497
((lp1498
g16
(g17
(I0
tp1499
g19
tp1500
Rp1501
((I1
(L1L
tp1502
g26
I00
(lp1503
S'Val'
p1504
atp1505
(Ntp1506
tp1507
ba(lp1508
g16
(g35
(I0
tp1509
g19
tp1510
Rp1511
(I1
(L1L
tp1512
g26
I00
(lp1513
g0
(g7
g2
Ntp1514
Rp1515
(dp1516
g11
g0
(g12
g2
Ntp1517
Rp1518
((lp1519
g16
(g17
(I0
tp1520
g19
tp1521
Rp1522
((I1
(L1L
tp1523
g26
I00
(lp1524
S'Var'
p1525
atp1526
(Ntp1527
tp1528
ba(lp1529
g16
(g35
(I0
tp1530
g19
tp1531
Rp1532
(I1
(L1L
tp1533
g26
I00
(lp1534
g0
(g7
g2
Ntp1535
Rp1536
(dp1537
g11
g0
(g12
g2
Ntp1538
Rp1539
((lp1540
g16
(g17
(I0
tp1541
g19
tp1542
Rp1543
((I1
(L1L
tp1544
g26
I00
(lp1545
S'_x_'
p1546
atp1547
(Ntp1548
tp1549
ba(lp1550
g16
(g35
(I0
tp1551
g19
tp1552
Rp1553
(I1
(L1L
tp1554
g26
I00
(lp1555
g0
(g7
g2
Ntp1556
Rp1557
(dp1558
g11
g0
(g12
g2
Ntp1559
Rp1560
((lp1561
g16
(g17
(I0
tp1562
g19
tp1563
Rp1564
((I1
(L0L
tp1565
g26
I00
(lp1566
tp1567
(Ntp1568
tp1569
ba(lp1570
g16
(g35
(I0
tp1571
g19
tp1572
Rp1573
(I1
(L0L
tp1574
g26
I00
(lp1575
tp1576
ba(lp1577
g1564
atp1578
bsg177
g334
sbatp1579
ba(lp1580
g1543
atp1581
bsg177
g1525
sbatp1582
ba(lp1583
g1522
atp1584
bsg177
g1504
sbatp1585
ba(lp1586
g1501
atp1587
bsg177
S'Expr'
p1588
sbag0
(g7
g2
Ntp1589
Rp1590
(dp1591
g11
g0
(g12
g2
Ntp1592
Rp1593
((lp1594
g16
(g17
(I0
tp1595
g19
tp1596
Rp1597
((I1
(L0L
tp1598
g26
I00
(lp1599
tp1600
(Ntp1601
tp1602
ba(lp1603
g16
(g35
(I0
tp1604
g19
tp1605
Rp1606
(I1
(L0L
tp1607
g26
I00
(lp1608
tp1609
ba(lp1610
g1597
atp1611
bsg177
g1400
sbag0
(g7
g2
Ntp1612
Rp1613
(dp1614
g11
g0
(g12
g2
Ntp1615
Rp1616
((lp1617
g16
(g17
(I0
tp1618
g19
tp1619
Rp1620
((I1
(L1L
tp1621
g26
I00
(lp1622
S'Val'
p1623
atp1624
(Ntp1625
tp1626
ba(lp1627
g16
(g35
(I0
tp1628
g19
tp1629
Rp1630
(I1
(L1L
tp1631
g26
I00
(lp1632
g0
(g7
g2
Ntp1633
Rp1634
(dp1635
g11
g0
(g12
g2
Ntp1636
Rp1637
((lp1638
g16
(g17
(I0
tp1639
g19
tp1640
Rp1641
((I1
(L1L
tp1642
g26
I00
(lp1643
S'Number'
p1644
atp1645
(Ntp1646
tp1647
ba(lp1648
g16
(g35
(I0
tp1649
g19
tp1650
Rp1651
(I1
(L1L
tp1652
g26
I00
(lp1653
g0
(g7
g2
Ntp1654
Rp1655
(dp1656
g11
g0
(g12
g2
Ntp1657
Rp1658
((lp1659
g16
(g17
(I0
tp1660
g19
tp1661
Rp1662
((I1
(L1L
tp1663
g26
I00
(lp1664
S'_3_'
p1665
atp1666
(Ntp1667
tp1668
ba(lp1669
g16
(g35
(I0
tp1670
g19
tp1671
Rp1672
(I1
(L1L
tp1673
g26
I00
(lp1674
g0
(g7
g2
Ntp1675
Rp1676
(dp1677
g11
g0
(g12
g2
Ntp1678
Rp1679
((lp1680
g16
(g17
(I0
tp1681
g19
tp1682
Rp1683
((I1
(L0L
tp1684
g26
I00
(lp1685
tp1686
(Ntp1687
tp1688
ba(lp1689
g16
(g35
(I0
tp1690
g19
tp1691
Rp1692
(I1
(L0L
tp1693
g26
I00
(lp1694
tp1695
ba(lp1696
g1683
atp1697
bsg177
S'3'
p1698
sbatp1699
ba(lp1700
g1662
atp1701
bsg177
g1644
sbatp1702
ba(lp1703
g1641
atp1704
bsg177
g1623
sbatp1705
ba(lp1706
g1620
atp1707
bsg177
S'Expr'
p1708
sbatp1709
ba(lp1710
g1478
atp1711
bsg177
g1436
sbag0
(g7
g2
Ntp1712
Rp1713
(dp1714
g11
g0
(g12
g2
Ntp1715
Rp1716
((lp1717
g16
(g17
(I0
tp1718
g19
tp1719
Rp1720
((I1
(L0L
tp1721
g26
I00
(lp1722
tp1723
(Ntp1724
tp1725
ba(lp1726
g16
(g35
(I0
tp1727
g19
tp1728
Rp1729
(I1
(L0L
tp1730
g26
I00
(lp1731
tp1732
ba(lp1733
g1720
atp1734
bsg177
g370
sbatp1735
ba(lp1736
g1432
atp1737
bsg177
S'Expr'
p1738
sbag0
(g7
g2
Ntp1739
Rp1740
(dp1741
g11
g0
(g12
g2
Ntp1742
Rp1743
((lp1744
g16
(g17
(I0
tp1745
g19
tp1746
Rp1747
((I1
(L0L
tp1748
g26
I00
(lp1749
tp1750
(Ntp1751
tp1752
ba(lp1753
g16
(g35
(I0
tp1754
g19
tp1755
Rp1756
(I1
(L0L
tp1757
g26
I00
(lp1758
tp1759
ba(lp1760
g1747
atp1761
bsg177
S'/'
p1762
sbag0
(g7
g2
Ntp1763
Rp1764
(dp1765
g11
g0
(g12
g2
Ntp1766
Rp1767
((lp1768
g16
(g17
(I0
tp1769
g19
tp1770
Rp1771
((I1
(L1L
tp1772
g26
I00
(lp1773
S'Val'
p1774
atp1775
(Ntp1776
tp1777
ba(lp1778
g16
(g35
(I0
tp1779
g19
tp1780
Rp1781
(I1
(L1L
tp1782
g26
I00
(lp1783
g0
(g7
g2
Ntp1784
Rp1785
(dp1786
g11
g0
(g12
g2
Ntp1787
Rp1788
((lp1789
g16
(g17
(I0
tp1790
g19
tp1791
Rp1792
((I1
(L1L
tp1793
g26
I00
(lp1794
S'Var'
p1795
atp1796
(Ntp1797
tp1798
ba(lp1799
g16
(g35
(I0
tp1800
g19
tp1801
Rp1802
(I1
(L1L
tp1803
g26
I00
(lp1804
g0
(g7
g2
Ntp1805
Rp1806
(dp1807
g11
g0
(g12
g2
Ntp1808
Rp1809
((lp1810
g16
(g17
(I0
tp1811
g19
tp1812
Rp1813
((I1
(L1L
tp1814
g26
I00
(lp1815
S'_x_'
p1816
atp1817
(Ntp1818
tp1819
ba(lp1820
g16
(g35
(I0
tp1821
g19
tp1822
Rp1823
(I1
(L1L
tp1824
g26
I00
(lp1825
g0
(g7
g2
Ntp1826
Rp1827
(dp1828
g11
g0
(g12
g2
Ntp1829
Rp1830
((lp1831
g16
(g17
(I0
tp1832
g19
tp1833
Rp1834
((I1
(L0L
tp1835
g26
I00
(lp1836
tp1837
(Ntp1838
tp1839
ba(lp1840
g16
(g35
(I0
tp1841
g19
tp1842
Rp1843
(I1
(L0L
tp1844
g26
I00
(lp1845
tp1846
ba(lp1847
g1834
atp1848
bsg177
g334
sbatp1849
ba(lp1850
g1813
atp1851
bsg177
g1795
sbatp1852
ba(lp1853
g1792
atp1854
bsg177
g1774
sbatp1855
ba(lp1856
g1771
atp1857
bsg177
S'Expr'
p1858
sbatp1859
ba(lp1860
g1409
atp1861
bsg177
S'Expr'
p1862
sbatp1863
ba(lp1864
g1118
atp1865
bsg177
S'Expr'
p1866
sbag0
(g7
g2
Ntp1867
Rp1868
(dp1869
g11
g0
(g12
g2
Ntp1870
Rp1871
((lp1872
g16
(g17
(I0
tp1873
g19
tp1874
Rp1875
((I1
(L0L
tp1876
g26
I00
(lp1877
tp1878
(Ntp1879
tp1880
ba(lp1881
g16
(g35
(I0
tp1882
g19
tp1883
Rp1884
(I1
(L0L
tp1885
g26
I00
(lp1886
tp1887
ba(lp1888
g1875
atp1889
bsg177
g1400
sbag0
(g7
g2
Ntp1890
Rp1891
(dp1892
g11
g0
(g12
g2
Ntp1893
Rp1894
((lp1895
g16
(g17
(I0
tp1896
g19
tp1897
Rp1898
((I1
(L1L
tp1899
g26
I00
(lp1900
S'Val'
p1901
atp1902
(Ntp1903
tp1904
ba(lp1905
g16
(g35
(I0
tp1906
g19
tp1907
Rp1908
(I1
(L1L
tp1909
g26
I00
(lp1910
g0
(g7
g2
Ntp1911
Rp1912
(dp1913
g11
g0
(g12
g2
Ntp1914
Rp1915
((lp1916
g16
(g17
(I0
tp1917
g19
tp1918
Rp1919
((I1
(L1L
tp1920
g26
I00
(lp1921
S'Number'
p1922
atp1923
(Ntp1924
tp1925
ba(lp1926
g16
(g35
(I0
tp1927
g19
tp1928
Rp1929
(I1
(L1L
tp1930
g26
I00
(lp1931
g0
(g7
g2
Ntp1932
Rp1933
(dp1934
g11
g0
(g12
g2
Ntp1935
Rp1936
((lp1937
g16
(g17
(I0
tp1938
g19
tp1939
Rp1940
((I1
(L1L
tp1941
g26
I00
(lp1942
S'_1.3e4_'
p1943
atp1944
(Ntp1945
tp1946
ba(lp1947
g16
(g35
(I0
tp1948
g19
tp1949
Rp1950
(I1
(L1L
tp1951
g26
I00
(lp1952
g0
(g7
g2
Ntp1953
Rp1954
(dp1955
g11
g0
(g12
g2
Ntp1956
Rp1957
((lp1958
g16
(g17
(I0
tp1959
g19
tp1960
Rp1961
((I1
(L0L
tp1962
g26
I00
(lp1963
tp1964
(Ntp1965
tp1966
ba(lp1967
g16
(g35
(I0
tp1968
g19
tp1969
Rp1970
(I1
(L0L
tp1971
g26
I00
(lp1972
tp1973
ba(lp1974
g1961
atp1975
bsg177
S'1.3e4'
p1976
sbatp1977
ba(lp1978
g1940
atp1979
bsg177
g1922
sbatp1980
ba(lp1981
g1919
atp1982
bsg177
g1901
sbatp1983
ba(lp1984
g1898
atp1985
bsg177
S'Expr'
p1986
sbatp1987
ba(lp1988
g1095
atp1989
bsg177
S'Expr'
p1990
sbatp1991
ba(lp1992
g804
atp1993
bsg177
S'Expr'
p1994
sbag0
(g7
g2
Ntp1995
Rp1996
(dp1997
g11
g0
(g12
g2
Ntp1998
Rp1999
((lp2000
g16
(g17
(I0
tp2001
g19
tp2002
Rp2003
((I1
(L0L
tp2004
g26
I00
(lp2005
tp2006
(Ntp2007
tp2008
ba(lp2009
g16
(g35
(I0
tp2010
g19
tp2011
Rp2012
(I1
(L0L
tp2013
g26
I00
(lp2014
tp2015
ba(lp2016
g2003
atp2017
bsg177
g1086
sbag0
(g7
g2
Ntp2018
Rp2019
(dp2020
g11
g0
(g12
g2
Ntp2021
Rp2022
((lp2023
g16
(g17
(I0
tp2024
g19
tp2025
Rp2026
((I1
(L1L
tp2027
g26
I00
(lp2028
S'Val'
p2029
atp2030
(Ntp2031
tp2032
ba(lp2033
g16
(g35
(I0
tp2034
g19
tp2035
Rp2036
(I1
(L1L
tp2037
g26
I00
(lp2038
g0
(g7
g2
Ntp2039
Rp2040
(dp2041
g11
g0
(g12
g2
Ntp2042
Rp2043
((lp2044
g16
(g17
(I0
tp2045
g19
tp2046
Rp2047
((I1
(L1L
tp2048
g26
I00
(lp2049
S'Number'
p2050
atp2051
(Ntp2052
tp2053
ba(lp2054
g16
(g35
(I0
tp2055
g19
tp2056
Rp2057
(I1
(L1L
tp2058
g26
I00
(lp2059
g0
(g7
g2
Ntp2060
Rp2061
(dp2062
g11
g0
(g12
g2
Ntp2063
Rp2064
((lp2065
g16
(g17
(I0
tp2066
g19
tp2067
Rp2068
((I1
(L1L
tp2069
g26
I00
(lp2070
S'_2_'
p2071
atp2072
(Ntp2073
tp2074
ba(lp2075
g16
(g35
(I0
tp2076
g19
tp2077
Rp2078
(I1
(L1L
tp2079
g26
I00
(lp2080
g0
(g7
g2
Ntp2081
Rp2082
(dp2083
g11
g0
(g12
g2
Ntp2084
Rp2085
((lp2086
g16
(g17
(I0
tp2087
g19
tp2088
Rp2089
((I1
(L0L
tp2090
g26
I00
(lp2091
tp2092
(Ntp2093
tp2094
ba(lp2095
g16
(g35
(I0
tp2096
g19
tp2097
Rp2098
(I1
(L0L
tp2099
g26
I00
(lp2100
tp2101
ba(lp2102
g2089
atp2103
bsg177
g1048
sbatp2104
ba(lp2105
g2068
atp2106
bsg177
g2050
sbatp2107
ba(lp2108
g2047
atp2109
bsg177
g2029
sbatp2110
ba(lp2111
g2026
atp2112
bsg177
S'Expr'
p2113
sbatp2114
ba(lp2115
g781
atp2116
bsg177
S'Expr'
p2117
sbag0
(g7
g2
Ntp2118
Rp2119
(dp2120
g11
g0
(g12
g2
Ntp2121
Rp2122
((lp2123
g16
(g17
(I0
tp2124
g19
tp2125
Rp2126
((I1
(L0L
tp2127
g26
I00
(lp2128
tp2129
(Ntp2130
tp2131
ba(lp2132
g16
(g35
(I0
tp2133
g19
tp2134
Rp2135
(I1
(L0L
tp2136
g26
I00
(lp2137
tp2138
ba(lp2139
g2126
atp2140
bsg177
g1086
sbag0
(g7
g2
Ntp2141
Rp2142
(dp2143
g11
g0
(g12
g2
Ntp2144
Rp2145
((lp2146
g16
(g17
(I0
tp2147
g19
tp2148
Rp2149
((I1
(L1L
tp2150
g26
I00
(lp2151
S'Val'
p2152
atp2153
(Ntp2154
tp2155
ba(lp2156
g16
(g35
(I0
tp2157
g19
tp2158
Rp2159
(I1
(L1L
tp2160
g26
I00
(lp2161
g0
(g7
g2
Ntp2162
Rp2163
(dp2164
g11
g0
(g12
g2
Ntp2165
Rp2166
((lp2167
g16
(g17
(I0
tp2168
g19
tp2169
Rp2170
((I1
(L1L
tp2171
g26
I00
(lp2172
S'Number'
p2173
atp2174
(Ntp2175
tp2176
ba(lp2177
g16
(g35
(I0
tp2178
g19
tp2179
Rp2180
(I1
(L1L
tp2181
g26
I00
(lp2182
g0
(g7
g2
Ntp2183
Rp2184
(dp2185
g11
g0
(g12
g2
Ntp2186
Rp2187
((lp2188
g16
(g17
(I0
tp2189
g19
tp2190
Rp2191
((I1
(L1L
tp2192
g26
I00
(lp2193
S'_5_'
p2194
atp2195
(Ntp2196
tp2197
ba(lp2198
g16
(g35
(I0
tp2199
g19
tp2200
Rp2201
(I1
(L1L
tp2202
g26
I00
(lp2203
g0
(g7
g2
Ntp2204
Rp2205
(dp2206
g11
g0
(g12
g2
Ntp2207
Rp2208
((lp2209
g16
(g17
(I0
tp2210
g19
tp2211
Rp2212
((I1
(L0L
tp2213
g26
I00
(lp2214
tp2215
(Ntp2216
tp2217
ba(lp2218
g16
(g35
(I0
tp2219
g19
tp2220
Rp2221
(I1
(L0L
tp2222
g26
I00
(lp2223
tp2224
ba(lp2225
g2212
atp2226
bsg177
S'5'
p2227
sbatp2228
ba(lp2229
g2191
atp2230
bsg177
g2173
sbatp2231
ba(lp2232
g2170
atp2233
bsg177
g2152
sbatp2234
ba(lp2235
g2149
atp2236
bsg177
S'Expr'
p2237
sbatp2238
ba(lp2239
g758
atp2240
bsg177
g740
sbatp2241
ba(lp2242
g737
atp2243
bsg177
g695
sbatp2244
ba(lp2245
g691
atp2246
bsg177
g672
sbag0
(g7
g2
Ntp2247
Rp2248
(dp2249
g11
g0
(g12
g2
Ntp2250
Rp2251
((lp2252
g16
(g17
(I0
tp2253
g19
tp2254
Rp2255
((I1
(L0L
tp2256
g26
I00
(lp2257
tp2258
(Ntp2259
tp2260
ba(lp2261
g16
(g35
(I0
tp2262
g19
tp2263
Rp2264
(I1
(L0L
tp2265
g26
I00
(lp2266
tp2267
ba(lp2268
g2255
atp2269
bsg177
g632
sbatp2270
ba(lp2271
g669
atp2272
bsg177
g651
sbatp2273
ba(lp2274
g648
atp2275
bsg177
S'Stmt'
p2276
sbatp2277
ba(lp2278
g432
atp2279
bsg177
g389
sbag0
(g7
g2
Ntp2280
Rp2281
(dp2282
g11
g0
(g12
g2
Ntp2283
Rp2284
((lp2285
g16
(g17
(I0
tp2286
g19
tp2287
Rp2288
((I1
(L0L
tp2289
g26
I00
(lp2290
tp2291
(Ntp2292
tp2293
ba(lp2294
g16
(g35
(I0
tp2295
g19
tp2296
Rp2297
(I1
(L0L
tp2298
g26
I00
(lp2299
tp2300
ba(lp2301
g2288
atp2302
bsg177
S'$blockend'
p2303
sbatp2304
ba(lp2305
g385
atp2306
bsg177
g98
sbatp2307
ba(lp2308
g94
atp2309
bsg177
g76
sbatp2310
ba(lp2311
g73
atp2312
bsg177
S'Stmt'
p2313
sbag0
(g7
g2
Ntp2314
Rp2315
(dp2316
g11
g0
(g12
g2
Ntp2317
Rp2318
((lp2319
g16
(g17
(I0
tp2320
g19
tp2321
Rp2322
((I1
(L1L
tp2323
g26
I00
(lp2324
S'Single_stmt'
p2325
atp2326
(Ntp2327
tp2328
ba(lp2329
g16
(g35
(I0
tp2330
g19
tp2331
Rp2332
(I1
(L1L
tp2333
g26
I00
(lp2334
g0
(g7
g2
Ntp2335
Rp2336
(dp2337
g11
g0
(g12
g2
Ntp2338
Rp2339
((lp2340
g16
(g17
(I0
tp2341
g19
tp2342
Rp2343
((I1
(L2L
tp2344
g26
I00
(lp2345
S'Assign_stmt'
p2346
aS'_;_'
p2347
atp2348
(Ntp2349
tp2350
ba(lp2351
g16
(g35
(I0
tp2352
g19
tp2353
Rp2354
(I1
(L2L
tp2355
g26
I00
(lp2356
g0
(g7
g2
Ntp2357
Rp2358
(dp2359
g11
g0
(g12
g2
Ntp2360
Rp2361
((lp2362
g16
(g17
(I0
tp2363
g19
tp2364
Rp2365
((I1
(L1L
tp2366
g26
I00
(lp2367
S'Assign'
p2368
atp2369
(Ntp2370
tp2371
ba(lp2372
g16
(g35
(I0
tp2373
g19
tp2374
Rp2375
(I1
(L1L
tp2376
g26
I00
(lp2377
g0
(g7
g2
Ntp2378
Rp2379
(dp2380
g11
g0
(g12
g2
Ntp2381
Rp2382
((lp2383
g16
(g17
(I0
tp2384
g19
tp2385
Rp2386
((I1
(L3L
tp2387
g26
I00
(lp2388
S'Varlist'
p2389
aS'_=_'
p2390
aS'Exprlist'
p2391
atp2392
(Ntp2393
tp2394
ba(lp2395
g16
(g35
(I0
tp2396
g19
tp2397
Rp2398
(I1
(L3L
tp2399
g26
I00
(lp2400
g0
(g7
g2
Ntp2401
Rp2402
(dp2403
g11
g0
(g12
g2
Ntp2404
Rp2405
((lp2406
g16
(g17
(I0
tp2407
g19
tp2408
Rp2409
((I1
(L1L
tp2410
g26
I00
(lp2411
S'Vartuple'
p2412
atp2413
(Ntp2414
tp2415
ba(lp2416
g16
(g35
(I0
tp2417
g19
tp2418
Rp2419
(I1
(L1L
tp2420
g26
I00
(lp2421
g0
(g7
g2
Ntp2422
Rp2423
(dp2424
g11
g0
(g12
g2
Ntp2425
Rp2426
((lp2427
g16
(g17
(I0
tp2428
g19
tp2429
Rp2430
((I1
(L1L
tp2431
g26
I00
(lp2432
S'Var'
p2433
atp2434
(Ntp2435
tp2436
ba(lp2437
g16
(g35
(I0
tp2438
g19
tp2439
Rp2440
(I1
(L1L
tp2441
g26
I00
(lp2442
g0
(g7
g2
Ntp2443
Rp2444
(dp2445
g11
g0
(g12
g2
Ntp2446
Rp2447
((lp2448
g16
(g17
(I0
tp2449
g19
tp2450
Rp2451
((I1
(L1L
tp2452
g26
I00
(lp2453
S'_L_'
p2454
atp2455
(Ntp2456
tp2457
ba(lp2458
g16
(g35
(I0
tp2459
g19
tp2460
Rp2461
(I1
(L1L
tp2462
g26
I00
(lp2463
g0
(g7
g2
Ntp2464
Rp2465
(dp2466
g11
g0
(g12
g2
Ntp2467
Rp2468
((lp2469
g16
(g17
(I0
tp2470
g19
tp2471
Rp2472
((I1
(L0L
tp2473
g26
I00
(lp2474
tp2475
(Ntp2476
tp2477
ba(lp2478
g16
(g35
(I0
tp2479
g19
tp2480
Rp2481
(I1
(L0L
tp2482
g26
I00
(lp2483
tp2484
ba(lp2485
g2472
atp2486
bsg177
S'L'
p2487
sbatp2488
ba(lp2489
g2451
atp2490
bsg177
g2433
sbatp2491
ba(lp2492
g2430
atp2493
bsg177
g2412
sbatp2494
ba(lp2495
g2409
atp2496
bsg177
g2389
sbag0
(g7
g2
Ntp2497
Rp2498
(dp2499
g11
g0
(g12
g2
Ntp2500
Rp2501
((lp2502
g16
(g17
(I0
tp2503
g19
tp2504
Rp2505
((I1
(L0L
tp2506
g26
I00
(lp2507
tp2508
(Ntp2509
tp2510
ba(lp2511
g16
(g35
(I0
tp2512
g19
tp2513
Rp2514
(I1
(L0L
tp2515
g26
I00
(lp2516
tp2517
ba(lp2518
g2505
atp2519
bsg177
S'='
p2520
sbag0
(g7
g2
Ntp2521
Rp2522
(dp2523
g11
g0
(g12
g2
Ntp2524
Rp2525
((lp2526
g16
(g17
(I0
tp2527
g19
tp2528
Rp2529
((I1
(L1L
tp2530
g26
I00
(lp2531
S'Expr'
p2532
atp2533
(Ntp2534
tp2535
ba(lp2536
g16
(g35
(I0
tp2537
g19
tp2538
Rp2539
(I1
(L1L
tp2540
g26
I00
(lp2541
g0
(g7
g2
Ntp2542
Rp2543
(dp2544
g11
g0
(g12
g2
Ntp2545
Rp2546
((lp2547
g16
(g17
(I0
tp2548
g19
tp2549
Rp2550
((I1
(L3L
tp2551
g26
I00
(lp2552
S'Expr1'
p2553
aS'_*_'
p2554
aS'Expr2'
p2555
atp2556
(Ntp2557
tp2558
ba(lp2559
g16
(g35
(I0
tp2560
g19
tp2561
Rp2562
(I1
(L3L
tp2563
g26
I00
(lp2564
g0
(g7
g2
Ntp2565
Rp2566
(dp2567
g11
g0
(g12
g2
Ntp2568
Rp2569
((lp2570
g16
(g17
(I0
tp2571
g19
tp2572
Rp2573
((I1
(L1L
tp2574
g26
I00
(lp2575
S'Val'
p2576
atp2577
(Ntp2578
tp2579
ba(lp2580
g16
(g35
(I0
tp2581
g19
tp2582
Rp2583
(I1
(L1L
tp2584
g26
I00
(lp2585
g0
(g7
g2
Ntp2586
Rp2587
(dp2588
g11
g0
(g12
g2
Ntp2589
Rp2590
((lp2591
g16
(g17
(I0
tp2592
g19
tp2593
Rp2594
((I1
(L1L
tp2595
g26
I00
(lp2596
S'List_'
p2597
atp2598
(Ntp2599
tp2600
ba(lp2601
g16
(g35
(I0
tp2602
g19
tp2603
Rp2604
(I1
(L1L
tp2605
g26
I00
(lp2606
g0
(g7
g2
Ntp2607
Rp2608
(dp2609
g11
g0
(g12
g2
Ntp2610
Rp2611
((lp2612
g16
(g17
(I0
tp2613
g19
tp2614
Rp2615
((I1
(L3L
tp2616
g26
I00
(lp2617
S'_[_'
p2618
aS'Exprlist'
p2619
aS'_]_'
p2620
atp2621
(Ntp2622
tp2623
ba(lp2624
g16
(g35
(I0
tp2625
g19
tp2626
Rp2627
(I1
(L3L
tp2628
g26
I00
(lp2629
g0
(g7
g2
Ntp2630
Rp2631
(dp2632
g11
g0
(g12
g2
Ntp2633
Rp2634
((lp2635
g16
(g17
(I0
tp2636
g19
tp2637
Rp2638
((I1
(L0L
tp2639
g26
I00
(lp2640
tp2641
(Ntp2642
tp2643
ba(lp2644
g16
(g35
(I0
tp2645
g19
tp2646
Rp2647
(I1
(L0L
tp2648
g26
I00
(lp2649
tp2650
ba(lp2651
g2638
atp2652
bsg177
S'['
p2653
sbag0
(g7
g2
Ntp2654
Rp2655
(dp2656
g11
g0
(g12
g2
Ntp2657
Rp2658
((lp2659
g16
(g17
(I0
tp2660
g19
tp2661
Rp2662
((I1
(L1L
tp2663
g26
I00
(lp2664
S'Expr'
p2665
atp2666
(Ntp2667
tp2668
ba(lp2669
g16
(g35
(I0
tp2670
g19
tp2671
Rp2672
(I1
(L1L
tp2673
g26
I00
(lp2674
g0
(g7
g2
Ntp2675
Rp2676
(dp2677
g11
g0
(g12
g2
Ntp2678
Rp2679
((lp2680
g16
(g17
(I0
tp2681
g19
tp2682
Rp2683
((I1
(L1L
tp2684
g26
I00
(lp2685
S'Val'
p2686
atp2687
(Ntp2688
tp2689
ba(lp2690
g16
(g35
(I0
tp2691
g19
tp2692
Rp2693
(I1
(L1L
tp2694
g26
I00
(lp2695
g0
(g7
g2
Ntp2696
Rp2697
(dp2698
g11
g0
(g12
g2
Ntp2699
Rp2700
((lp2701
g16
(g17
(I0
tp2702
g19
tp2703
Rp2704
((I1
(L1L
tp2705
g26
I00
(lp2706
S'Number'
p2707
atp2708
(Ntp2709
tp2710
ba(lp2711
g16
(g35
(I0
tp2712
g19
tp2713
Rp2714
(I1
(L1L
tp2715
g26
I00
(lp2716
g0
(g7
g2
Ntp2717
Rp2718
(dp2719
g11
g0
(g12
g2
Ntp2720
Rp2721
((lp2722
g16
(g17
(I0
tp2723
g19
tp2724
Rp2725
((I1
(L1L
tp2726
g26
I00
(lp2727
S'_0_'
p2728
atp2729
(Ntp2730
tp2731
ba(lp2732
g16
(g35
(I0
tp2733
g19
tp2734
Rp2735
(I1
(L1L
tp2736
g26
I00
(lp2737
g0
(g7
g2
Ntp2738
Rp2739
(dp2740
g11
g0
(g12
g2
Ntp2741
Rp2742
((lp2743
g16
(g17
(I0
tp2744
g19
tp2745
Rp2746
((I1
(L0L
tp2747
g26
I00
(lp2748
tp2749
(Ntp2750
tp2751
ba(lp2752
g16
(g35
(I0
tp2753
g19
tp2754
Rp2755
(I1
(L0L
tp2756
g26
I00
(lp2757
tp2758
ba(lp2759
g2746
atp2760
bsg177
S'0'
p2761
sbatp2762
ba(lp2763
g2725
atp2764
bsg177
g2707
sbatp2765
ba(lp2766
g2704
atp2767
bsg177
g2686
sbatp2768
ba(lp2769
g2683
atp2770
bsg177
g2665
sbatp2771
ba(lp2772
g2662
atp2773
bsg177
g2619
sbag0
(g7
g2
Ntp2774
Rp2775
(dp2776
g11
g0
(g12
g2
Ntp2777
Rp2778
((lp2779
g16
(g17
(I0
tp2780
g19
tp2781
Rp2782
((I1
(L0L
tp2783
g26
I00
(lp2784
tp2785
(Ntp2786
tp2787
ba(lp2788
g16
(g35
(I0
tp2789
g19
tp2790
Rp2791
(I1
(L0L
tp2792
g26
I00
(lp2793
tp2794
ba(lp2795
g2782
atp2796
bsg177
S']'
p2797
sbatp2798
ba(lp2799
g2615
atp2800
bsg177
g2597
sbatp2801
ba(lp2802
g2594
atp2803
bsg177
g2576
sbatp2804
ba(lp2805
g2573
atp2806
bsg177
S'Expr'
p2807
sbag0
(g7
g2
Ntp2808
Rp2809
(dp2810
g11
g0
(g12
g2
Ntp2811
Rp2812
((lp2813
g16
(g17
(I0
tp2814
g19
tp2815
Rp2816
((I1
(L0L
tp2817
g26
I00
(lp2818
tp2819
(Ntp2820
tp2821
ba(lp2822
g16
(g35
(I0
tp2823
g19
tp2824
Rp2825
(I1
(L0L
tp2826
g26
I00
(lp2827
tp2828
ba(lp2829
g2816
atp2830
bsg177
g1275
sbag0
(g7
g2
Ntp2831
Rp2832
(dp2833
g11
g0
(g12
g2
Ntp2834
Rp2835
((lp2836
g16
(g17
(I0
tp2837
g19
tp2838
Rp2839
((I1
(L1L
tp2840
g26
I00
(lp2841
S'Val'
p2842
atp2843
(Ntp2844
tp2845
ba(lp2846
g16
(g35
(I0
tp2847
g19
tp2848
Rp2849
(I1
(L1L
tp2850
g26
I00
(lp2851
g0
(g7
g2
Ntp2852
Rp2853
(dp2854
g11
g0
(g12
g2
Ntp2855
Rp2856
((lp2857
g16
(g17
(I0
tp2858
g19
tp2859
Rp2860
((I1
(L1L
tp2861
g26
I00
(lp2862
S'Number'
p2863
atp2864
(Ntp2865
tp2866
ba(lp2867
g16
(g35
(I0
tp2868
g19
tp2869
Rp2870
(I1
(L1L
tp2871
g26
I00
(lp2872
g0
(g7
g2
Ntp2873
Rp2874
(dp2875
g11
g0
(g12
g2
Ntp2876
Rp2877
((lp2878
g16
(g17
(I0
tp2879
g19
tp2880
Rp2881
((I1
(L1L
tp2882
g26
I00
(lp2883
S'_10_'
p2884
atp2885
(Ntp2886
tp2887
ba(lp2888
g16
(g35
(I0
tp2889
g19
tp2890
Rp2891
(I1
(L1L
tp2892
g26
I00
(lp2893
g0
(g7
g2
Ntp2894
Rp2895
(dp2896
g11
g0
(g12
g2
Ntp2897
Rp2898
((lp2899
g16
(g17
(I0
tp2900
g19
tp2901
Rp2902
((I1
(L0L
tp2903
g26
I00
(lp2904
tp2905
(Ntp2906
tp2907
ba(lp2908
g16
(g35
(I0
tp2909
g19
tp2910
Rp2911
(I1
(L0L
tp2912
g26
I00
(lp2913
tp2914
ba(lp2915
g2902
atp2916
bsg177
S'10'
p2917
sbatp2918
ba(lp2919
g2881
atp2920
bsg177
g2863
sbatp2921
ba(lp2922
g2860
atp2923
bsg177
g2842
sbatp2924
ba(lp2925
g2839
atp2926
bsg177
S'Expr'
p2927
sbatp2928
ba(lp2929
g2550
atp2930
bsg177
g2532
sbatp2931
ba(lp2932
g2529
atp2933
bsg177
g2391
sbatp2934
ba(lp2935
g2386
atp2936
bsg177
g2368
sbatp2937
ba(lp2938
g2365
atp2939
bsg177
g2346
sbag0
(g7
g2
Ntp2940
Rp2941
(dp2942
g11
g0
(g12
g2
Ntp2943
Rp2944
((lp2945
g16
(g17
(I0
tp2946
g19
tp2947
Rp2948
((I1
(L0L
tp2949
g26
I00
(lp2950
tp2951
(Ntp2952
tp2953
ba(lp2954
g16
(g35
(I0
tp2955
g19
tp2956
Rp2957
(I1
(L0L
tp2958
g26
I00
(lp2959
tp2960
ba(lp2961
g2948
atp2962
bsg177
g632
sbatp2963
ba(lp2964
g2343
atp2965
bsg177
g2325
sbatp2966
ba(lp2967
g2322
atp2968
bsg177
S'Stmt'
p2969
sbag0
(g7
g2
Ntp2970
Rp2971
(dp2972
g11
g0
(g12
g2
Ntp2973
Rp2974
((lp2975
g16
(g17
(I0
tp2976
g19
tp2977
Rp2978
((I1
(L1L
tp2979
g26
I00
(lp2980
S'Block_stmt'
p2981
atp2982
(Ntp2983
tp2984
ba(lp2985
g16
(g35
(I0
tp2986
g19
tp2987
Rp2988
(I1
(L1L
tp2989
g26
I00
(lp2990
g0
(g7
g2
Ntp2991
Rp2992
(dp2993
g11
g0
(g12
g2
Ntp2994
Rp2995
((lp2996
g16
(g17
(I0
tp2997
g19
tp2998
Rp2999
((I1
(L2L
tp3000
g26
I00
(lp3001
S'Block_head'
p3002
aS'Block'
p3003
atp3004
(Ntp3005
tp3006
ba(lp3007
g16
(g35
(I0
tp3008
g19
tp3009
Rp3010
(I1
(L2L
tp3011
g26
I00
(lp3012
g0
(g7
g2
Ntp3013
Rp3014
(dp3015
g11
g0
(g12
g2
Ntp3016
Rp3017
((lp3018
g16
(g17
(I0
tp3019
g19
tp3020
Rp3021
((I1
(L1L
tp3022
g26
I00
(lp3023
S'Loop'
p3024
atp3025
(Ntp3026
tp3027
ba(lp3028
g16
(g35
(I0
tp3029
g19
tp3030
Rp3031
(I1
(L1L
tp3032
g26
I00
(lp3033
g0
(g7
g2
Ntp3034
Rp3035
(dp3036
g11
g0
(g12
g2
Ntp3037
Rp3038
((lp3039
g16
(g17
(I0
tp3040
g19
tp3041
Rp3042
((I1
(L1L
tp3043
g26
I00
(lp3044
S'For_'
p3045
atp3046
(Ntp3047
tp3048
ba(lp3049
g16
(g35
(I0
tp3050
g19
tp3051
Rp3052
(I1
(L1L
tp3053
g26
I00
(lp3054
g0
(g7
g2
Ntp3055
Rp3056
(dp3057
g11
g0
(g12
g2
Ntp3058
Rp3059
((lp3060
g16
(g17
(I0
tp3061
g19
tp3062
Rp3063
((I1
(L4L
tp3064
g26
I00
(lp3065
S'_for_'
p3066
aS'Varlist'
p3067
aS'_in_'
p3068
aS'Exprlist'
p3069
atp3070
(Ntp3071
tp3072
ba(lp3073
g16
(g35
(I0
tp3074
g19
tp3075
Rp3076
(I1
(L4L
tp3077
g26
I00
(lp3078
g0
(g7
g2
Ntp3079
Rp3080
(dp3081
g11
g0
(g12
g2
Ntp3082
Rp3083
((lp3084
g16
(g17
(I0
tp3085
g19
tp3086
Rp3087
((I1
(L0L
tp3088
g26
I00
(lp3089
tp3090
(Ntp3091
tp3092
ba(lp3093
g16
(g35
(I0
tp3094
g19
tp3095
Rp3096
(I1
(L0L
tp3097
g26
I00
(lp3098
tp3099
ba(lp3100
g3087
atp3101
bsg177
S'for'
p3102
sbag0
(g7
g2
Ntp3103
Rp3104
(dp3105
g11
g0
(g12
g2
Ntp3106
Rp3107
((lp3108
g16
(g17
(I0
tp3109
g19
tp3110
Rp3111
((I1
(L1L
tp3112
g26
I00
(lp3113
S'Vartuple'
p3114
atp3115
(Ntp3116
tp3117
ba(lp3118
g16
(g35
(I0
tp3119
g19
tp3120
Rp3121
(I1
(L1L
tp3122
g26
I00
(lp3123
g0
(g7
g2
Ntp3124
Rp3125
(dp3126
g11
g0
(g12
g2
Ntp3127
Rp3128
((lp3129
g16
(g17
(I0
tp3130
g19
tp3131
Rp3132
((I1
(L1L
tp3133
g26
I00
(lp3134
S'Var'
p3135
atp3136
(Ntp3137
tp3138
ba(lp3139
g16
(g35
(I0
tp3140
g19
tp3141
Rp3142
(I1
(L1L
tp3143
g26
I00
(lp3144
g0
(g7
g2
Ntp3145
Rp3146
(dp3147
g11
g0
(g12
g2
Ntp3148
Rp3149
((lp3150
g16
(g17
(I0
tp3151
g19
tp3152
Rp3153
((I1
(L1L
tp3154
g26
I00
(lp3155
S'_i_'
p3156
atp3157
(Ntp3158
tp3159
ba(lp3160
g16
(g35
(I0
tp3161
g19
tp3162
Rp3163
(I1
(L1L
tp3164
g26
I00
(lp3165
g0
(g7
g2
Ntp3166
Rp3167
(dp3168
g11
g0
(g12
g2
Ntp3169
Rp3170
((lp3171
g16
(g17
(I0
tp3172
g19
tp3173
Rp3174
((I1
(L0L
tp3175
g26
I00
(lp3176
tp3177
(Ntp3178
tp3179
ba(lp3180
g16
(g35
(I0
tp3181
g19
tp3182
Rp3183
(I1
(L0L
tp3184
g26
I00
(lp3185
tp3186
ba(lp3187
g3174
atp3188
bsg177
S'i'
p3189
sbatp3190
ba(lp3191
g3153
atp3192
bsg177
g3135
sbatp3193
ba(lp3194
g3132
atp3195
bsg177
g3114
sbatp3196
ba(lp3197
g3111
atp3198
bsg177
g3067
sbag0
(g7
g2
Ntp3199
Rp3200
(dp3201
g11
g0
(g12
g2
Ntp3202
Rp3203
((lp3204
g16
(g17
(I0
tp3205
g19
tp3206
Rp3207
((I1
(L0L
tp3208
g26
I00
(lp3209
tp3210
(Ntp3211
tp3212
ba(lp3213
g16
(g35
(I0
tp3214
g19
tp3215
Rp3216
(I1
(L0L
tp3217
g26
I00
(lp3218
tp3219
ba(lp3220
g3207
atp3221
bsg177
S'in'
p3222
sbag0
(g7
g2
Ntp3223
Rp3224
(dp3225
g11
g0
(g12
g2
Ntp3226
Rp3227
((lp3228
g16
(g17
(I0
tp3229
g19
tp3230
Rp3231
((I1
(L1L
tp3232
g26
I00
(lp3233
S'Expr'
p3234
atp3235
(Ntp3236
tp3237
ba(lp3238
g16
(g35
(I0
tp3239
g19
tp3240
Rp3241
(I1
(L1L
tp3242
g26
I00
(lp3243
g0
(g7
g2
Ntp3244
Rp3245
(dp3246
g11
g0
(g12
g2
Ntp3247
Rp3248
((lp3249
g16
(g17
(I0
tp3250
g19
tp3251
Rp3252
((I1
(L4L
tp3253
g26
I00
(lp3254
S'Expr'
p3255
aS'_(_'
p3256
aS'Arglist'
p3257
aS'_)_'
p3258
atp3259
(Ntp3260
tp3261
ba(lp3262
g16
(g35
(I0
tp3263
g19
tp3264
Rp3265
(I1
(L4L
tp3266
g26
I00
(lp3267
g0
(g7
g2
Ntp3268
Rp3269
(dp3270
g11
g0
(g12
g2
Ntp3271
Rp3272
((lp3273
g16
(g17
(I0
tp3274
g19
tp3275
Rp3276
((I1
(L1L
tp3277
g26
I00
(lp3278
S'Val'
p3279
atp3280
(Ntp3281
tp3282
ba(lp3283
g16
(g35
(I0
tp3284
g19
tp3285
Rp3286
(I1
(L1L
tp3287
g26
I00
(lp3288
g0
(g7
g2
Ntp3289
Rp3290
(dp3291
g11
g0
(g12
g2
Ntp3292
Rp3293
((lp3294
g16
(g17
(I0
tp3295
g19
tp3296
Rp3297
((I1
(L1L
tp3298
g26
I00
(lp3299
S'Var'
p3300
atp3301
(Ntp3302
tp3303
ba(lp3304
g16
(g35
(I0
tp3305
g19
tp3306
Rp3307
(I1
(L1L
tp3308
g26
I00
(lp3309
g0
(g7
g2
Ntp3310
Rp3311
(dp3312
g11
g0
(g12
g2
Ntp3313
Rp3314
((lp3315
g16
(g17
(I0
tp3316
g19
tp3317
Rp3318
((I1
(L1L
tp3319
g26
I00
(lp3320
S'_range_'
p3321
atp3322
(Ntp3323
tp3324
ba(lp3325
g16
(g35
(I0
tp3326
g19
tp3327
Rp3328
(I1
(L1L
tp3329
g26
I00
(lp3330
g0
(g7
g2
Ntp3331
Rp3332
(dp3333
g11
g0
(g12
g2
Ntp3334
Rp3335
((lp3336
g16
(g17
(I0
tp3337
g19
tp3338
Rp3339
((I1
(L0L
tp3340
g26
I00
(lp3341
tp3342
(Ntp3343
tp3344
ba(lp3345
g16
(g35
(I0
tp3346
g19
tp3347
Rp3348
(I1
(L0L
tp3349
g26
I00
(lp3350
tp3351
ba(lp3352
g3339
atp3353
bsg177
S'range'
p3354
sbatp3355
ba(lp3356
g3318
atp3357
bsg177
g3300
sbatp3358
ba(lp3359
g3297
atp3360
bsg177
g3279
sbatp3361
ba(lp3362
g3276
atp3363
bsg177
g3255
sbag0
(g7
g2
Ntp3364
Rp3365
(dp3366
g11
g0
(g12
g2
Ntp3367
Rp3368
((lp3369
g16
(g17
(I0
tp3370
g19
tp3371
Rp3372
((I1
(L0L
tp3373
g26
I00
(lp3374
tp3375
(Ntp3376
tp3377
ba(lp3378
g16
(g35
(I0
tp3379
g19
tp3380
Rp3381
(I1
(L0L
tp3382
g26
I00
(lp3383
tp3384
ba(lp3385
g3372
atp3386
bsg177
g226
sbag0
(g7
g2
Ntp3387
Rp3388
(dp3389
g11
g0
(g12
g2
Ntp3390
Rp3391
((lp3392
g16
(g17
(I0
tp3393
g19
tp3394
Rp3395
((I1
(L1L
tp3396
g26
I00
(lp3397
S'Pos_arglist'
p3398
atp3399
(Ntp3400
tp3401
ba(lp3402
g16
(g35
(I0
tp3403
g19
tp3404
Rp3405
(I1
(L1L
tp3406
g26
I00
(lp3407
g0
(g7
g2
Ntp3408
Rp3409
(dp3410
g11
g0
(g12
g2
Ntp3411
Rp3412
((lp3413
g16
(g17
(I0
tp3414
g19
tp3415
Rp3416
((I1
(L1L
tp3417
g26
I00
(lp3418
S'Pos_arg'
p3419
atp3420
(Ntp3421
tp3422
ba(lp3423
g16
(g35
(I0
tp3424
g19
tp3425
Rp3426
(I1
(L1L
tp3427
g26
I00
(lp3428
g0
(g7
g2
Ntp3429
Rp3430
(dp3431
g11
g0
(g12
g2
Ntp3432
Rp3433
((lp3434
g16
(g17
(I0
tp3435
g19
tp3436
Rp3437
((I1
(L1L
tp3438
g26
I00
(lp3439
S'Expr'
p3440
atp3441
(Ntp3442
tp3443
ba(lp3444
g16
(g35
(I0
tp3445
g19
tp3446
Rp3447
(I1
(L1L
tp3448
g26
I00
(lp3449
g0
(g7
g2
Ntp3450
Rp3451
(dp3452
g11
g0
(g12
g2
Ntp3453
Rp3454
((lp3455
g16
(g17
(I0
tp3456
g19
tp3457
Rp3458
((I1
(L4L
tp3459
g26
I00
(lp3460
S'Expr'
p3461
aS'_(_'
p3462
aS'Arglist'
p3463
aS'_)_'
p3464
atp3465
(Ntp3466
tp3467
ba(lp3468
g16
(g35
(I0
tp3469
g19
tp3470
Rp3471
(I1
(L4L
tp3472
g26
I00
(lp3473
g0
(g7
g2
Ntp3474
Rp3475
(dp3476
g11
g0
(g12
g2
Ntp3477
Rp3478
((lp3479
g16
(g17
(I0
tp3480
g19
tp3481
Rp3482
((I1
(L1L
tp3483
g26
I00
(lp3484
S'Val'
p3485
atp3486
(Ntp3487
tp3488
ba(lp3489
g16
(g35
(I0
tp3490
g19
tp3491
Rp3492
(I1
(L1L
tp3493
g26
I00
(lp3494
g0
(g7
g2
Ntp3495
Rp3496
(dp3497
g11
g0
(g12
g2
Ntp3498
Rp3499
((lp3500
g16
(g17
(I0
tp3501
g19
tp3502
Rp3503
((I1
(L1L
tp3504
g26
I00
(lp3505
S'Var'
p3506
atp3507
(Ntp3508
tp3509
ba(lp3510
g16
(g35
(I0
tp3511
g19
tp3512
Rp3513
(I1
(L1L
tp3514
g26
I00
(lp3515
g0
(g7
g2
Ntp3516
Rp3517
(dp3518
g11
g0
(g12
g2
Ntp3519
Rp3520
((lp3521
g16
(g17
(I0
tp3522
g19
tp3523
Rp3524
((I1
(L1L
tp3525
g26
I00
(lp3526
S'_len_'
p3527
atp3528
(Ntp3529
tp3530
ba(lp3531
g16
(g35
(I0
tp3532
g19
tp3533
Rp3534
(I1
(L1L
tp3535
g26
I00
(lp3536
g0
(g7
g2
Ntp3537
Rp3538
(dp3539
g11
g0
(g12
g2
Ntp3540
Rp3541
((lp3542
g16
(g17
(I0
tp3543
g19
tp3544
Rp3545
((I1
(L0L
tp3546
g26
I00
(lp3547
tp3548
(Ntp3549
tp3550
ba(lp3551
g16
(g35
(I0
tp3552
g19
tp3553
Rp3554
(I1
(L0L
tp3555
g26
I00
(lp3556
tp3557
ba(lp3558
g3545
atp3559
bsg177
S'len'
p3560
sbatp3561
ba(lp3562
g3524
atp3563
bsg177
g3506
sbatp3564
ba(lp3565
g3503
atp3566
bsg177
g3485
sbatp3567
ba(lp3568
g3482
atp3569
bsg177
g3461
sbag0
(g7
g2
Ntp3570
Rp3571
(dp3572
g11
g0
(g12
g2
Ntp3573
Rp3574
((lp3575
g16
(g17
(I0
tp3576
g19
tp3577
Rp3578
((I1
(L0L
tp3579
g26
I00
(lp3580
tp3581
(Ntp3582
tp3583
ba(lp3584
g16
(g35
(I0
tp3585
g19
tp3586
Rp3587
(I1
(L0L
tp3588
g26
I00
(lp3589
tp3590
ba(lp3591
g3578
atp3592
bsg177
g226
sbag0
(g7
g2
Ntp3593
Rp3594
(dp3595
g11
g0
(g12
g2
Ntp3596
Rp3597
((lp3598
g16
(g17
(I0
tp3599
g19
tp3600
Rp3601
((I1
(L1L
tp3602
g26
I00
(lp3603
S'Pos_arglist'
p3604
atp3605
(Ntp3606
tp3607
ba(lp3608
g16
(g35
(I0
tp3609
g19
tp3610
Rp3611
(I1
(L1L
tp3612
g26
I00
(lp3613
g0
(g7
g2
Ntp3614
Rp3615
(dp3616
g11
g0
(g12
g2
Ntp3617
Rp3618
((lp3619
g16
(g17
(I0
tp3620
g19
tp3621
Rp3622
((I1
(L1L
tp3623
g26
I00
(lp3624
S'Pos_arg'
p3625
atp3626
(Ntp3627
tp3628
ba(lp3629
g16
(g35
(I0
tp3630
g19
tp3631
Rp3632
(I1
(L1L
tp3633
g26
I00
(lp3634
g0
(g7
g2
Ntp3635
Rp3636
(dp3637
g11
g0
(g12
g2
Ntp3638
Rp3639
((lp3640
g16
(g17
(I0
tp3641
g19
tp3642
Rp3643
((I1
(L1L
tp3644
g26
I00
(lp3645
S'Expr'
p3646
atp3647
(Ntp3648
tp3649
ba(lp3650
g16
(g35
(I0
tp3651
g19
tp3652
Rp3653
(I1
(L1L
tp3654
g26
I00
(lp3655
g0
(g7
g2
Ntp3656
Rp3657
(dp3658
g11
g0
(g12
g2
Ntp3659
Rp3660
((lp3661
g16
(g17
(I0
tp3662
g19
tp3663
Rp3664
((I1
(L1L
tp3665
g26
I00
(lp3666
S'Val'
p3667
atp3668
(Ntp3669
tp3670
ba(lp3671
g16
(g35
(I0
tp3672
g19
tp3673
Rp3674
(I1
(L1L
tp3675
g26
I00
(lp3676
g0
(g7
g2
Ntp3677
Rp3678
(dp3679
g11
g0
(g12
g2
Ntp3680
Rp3681
((lp3682
g16
(g17
(I0
tp3683
g19
tp3684
Rp3685
((I1
(L1L
tp3686
g26
I00
(lp3687
S'Var'
p3688
atp3689
(Ntp3690
tp3691
ba(lp3692
g16
(g35
(I0
tp3693
g19
tp3694
Rp3695
(I1
(L1L
tp3696
g26
I00
(lp3697
g0
(g7
g2
Ntp3698
Rp3699
(dp3700
g11
g0
(g12
g2
Ntp3701
Rp3702
((lp3703
g16
(g17
(I0
tp3704
g19
tp3705
Rp3706
((I1
(L1L
tp3707
g26
I00
(lp3708
S'_L_'
p3709
atp3710
(Ntp3711
tp3712
ba(lp3713
g16
(g35
(I0
tp3714
g19
tp3715
Rp3716
(I1
(L1L
tp3717
g26
I00
(lp3718
g0
(g7
g2
Ntp3719
Rp3720
(dp3721
g11
g0
(g12
g2
Ntp3722
Rp3723
((lp3724
g16
(g17
(I0
tp3725
g19
tp3726
Rp3727
((I1
(L0L
tp3728
g26
I00
(lp3729
tp3730
(Ntp3731
tp3732
ba(lp3733
g16
(g35
(I0
tp3734
g19
tp3735
Rp3736
(I1
(L0L
tp3737
g26
I00
(lp3738
tp3739
ba(lp3740
g3727
atp3741
bsg177
g2487
sbatp3742
ba(lp3743
g3706
atp3744
bsg177
g3688
sbatp3745
ba(lp3746
g3685
atp3747
bsg177
g3667
sbatp3748
ba(lp3749
g3664
atp3750
bsg177
g3646
sbatp3751
ba(lp3752
g3643
atp3753
bsg177
g3625
sbatp3754
ba(lp3755
g3622
atp3756
bsg177
g3604
sbatp3757
ba(lp3758
g3601
atp3759
bsg177
g3463
sbag0
(g7
g2
Ntp3760
Rp3761
(dp3762
g11
g0
(g12
g2
Ntp3763
Rp3764
((lp3765
g16
(g17
(I0
tp3766
g19
tp3767
Rp3768
((I1
(L0L
tp3769
g26
I00
(lp3770
tp3771
(Ntp3772
tp3773
ba(lp3774
g16
(g35
(I0
tp3775
g19
tp3776
Rp3777
(I1
(L0L
tp3778
g26
I00
(lp3779
tp3780
ba(lp3781
g3768
atp3782
bsg177
g370
sbatp3783
ba(lp3784
g3458
atp3785
bsg177
g3440
sbatp3786
ba(lp3787
g3437
atp3788
bsg177
g3419
sbatp3789
ba(lp3790
g3416
atp3791
bsg177
g3398
sbatp3792
ba(lp3793
g3395
atp3794
bsg177
g3257
sbag0
(g7
g2
Ntp3795
Rp3796
(dp3797
g11
g0
(g12
g2
Ntp3798
Rp3799
((lp3800
g16
(g17
(I0
tp3801
g19
tp3802
Rp3803
((I1
(L0L
tp3804
g26
I00
(lp3805
tp3806
(Ntp3807
tp3808
ba(lp3809
g16
(g35
(I0
tp3810
g19
tp3811
Rp3812
(I1
(L0L
tp3813
g26
I00
(lp3814
tp3815
ba(lp3816
g3803
atp3817
bsg177
g370
sbatp3818
ba(lp3819
g3252
atp3820
bsg177
g3234
sbatp3821
ba(lp3822
g3231
atp3823
bsg177
g3069
sbatp3824
ba(lp3825
g3063
atp3826
bsg177
g3045
sbatp3827
ba(lp3828
g3042
atp3829
bsg177
g3024
sbatp3830
ba(lp3831
g3021
atp3832
bsg177
g3002
sbag0
(g7
g2
Ntp3833
Rp3834
(dp3835
g11
g0
(g12
g2
Ntp3836
Rp3837
((lp3838
g16
(g17
(I0
tp3839
g19
tp3840
Rp3841
((I1
(L3L
tp3842
g26
I00
(lp3843
S'_:$blockbegin_'
p3844
aS'Prog'
p3845
aS'_$blockend_'
p3846
atp3847
(Ntp3848
tp3849
ba(lp3850
g16
(g35
(I0
tp3851
g19
tp3852
Rp3853
(I1
(L3L
tp3854
g26
I00
(lp3855
g0
(g7
g2
Ntp3856
Rp3857
(dp3858
g11
g0
(g12
g2
Ntp3859
Rp3860
((lp3861
g16
(g17
(I0
tp3862
g19
tp3863
Rp3864
((I1
(L0L
tp3865
g26
I00
(lp3866
tp3867
(Ntp3868
tp3869
ba(lp3870
g16
(g35
(I0
tp3871
g19
tp3872
Rp3873
(I1
(L0L
tp3874
g26
I00
(lp3875
tp3876
ba(lp3877
g3864
atp3878
bsg177
S':$blockbegin'
p3879
sbag0
(g7
g2
Ntp3880
Rp3881
(dp3882
g11
g0
(g12
g2
Ntp3883
Rp3884
((lp3885
g16
(g17
(I0
tp3886
g19
tp3887
Rp3888
((I1
(L1L
tp3889
g26
I00
(lp3890
S'Stmt'
p3891
atp3892
(Ntp3893
tp3894
ba(lp3895
g16
(g35
(I0
tp3896
g19
tp3897
Rp3898
(I1
(L1L
tp3899
g26
I00
(lp3900
g0
(g7
g2
Ntp3901
Rp3902
(dp3903
g11
g0
(g12
g2
Ntp3904
Rp3905
((lp3906
g16
(g17
(I0
tp3907
g19
tp3908
Rp3909
((I1
(L1L
tp3910
g26
I00
(lp3911
S'Block_stmt'
p3912
atp3913
(Ntp3914
tp3915
ba(lp3916
g16
(g35
(I0
tp3917
g19
tp3918
Rp3919
(I1
(L1L
tp3920
g26
I00
(lp3921
g0
(g7
g2
Ntp3922
Rp3923
(dp3924
g11
g0
(g12
g2
Ntp3925
Rp3926
((lp3927
g16
(g17
(I0
tp3928
g19
tp3929
Rp3930
((I1
(L1L
tp3931
g26
I00
(lp3932
S'Ifelse'
p3933
atp3934
(Ntp3935
tp3936
ba(lp3937
g16
(g35
(I0
tp3938
g19
tp3939
Rp3940
(I1
(L1L
tp3941
g26
I00
(lp3942
g0
(g7
g2
Ntp3943
Rp3944
(dp3945
g11
g0
(g12
g2
Ntp3946
Rp3947
((lp3948
g16
(g17
(I0
tp3949
g19
tp3950
Rp3951
((I1
(L4L
tp3952
g26
I00
(lp3953
S'If_'
p3954
aS'Block1'
p3955
aS'Else_'
p3956
aS'Block2'
p3957
atp3958
(Ntp3959
tp3960
ba(lp3961
g16
(g35
(I0
tp3962
g19
tp3963
Rp3964
(I1
(L4L
tp3965
g26
I00
(lp3966
g0
(g7
g2
Ntp3967
Rp3968
(dp3969
g11
g0
(g12
g2
Ntp3970
Rp3971
((lp3972
g16
(g17
(I0
tp3973
g19
tp3974
Rp3975
((I1
(L2L
tp3976
g26
I00
(lp3977
S'_if_'
p3978
aS'Expr'
p3979
atp3980
(Ntp3981
tp3982
ba(lp3983
g16
(g35
(I0
tp3984
g19
tp3985
Rp3986
(I1
(L2L
tp3987
g26
I00
(lp3988
g0
(g7
g2
Ntp3989
Rp3990
(dp3991
g11
g0
(g12
g2
Ntp3992
Rp3993
((lp3994
g16
(g17
(I0
tp3995
g19
tp3996
Rp3997
((I1
(L0L
tp3998
g26
I00
(lp3999
tp4000
(Ntp4001
tp4002
ba(lp4003
g16
(g35
(I0
tp4004
g19
tp4005
Rp4006
(I1
(L0L
tp4007
g26
I00
(lp4008
tp4009
ba(lp4010
g3997
atp4011
bsg177
S'if'
p4012
sbag0
(g7
g2
Ntp4013
Rp4014
(dp4015
g11
g0
(g12
g2
Ntp4016
Rp4017
((lp4018
g16
(g17
(I0
tp4019
g19
tp4020
Rp4021
((I1
(L3L
tp4022
g26
I00
(lp4023
S'Expr1'
p4024
aS'Op_cmp'
p4025
aS'Expr2'
p4026
atp4027
(Ntp4028
tp4029
ba(lp4030
g16
(g35
(I0
tp4031
g19
tp4032
Rp4033
(I1
(L3L
tp4034
g26
I00
(lp4035
g0
(g7
g2
Ntp4036
Rp4037
(dp4038
g11
g0
(g12
g2
Ntp4039
Rp4040
((lp4041
g16
(g17
(I0
tp4042
g19
tp4043
Rp4044
((I1
(L1L
tp4045
g26
I00
(lp4046
S'Val'
p4047
atp4048
(Ntp4049
tp4050
ba(lp4051
g16
(g35
(I0
tp4052
g19
tp4053
Rp4054
(I1
(L1L
tp4055
g26
I00
(lp4056
g0
(g7
g2
Ntp4057
Rp4058
(dp4059
g11
g0
(g12
g2
Ntp4060
Rp4061
((lp4062
g16
(g17
(I0
tp4063
g19
tp4064
Rp4065
((I1
(L1L
tp4066
g26
I00
(lp4067
S'Var'
p4068
atp4069
(Ntp4070
tp4071
ba(lp4072
g16
(g35
(I0
tp4073
g19
tp4074
Rp4075
(I1
(L1L
tp4076
g26
I00
(lp4077
g0
(g7
g2
Ntp4078
Rp4079
(dp4080
g11
g0
(g12
g2
Ntp4081
Rp4082
((lp4083
g16
(g17
(I0
tp4084
g19
tp4085
Rp4086
((I1
(L1L
tp4087
g26
I00
(lp4088
S'_i_'
p4089
atp4090
(Ntp4091
tp4092
ba(lp4093
g16
(g35
(I0
tp4094
g19
tp4095
Rp4096
(I1
(L1L
tp4097
g26
I00
(lp4098
g0
(g7
g2
Ntp4099
Rp4100
(dp4101
g11
g0
(g12
g2
Ntp4102
Rp4103
((lp4104
g16
(g17
(I0
tp4105
g19
tp4106
Rp4107
((I1
(L0L
tp4108
g26
I00
(lp4109
tp4110
(Ntp4111
tp4112
ba(lp4113
g16
(g35
(I0
tp4114
g19
tp4115
Rp4116
(I1
(L0L
tp4117
g26
I00
(lp4118
tp4119
ba(lp4120
g4107
atp4121
bsg177
g3189
sbatp4122
ba(lp4123
g4086
atp4124
bsg177
g4068
sbatp4125
ba(lp4126
g4065
atp4127
bsg177
g4047
sbatp4128
ba(lp4129
g4044
atp4130
bsg177
S'Expr'
p4131
sbag0
(g7
g2
Ntp4132
Rp4133
(dp4134
g11
g0
(g12
g2
Ntp4135
Rp4136
((lp4137
g16
(g17
(I0
tp4138
g19
tp4139
Rp4140
((I1
(L1L
tp4141
g26
I00
(lp4142
S'_>_'
p4143
atp4144
(Ntp4145
tp4146
ba(lp4147
g16
(g35
(I0
tp4148
g19
tp4149
Rp4150
(I1
(L1L
tp4151
g26
I00
(lp4152
g0
(g7
g2
Ntp4153
Rp4154
(dp4155
g11
g0
(g12
g2
Ntp4156
Rp4157
((lp4158
g16
(g17
(I0
tp4159
g19
tp4160
Rp4161
((I1
(L0L
tp4162
g26
I00
(lp4163
tp4164
(Ntp4165
tp4166
ba(lp4167
g16
(g35
(I0
tp4168
g19
tp4169
Rp4170
(I1
(L0L
tp4171
g26
I00
(lp4172
tp4173
ba(lp4174
g4161
atp4175
bsg177
S'>'
p4176
sbatp4177
ba(lp4178
g4140
atp4179
bsg177
g4025
sbag0
(g7
g2
Ntp4180
Rp4181
(dp4182
g11
g0
(g12
g2
Ntp4183
Rp4184
((lp4185
g16
(g17
(I0
tp4186
g19
tp4187
Rp4188
((I1
(L1L
tp4189
g26
I00
(lp4190
S'Val'
p4191
atp4192
(Ntp4193
tp4194
ba(lp4195
g16
(g35
(I0
tp4196
g19
tp4197
Rp4198
(I1
(L1L
tp4199
g26
I00
(lp4200
g0
(g7
g2
Ntp4201
Rp4202
(dp4203
g11
g0
(g12
g2
Ntp4204
Rp4205
((lp4206
g16
(g17
(I0
tp4207
g19
tp4208
Rp4209
((I1
(L1L
tp4210
g26
I00
(lp4211
S'Number'
p4212
atp4213
(Ntp4214
tp4215
ba(lp4216
g16
(g35
(I0
tp4217
g19
tp4218
Rp4219
(I1
(L1L
tp4220
g26
I00
(lp4221
g0
(g7
g2
Ntp4222
Rp4223
(dp4224
g11
g0
(g12
g2
Ntp4225
Rp4226
((lp4227
g16
(g17
(I0
tp4228
g19
tp4229
Rp4230
((I1
(L1L
tp4231
g26
I00
(lp4232
S'_3_'
p4233
atp4234
(Ntp4235
tp4236
ba(lp4237
g16
(g35
(I0
tp4238
g19
tp4239
Rp4240
(I1
(L1L
tp4241
g26
I00
(lp4242
g0
(g7
g2
Ntp4243
Rp4244
(dp4245
g11
g0
(g12
g2
Ntp4246
Rp4247
((lp4248
g16
(g17
(I0
tp4249
g19
tp4250
Rp4251
((I1
(L0L
tp4252
g26
I00
(lp4253
tp4254
(Ntp4255
tp4256
ba(lp4257
g16
(g35
(I0
tp4258
g19
tp4259
Rp4260
(I1
(L0L
tp4261
g26
I00
(lp4262
tp4263
ba(lp4264
g4251
atp4265
bsg177
g1698
sbatp4266
ba(lp4267
g4230
atp4268
bsg177
g4212
sbatp4269
ba(lp4270
g4209
atp4271
bsg177
g4191
sbatp4272
ba(lp4273
g4188
atp4274
bsg177
S'Expr'
p4275
sbatp4276
ba(lp4277
g4021
atp4278
bsg177
g3979
sbatp4279
ba(lp4280
g3975
atp4281
bsg177
g3954
sbag0
(g7
g2
Ntp4282
Rp4283
(dp4284
g11
g0
(g12
g2
Ntp4285
Rp4286
((lp4287
g16
(g17
(I0
tp4288
g19
tp4289
Rp4290
((I1
(L3L
tp4291
g26
I00
(lp4292
S'_:$blockbegin_'
p4293
aS'Prog'
p4294
aS'_$blockend_'
p4295
atp4296
(Ntp4297
tp4298
ba(lp4299
g16
(g35
(I0
tp4300
g19
tp4301
Rp4302
(I1
(L3L
tp4303
g26
I00
(lp4304
g0
(g7
g2
Ntp4305
Rp4306
(dp4307
g11
g0
(g12
g2
Ntp4308
Rp4309
((lp4310
g16
(g17
(I0
tp4311
g19
tp4312
Rp4313
((I1
(L0L
tp4314
g26
I00
(lp4315
tp4316
(Ntp4317
tp4318
ba(lp4319
g16
(g35
(I0
tp4320
g19
tp4321
Rp4322
(I1
(L0L
tp4323
g26
I00
(lp4324
tp4325
ba(lp4326
g4313
atp4327
bsg177
S':$blockbegin'
p4328
sbag0
(g7
g2
Ntp4329
Rp4330
(dp4331
g11
g0
(g12
g2
Ntp4332
Rp4333
((lp4334
g16
(g17
(I0
tp4335
g19
tp4336
Rp4337
((I1
(L1L
tp4338
g26
I00
(lp4339
S'Stmt'
p4340
atp4341
(Ntp4342
tp4343
ba(lp4344
g16
(g35
(I0
tp4345
g19
tp4346
Rp4347
(I1
(L1L
tp4348
g26
I00
(lp4349
g0
(g7
g2
Ntp4350
Rp4351
(dp4352
g11
g0
(g12
g2
Ntp4353
Rp4354
((lp4355
g16
(g17
(I0
tp4356
g19
tp4357
Rp4358
((I1
(L1L
tp4359
g26
I00
(lp4360
S'Single_stmt'
p4361
atp4362
(Ntp4363
tp4364
ba(lp4365
g16
(g35
(I0
tp4366
g19
tp4367
Rp4368
(I1
(L1L
tp4369
g26
I00
(lp4370
g0
(g7
g2
Ntp4371
Rp4372
(dp4373
g11
g0
(g12
g2
Ntp4374
Rp4375
((lp4376
g16
(g17
(I0
tp4377
g19
tp4378
Rp4379
((I1
(L2L
tp4380
g26
I00
(lp4381
S'Assign_stmt'
p4382
aS'_;_'
p4383
atp4384
(Ntp4385
tp4386
ba(lp4387
g16
(g35
(I0
tp4388
g19
tp4389
Rp4390
(I1
(L2L
tp4391
g26
I00
(lp4392
g0
(g7
g2
Ntp4393
Rp4394
(dp4395
g11
g0
(g12
g2
Ntp4396
Rp4397
((lp4398
g16
(g17
(I0
tp4399
g19
tp4400
Rp4401
((I1
(L1L
tp4402
g26
I00
(lp4403
S'Assign'
p4404
atp4405
(Ntp4406
tp4407
ba(lp4408
g16
(g35
(I0
tp4409
g19
tp4410
Rp4411
(I1
(L1L
tp4412
g26
I00
(lp4413
g0
(g7
g2
Ntp4414
Rp4415
(dp4416
g11
g0
(g12
g2
Ntp4417
Rp4418
((lp4419
g16
(g17
(I0
tp4420
g19
tp4421
Rp4422
((I1
(L3L
tp4423
g26
I00
(lp4424
S'Varlist'
p4425
aS'_=_'
p4426
aS'Exprlist'
p4427
atp4428
(Ntp4429
tp4430
ba(lp4431
g16
(g35
(I0
tp4432
g19
tp4433
Rp4434
(I1
(L3L
tp4435
g26
I00
(lp4436
g0
(g7
g2
Ntp4437
Rp4438
(dp4439
g11
g0
(g12
g2
Ntp4440
Rp4441
((lp4442
g16
(g17
(I0
tp4443
g19
tp4444
Rp4445
((I1
(L1L
tp4446
g26
I00
(lp4447
S'Vartuple'
p4448
atp4449
(Ntp4450
tp4451
ba(lp4452
g16
(g35
(I0
tp4453
g19
tp4454
Rp4455
(I1
(L1L
tp4456
g26
I00
(lp4457
g0
(g7
g2
Ntp4458
Rp4459
(dp4460
g11
g0
(g12
g2
Ntp4461
Rp4462
((lp4463
g16
(g17
(I0
tp4464
g19
tp4465
Rp4466
((I1
(L1L
tp4467
g26
I00
(lp4468
S'Var'
p4469
atp4470
(Ntp4471
tp4472
ba(lp4473
g16
(g35
(I0
tp4474
g19
tp4475
Rp4476
(I1
(L1L
tp4477
g26
I00
(lp4478
g0
(g7
g2
Ntp4479
Rp4480
(dp4481
g11
g0
(g12
g2
Ntp4482
Rp4483
((lp4484
g16
(g17
(I0
tp4485
g19
tp4486
Rp4487
((I1
(L4L
tp4488
g26
I00
(lp4489
S'Var'
p4490
aS'_[_'
p4491
aS'Slice_'
p4492
aS'_]_'
p4493
atp4494
(Ntp4495
tp4496
ba(lp4497
g16
(g35
(I0
tp4498
g19
tp4499
Rp4500
(I1
(L4L
tp4501
g26
I00
(lp4502
g0
(g7
g2
Ntp4503
Rp4504
(dp4505
g11
g0
(g12
g2
Ntp4506
Rp4507
((lp4508
g16
(g17
(I0
tp4509
g19
tp4510
Rp4511
((I1
(L1L
tp4512
g26
I00
(lp4513
S'_L_'
p4514
atp4515
(Ntp4516
tp4517
ba(lp4518
g16
(g35
(I0
tp4519
g19
tp4520
Rp4521
(I1
(L1L
tp4522
g26
I00
(lp4523
g0
(g7
g2
Ntp4524
Rp4525
(dp4526
g11
g0
(g12
g2
Ntp4527
Rp4528
((lp4529
g16
(g17
(I0
tp4530
g19
tp4531
Rp4532
((I1
(L0L
tp4533
g26
I00
(lp4534
tp4535
(Ntp4536
tp4537
ba(lp4538
g16
(g35
(I0
tp4539
g19
tp4540
Rp4541
(I1
(L0L
tp4542
g26
I00
(lp4543
tp4544
ba(lp4545
g4532
atp4546
bsg177
g2487
sbatp4547
ba(lp4548
g4511
atp4549
bsg177
g4490
sbag0
(g7
g2
Ntp4550
Rp4551
(dp4552
g11
g0
(g12
g2
Ntp4553
Rp4554
((lp4555
g16
(g17
(I0
tp4556
g19
tp4557
Rp4558
((I1
(L0L
tp4559
g26
I00
(lp4560
tp4561
(Ntp4562
tp4563
ba(lp4564
g16
(g35
(I0
tp4565
g19
tp4566
Rp4567
(I1
(L0L
tp4568
g26
I00
(lp4569
tp4570
ba(lp4571
g4558
atp4572
bsg177
g2653
sbag0
(g7
g2
Ntp4573
Rp4574
(dp4575
g11
g0
(g12
g2
Ntp4576
Rp4577
((lp4578
g16
(g17
(I0
tp4579
g19
tp4580
Rp4581
((I1
(L1L
tp4582
g26
I00
(lp4583
S'Expr'
p4584
atp4585
(Ntp4586
tp4587
ba(lp4588
g16
(g35
(I0
tp4589
g19
tp4590
Rp4591
(I1
(L1L
tp4592
g26
I00
(lp4593
g0
(g7
g2
Ntp4594
Rp4595
(dp4596
g11
g0
(g12
g2
Ntp4597
Rp4598
((lp4599
g16
(g17
(I0
tp4600
g19
tp4601
Rp4602
((I1
(L1L
tp4603
g26
I00
(lp4604
S'Val'
p4605
atp4606
(Ntp4607
tp4608
ba(lp4609
g16
(g35
(I0
tp4610
g19
tp4611
Rp4612
(I1
(L1L
tp4613
g26
I00
(lp4614
g0
(g7
g2
Ntp4615
Rp4616
(dp4617
g11
g0
(g12
g2
Ntp4618
Rp4619
((lp4620
g16
(g17
(I0
tp4621
g19
tp4622
Rp4623
((I1
(L1L
tp4624
g26
I00
(lp4625
S'Var'
p4626
atp4627
(Ntp4628
tp4629
ba(lp4630
g16
(g35
(I0
tp4631
g19
tp4632
Rp4633
(I1
(L1L
tp4634
g26
I00
(lp4635
g0
(g7
g2
Ntp4636
Rp4637
(dp4638
g11
g0
(g12
g2
Ntp4639
Rp4640
((lp4641
g16
(g17
(I0
tp4642
g19
tp4643
Rp4644
((I1
(L1L
tp4645
g26
I00
(lp4646
S'_i_'
p4647
atp4648
(Ntp4649
tp4650
ba(lp4651
g16
(g35
(I0
tp4652
g19
tp4653
Rp4654
(I1
(L1L
tp4655
g26
I00
(lp4656
g0
(g7
g2
Ntp4657
Rp4658
(dp4659
g11
g0
(g12
g2
Ntp4660
Rp4661
((lp4662
g16
(g17
(I0
tp4663
g19
tp4664
Rp4665
((I1
(L0L
tp4666
g26
I00
(lp4667
tp4668
(Ntp4669
tp4670
ba(lp4671
g16
(g35
(I0
tp4672
g19
tp4673
Rp4674
(I1
(L0L
tp4675
g26
I00
(lp4676
tp4677
ba(lp4678
g4665
atp4679
bsg177
g3189
sbatp4680
ba(lp4681
g4644
atp4682
bsg177
g4626
sbatp4683
ba(lp4684
g4623
atp4685
bsg177
g4605
sbatp4686
ba(lp4687
g4602
atp4688
bsg177
g4584
sbatp4689
ba(lp4690
g4581
atp4691
bsg177
g4492
sbag0
(g7
g2
Ntp4692
Rp4693
(dp4694
g11
g0
(g12
g2
Ntp4695
Rp4696
((lp4697
g16
(g17
(I0
tp4698
g19
tp4699
Rp4700
((I1
(L0L
tp4701
g26
I00
(lp4702
tp4703
(Ntp4704
tp4705
ba(lp4706
g16
(g35
(I0
tp4707
g19
tp4708
Rp4709
(I1
(L0L
tp4710
g26
I00
(lp4711
tp4712
ba(lp4713
g4700
atp4714
bsg177
g2797
sbatp4715
ba(lp4716
g4487
atp4717
bsg177
g4469
sbatp4718
ba(lp4719
g4466
atp4720
bsg177
g4448
sbatp4721
ba(lp4722
g4445
atp4723
bsg177
g4425
sbag0
(g7
g2
Ntp4724
Rp4725
(dp4726
g11
g0
(g12
g2
Ntp4727
Rp4728
((lp4729
g16
(g17
(I0
tp4730
g19
tp4731
Rp4732
((I1
(L0L
tp4733
g26
I00
(lp4734
tp4735
(Ntp4736
tp4737
ba(lp4738
g16
(g35
(I0
tp4739
g19
tp4740
Rp4741
(I1
(L0L
tp4742
g26
I00
(lp4743
tp4744
ba(lp4745
g4732
atp4746
bsg177
g2520
sbag0
(g7
g2
Ntp4747
Rp4748
(dp4749
g11
g0
(g12
g2
Ntp4750
Rp4751
((lp4752
g16
(g17
(I0
tp4753
g19
tp4754
Rp4755
((I1
(L1L
tp4756
g26
I00
(lp4757
S'Expr'
p4758
atp4759
(Ntp4760
tp4761
ba(lp4762
g16
(g35
(I0
tp4763
g19
tp4764
Rp4765
(I1
(L1L
tp4766
g26
I00
(lp4767
g0
(g7
g2
Ntp4768
Rp4769
(dp4770
g11
g0
(g12
g2
Ntp4771
Rp4772
((lp4773
g16
(g17
(I0
tp4774
g19
tp4775
Rp4776
((I1
(L4L
tp4777
g26
I00
(lp4778
S'Expr'
p4779
aS'_(_'
p4780
aS'Arglist'
p4781
aS'_)_'
p4782
atp4783
(Ntp4784
tp4785
ba(lp4786
g16
(g35
(I0
tp4787
g19
tp4788
Rp4789
(I1
(L4L
tp4790
g26
I00
(lp4791
g0
(g7
g2
Ntp4792
Rp4793
(dp4794
g11
g0
(g12
g2
Ntp4795
Rp4796
((lp4797
g16
(g17
(I0
tp4798
g19
tp4799
Rp4800
((I1
(L1L
tp4801
g26
I00
(lp4802
S'Val'
p4803
atp4804
(Ntp4805
tp4806
ba(lp4807
g16
(g35
(I0
tp4808
g19
tp4809
Rp4810
(I1
(L1L
tp4811
g26
I00
(lp4812
g0
(g7
g2
Ntp4813
Rp4814
(dp4815
g11
g0
(g12
g2
Ntp4816
Rp4817
((lp4818
g16
(g17
(I0
tp4819
g19
tp4820
Rp4821
((I1
(L1L
tp4822
g26
I00
(lp4823
S'Var'
p4824
atp4825
(Ntp4826
tp4827
ba(lp4828
g16
(g35
(I0
tp4829
g19
tp4830
Rp4831
(I1
(L1L
tp4832
g26
I00
(lp4833
g0
(g7
g2
Ntp4834
Rp4835
(dp4836
g11
g0
(g12
g2
Ntp4837
Rp4838
((lp4839
g16
(g17
(I0
tp4840
g19
tp4841
Rp4842
((I1
(L1L
tp4843
g26
I00
(lp4844
S'_f_'
p4845
atp4846
(Ntp4847
tp4848
ba(lp4849
g16
(g35
(I0
tp4850
g19
tp4851
Rp4852
(I1
(L1L
tp4853
g26
I00
(lp4854
g0
(g7
g2
Ntp4855
Rp4856
(dp4857
g11
g0
(g12
g2
Ntp4858
Rp4859
((lp4860
g16
(g17
(I0
tp4861
g19
tp4862
Rp4863
((I1
(L0L
tp4864
g26
I00
(lp4865
tp4866
(Ntp4867
tp4868
ba(lp4869
g16
(g35
(I0
tp4870
g19
tp4871
Rp4872
(I1
(L0L
tp4873
g26
I00
(lp4874
tp4875
ba(lp4876
g4863
atp4877
bsg177
g202
sbatp4878
ba(lp4879
g4842
atp4880
bsg177
g4824
sbatp4881
ba(lp4882
g4821
atp4883
bsg177
g4803
sbatp4884
ba(lp4885
g4800
atp4886
bsg177
g4779
sbag0
(g7
g2
Ntp4887
Rp4888
(dp4889
g11
g0
(g12
g2
Ntp4890
Rp4891
((lp4892
g16
(g17
(I0
tp4893
g19
tp4894
Rp4895
((I1
(L0L
tp4896
g26
I00
(lp4897
tp4898
(Ntp4899
tp4900
ba(lp4901
g16
(g35
(I0
tp4902
g19
tp4903
Rp4904
(I1
(L0L
tp4905
g26
I00
(lp4906
tp4907
ba(lp4908
g4895
atp4909
bsg177
g226
sbag0
(g7
g2
Ntp4910
Rp4911
(dp4912
g11
g0
(g12
g2
Ntp4913
Rp4914
((lp4915
g16
(g17
(I0
tp4916
g19
tp4917
Rp4918
((I1
(L1L
tp4919
g26
I00
(lp4920
S'Pos_arglist'
p4921
atp4922
(Ntp4923
tp4924
ba(lp4925
g16
(g35
(I0
tp4926
g19
tp4927
Rp4928
(I1
(L1L
tp4929
g26
I00
(lp4930
g0
(g7
g2
Ntp4931
Rp4932
(dp4933
g11
g0
(g12
g2
Ntp4934
Rp4935
((lp4936
g16
(g17
(I0
tp4937
g19
tp4938
Rp4939
((I1
(L1L
tp4940
g26
I00
(lp4941
S'Pos_arg'
p4942
atp4943
(Ntp4944
tp4945
ba(lp4946
g16
(g35
(I0
tp4947
g19
tp4948
Rp4949
(I1
(L1L
tp4950
g26
I00
(lp4951
g0
(g7
g2
Ntp4952
Rp4953
(dp4954
g11
g0
(g12
g2
Ntp4955
Rp4956
((lp4957
g16
(g17
(I0
tp4958
g19
tp4959
Rp4960
((I1
(L1L
tp4961
g26
I00
(lp4962
S'Expr'
p4963
atp4964
(Ntp4965
tp4966
ba(lp4967
g16
(g35
(I0
tp4968
g19
tp4969
Rp4970
(I1
(L1L
tp4971
g26
I00
(lp4972
g0
(g7
g2
Ntp4973
Rp4974
(dp4975
g11
g0
(g12
g2
Ntp4976
Rp4977
((lp4978
g16
(g17
(I0
tp4979
g19
tp4980
Rp4981
((I1
(L3L
tp4982
g26
I00
(lp4983
S'Expr1'
p4984
aS'_+_'
p4985
aS'Expr2'
p4986
atp4987
(Ntp4988
tp4989
ba(lp4990
g16
(g35
(I0
tp4991
g19
tp4992
Rp4993
(I1
(L3L
tp4994
g26
I00
(lp4995
g0
(g7
g2
Ntp4996
Rp4997
(dp4998
g11
g0
(g12
g2
Ntp4999
Rp5000
((lp5001
g16
(g17
(I0
tp5002
g19
tp5003
Rp5004
((I1
(L1L
tp5005
g26
I00
(lp5006
S'Val'
p5007
atp5008
(Ntp5009
tp5010
ba(lp5011
g16
(g35
(I0
tp5012
g19
tp5013
Rp5014
(I1
(L1L
tp5015
g26
I00
(lp5016
g0
(g7
g2
Ntp5017
Rp5018
(dp5019
g11
g0
(g12
g2
Ntp5020
Rp5021
((lp5022
g16
(g17
(I0
tp5023
g19
tp5024
Rp5025
((I1
(L1L
tp5026
g26
I00
(lp5027
S'Var'
p5028
atp5029
(Ntp5030
tp5031
ba(lp5032
g16
(g35
(I0
tp5033
g19
tp5034
Rp5035
(I1
(L1L
tp5036
g26
I00
(lp5037
g0
(g7
g2
Ntp5038
Rp5039
(dp5040
g11
g0
(g12
g2
Ntp5041
Rp5042
((lp5043
g16
(g17
(I0
tp5044
g19
tp5045
Rp5046
((I1
(L1L
tp5047
g26
I00
(lp5048
S'_i_'
p5049
atp5050
(Ntp5051
tp5052
ba(lp5053
g16
(g35
(I0
tp5054
g19
tp5055
Rp5056
(I1
(L1L
tp5057
g26
I00
(lp5058
g0
(g7
g2
Ntp5059
Rp5060
(dp5061
g11
g0
(g12
g2
Ntp5062
Rp5063
((lp5064
g16
(g17
(I0
tp5065
g19
tp5066
Rp5067
((I1
(L0L
tp5068
g26
I00
(lp5069
tp5070
(Ntp5071
tp5072
ba(lp5073
g16
(g35
(I0
tp5074
g19
tp5075
Rp5076
(I1
(L0L
tp5077
g26
I00
(lp5078
tp5079
ba(lp5080
g5067
atp5081
bsg177
g3189
sbatp5082
ba(lp5083
g5046
atp5084
bsg177
g5028
sbatp5085
ba(lp5086
g5025
atp5087
bsg177
g5007
sbatp5088
ba(lp5089
g5004
atp5090
bsg177
S'Expr'
p5091
sbag0
(g7
g2
Ntp5092
Rp5093
(dp5094
g11
g0
(g12
g2
Ntp5095
Rp5096
((lp5097
g16
(g17
(I0
tp5098
g19
tp5099
Rp5100
((I1
(L0L
tp5101
g26
I00
(lp5102
tp5103
(Ntp5104
tp5105
ba(lp5106
g16
(g35
(I0
tp5107
g19
tp5108
Rp5109
(I1
(L0L
tp5110
g26
I00
(lp5111
tp5112
ba(lp5113
g5100
atp5114
bsg177
g1086
sbag0
(g7
g2
Ntp5115
Rp5116
(dp5117
g11
g0
(g12
g2
Ntp5118
Rp5119
((lp5120
g16
(g17
(I0
tp5121
g19
tp5122
Rp5123
((I1
(L1L
tp5124
g26
I00
(lp5125
S'Val'
p5126
atp5127
(Ntp5128
tp5129
ba(lp5130
g16
(g35
(I0
tp5131
g19
tp5132
Rp5133
(I1
(L1L
tp5134
g26
I00
(lp5135
g0
(g7
g2
Ntp5136
Rp5137
(dp5138
g11
g0
(g12
g2
Ntp5139
Rp5140
((lp5141
g16
(g17
(I0
tp5142
g19
tp5143
Rp5144
((I1
(L1L
tp5145
g26
I00
(lp5146
S'Number'
p5147
atp5148
(Ntp5149
tp5150
ba(lp5151
g16
(g35
(I0
tp5152
g19
tp5153
Rp5154
(I1
(L1L
tp5155
g26
I00
(lp5156
g0
(g7
g2
Ntp5157
Rp5158
(dp5159
g11
g0
(g12
g2
Ntp5160
Rp5161
((lp5162
g16
(g17
(I0
tp5163
g19
tp5164
Rp5165
((I1
(L1L
tp5166
g26
I00
(lp5167
S'_1_'
p5168
atp5169
(Ntp5170
tp5171
ba(lp5172
g16
(g35
(I0
tp5173
g19
tp5174
Rp5175
(I1
(L1L
tp5176
g26
I00
(lp5177
g0
(g7
g2
Ntp5178
Rp5179
(dp5180
g11
g0
(g12
g2
Ntp5181
Rp5182
((lp5183
g16
(g17
(I0
tp5184
g19
tp5185
Rp5186
((I1
(L0L
tp5187
g26
I00
(lp5188
tp5189
(Ntp5190
tp5191
ba(lp5192
g16
(g35
(I0
tp5193
g19
tp5194
Rp5195
(I1
(L0L
tp5196
g26
I00
(lp5197
tp5198
ba(lp5199
g5186
atp5200
bsg177
S'1'
p5201
sbatp5202
ba(lp5203
g5165
atp5204
bsg177
g5147
sbatp5205
ba(lp5206
g5144
atp5207
bsg177
g5126
sbatp5208
ba(lp5209
g5123
atp5210
bsg177
S'Expr'
p5211
sbatp5212
ba(lp5213
g4981
atp5214
bsg177
g4963
sbatp5215
ba(lp5216
g4960
atp5217
bsg177
g4942
sbatp5218
ba(lp5219
g4939
atp5220
bsg177
g4921
sbatp5221
ba(lp5222
g4918
atp5223
bsg177
g4781
sbag0
(g7
g2
Ntp5224
Rp5225
(dp5226
g11
g0
(g12
g2
Ntp5227
Rp5228
((lp5229
g16
(g17
(I0
tp5230
g19
tp5231
Rp5232
((I1
(L0L
tp5233
g26
I00
(lp5234
tp5235
(Ntp5236
tp5237
ba(lp5238
g16
(g35
(I0
tp5239
g19
tp5240
Rp5241
(I1
(L0L
tp5242
g26
I00
(lp5243
tp5244
ba(lp5245
g5232
atp5246
bsg177
g370
sbatp5247
ba(lp5248
g4776
atp5249
bsg177
g4758
sbatp5250
ba(lp5251
g4755
atp5252
bsg177
g4427
sbatp5253
ba(lp5254
g4422
atp5255
bsg177
g4404
sbatp5256
ba(lp5257
g4401
atp5258
bsg177
g4382
sbag0
(g7
g2
Ntp5259
Rp5260
(dp5261
g11
g0
(g12
g2
Ntp5262
Rp5263
((lp5264
g16
(g17
(I0
tp5265
g19
tp5266
Rp5267
((I1
(L0L
tp5268
g26
I00
(lp5269
tp5270
(Ntp5271
tp5272
ba(lp5273
g16
(g35
(I0
tp5274
g19
tp5275
Rp5276
(I1
(L0L
tp5277
g26
I00
(lp5278
tp5279
ba(lp5280
g5267
atp5281
bsg177
g632
sbatp5282
ba(lp5283
g4379
atp5284
bsg177
g4361
sbatp5285
ba(lp5286
g4358
atp5287
bsg177
g4340
sbatp5288
ba(lp5289
g4337
atp5290
bsg177
g4294
sbag0
(g7
g2
Ntp5291
Rp5292
(dp5293
g11
g0
(g12
g2
Ntp5294
Rp5295
((lp5296
g16
(g17
(I0
tp5297
g19
tp5298
Rp5299
((I1
(L0L
tp5300
g26
I00
(lp5301
tp5302
(Ntp5303
tp5304
ba(lp5305
g16
(g35
(I0
tp5306
g19
tp5307
Rp5308
(I1
(L0L
tp5309
g26
I00
(lp5310
tp5311
ba(lp5312
g5299
atp5313
bsg177
S'$blockend'
p5314
sbatp5315
ba(lp5316
g4290
atp5317
bsg177
S'Block'
p5318
sbag0
(g7
g2
Ntp5319
Rp5320
(dp5321
g11
g0
(g12
g2
Ntp5322
Rp5323
((lp5324
g16
(g17
(I0
tp5325
g19
tp5326
Rp5327
((I1
(L1L
tp5328
g26
I00
(lp5329
S'_else_'
p5330
atp5331
(Ntp5332
tp5333
ba(lp5334
g16
(g35
(I0
tp5335
g19
tp5336
Rp5337
(I1
(L1L
tp5338
g26
I00
(lp5339
g0
(g7
g2
Ntp5340
Rp5341
(dp5342
g11
g0
(g12
g2
Ntp5343
Rp5344
((lp5345
g16
(g17
(I0
tp5346
g19
tp5347
Rp5348
((I1
(L0L
tp5349
g26
I00
(lp5350
tp5351
(Ntp5352
tp5353
ba(lp5354
g16
(g35
(I0
tp5355
g19
tp5356
Rp5357
(I1
(L0L
tp5358
g26
I00
(lp5359
tp5360
ba(lp5361
g5348
atp5362
bsg177
S'else'
p5363
sbatp5364
ba(lp5365
g5327
atp5366
bsg177
g3956
sbag0
(g7
g2
Ntp5367
Rp5368
(dp5369
g11
g0
(g12
g2
Ntp5370
Rp5371
((lp5372
g16
(g17
(I0
tp5373
g19
tp5374
Rp5375
((I1
(L3L
tp5376
g26
I00
(lp5377
S'_:$blockbegin_'
p5378
aS'Prog'
p5379
aS'_$blockend_'
p5380
atp5381
(Ntp5382
tp5383
ba(lp5384
g16
(g35
(I0
tp5385
g19
tp5386
Rp5387
(I1
(L3L
tp5388
g26
I00
(lp5389
g0
(g7
g2
Ntp5390
Rp5391
(dp5392
g11
g0
(g12
g2
Ntp5393
Rp5394
((lp5395
g16
(g17
(I0
tp5396
g19
tp5397
Rp5398
((I1
(L0L
tp5399
g26
I00
(lp5400
tp5401
(Ntp5402
tp5403
ba(lp5404
g16
(g35
(I0
tp5405
g19
tp5406
Rp5407
(I1
(L0L
tp5408
g26
I00
(lp5409
tp5410
ba(lp5411
g5398
atp5412
bsg177
S':$blockbegin'
p5413
sbag0
(g7
g2
Ntp5414
Rp5415
(dp5416
g11
g0
(g12
g2
Ntp5417
Rp5418
((lp5419
g16
(g17
(I0
tp5420
g19
tp5421
Rp5422
((I1
(L1L
tp5423
g26
I00
(lp5424
S'Stmt'
p5425
atp5426
(Ntp5427
tp5428
ba(lp5429
g16
(g35
(I0
tp5430
g19
tp5431
Rp5432
(I1
(L1L
tp5433
g26
I00
(lp5434
g0
(g7
g2
Ntp5435
Rp5436
(dp5437
g11
g0
(g12
g2
Ntp5438
Rp5439
((lp5440
g16
(g17
(I0
tp5441
g19
tp5442
Rp5443
((I1
(L1L
tp5444
g26
I00
(lp5445
S'Single_stmt'
p5446
atp5447
(Ntp5448
tp5449
ba(lp5450
g16
(g35
(I0
tp5451
g19
tp5452
Rp5453
(I1
(L1L
tp5454
g26
I00
(lp5455
g0
(g7
g2
Ntp5456
Rp5457
(dp5458
g11
g0
(g12
g2
Ntp5459
Rp5460
((lp5461
g16
(g17
(I0
tp5462
g19
tp5463
Rp5464
((I1
(L2L
tp5465
g26
I00
(lp5466
S'Stmts'
p5467
aS'_;_'
p5468
atp5469
(Ntp5470
tp5471
ba(lp5472
g16
(g35
(I0
tp5473
g19
tp5474
Rp5475
(I1
(L2L
tp5476
g26
I00
(lp5477
g0
(g7
g2
Ntp5478
Rp5479
(dp5480
g11
g0
(g12
g2
Ntp5481
Rp5482
((lp5483
g16
(g17
(I0
tp5484
g19
tp5485
Rp5486
((I1
(L1L
tp5487
g26
I00
(lp5488
S'_pass_'
p5489
atp5490
(Ntp5491
tp5492
ba(lp5493
g16
(g35
(I0
tp5494
g19
tp5495
Rp5496
(I1
(L1L
tp5497
g26
I00
(lp5498
g0
(g7
g2
Ntp5499
Rp5500
(dp5501
g11
g0
(g12
g2
Ntp5502
Rp5503
((lp5504
g16
(g17
(I0
tp5505
g19
tp5506
Rp5507
((I1
(L0L
tp5508
g26
I00
(lp5509
tp5510
(Ntp5511
tp5512
ba(lp5513
g16
(g35
(I0
tp5514
g19
tp5515
Rp5516
(I1
(L0L
tp5517
g26
I00
(lp5518
tp5519
ba(lp5520
g5507
atp5521
bsg177
S'pass'
p5522
sbatp5523
ba(lp5524
g5486
atp5525
bsg177
g5467
sbag0
(g7
g2
Ntp5526
Rp5527
(dp5528
g11
g0
(g12
g2
Ntp5529
Rp5530
((lp5531
g16
(g17
(I0
tp5532
g19
tp5533
Rp5534
((I1
(L0L
tp5535
g26
I00
(lp5536
tp5537
(Ntp5538
tp5539
ba(lp5540
g16
(g35
(I0
tp5541
g19
tp5542
Rp5543
(I1
(L0L
tp5544
g26
I00
(lp5545
tp5546
ba(lp5547
g5534
atp5548
bsg177
g632
sbatp5549
ba(lp5550
g5464
atp5551
bsg177
g5446
sbatp5552
ba(lp5553
g5443
atp5554
bsg177
g5425
sbatp5555
ba(lp5556
g5422
atp5557
bsg177
g5379
sbag0
(g7
g2
Ntp5558
Rp5559
(dp5560
g11
g0
(g12
g2
Ntp5561
Rp5562
((lp5563
g16
(g17
(I0
tp5564
g19
tp5565
Rp5566
((I1
(L0L
tp5567
g26
I00
(lp5568
tp5569
(Ntp5570
tp5571
ba(lp5572
g16
(g35
(I0
tp5573
g19
tp5574
Rp5575
(I1
(L0L
tp5576
g26
I00
(lp5577
tp5578
ba(lp5579
g5566
atp5580
bsg177
S'$blockend'
p5581
sbatp5582
ba(lp5583
g5375
atp5584
bsg177
S'Block'
p5585
sbatp5586
ba(lp5587
g3951
atp5588
bsg177
g3933
sbatp5589
ba(lp5590
g3930
atp5591
bsg177
g3912
sbatp5592
ba(lp5593
g3909
atp5594
bsg177
g3891
sbatp5595
ba(lp5596
g3888
atp5597
bsg177
g3845
sbag0
(g7
g2
Ntp5598
Rp5599
(dp5600
g11
g0
(g12
g2
Ntp5601
Rp5602
((lp5603
g16
(g17
(I0
tp5604
g19
tp5605
Rp5606
((I1
(L0L
tp5607
g26
I00
(lp5608
tp5609
(Ntp5610
tp5611
ba(lp5612
g16
(g35
(I0
tp5613
g19
tp5614
Rp5615
(I1
(L0L
tp5616
g26
I00
(lp5617
tp5618
ba(lp5619
g5606
atp5620
bsg177
S'$blockend'
p5621
sbatp5622
ba(lp5623
g3841
atp5624
bsg177
g3003
sbatp5625
ba(lp5626
g2999
atp5627
bsg177
g2981
sbatp5628
ba(lp5629
g2978
atp5630
bsg177
S'Stmt'
p5631
sbag0
(g7
g2
Ntp5632
Rp5633
(dp5634
g11
g0
(g12
g2
Ntp5635
Rp5636
((lp5637
g16
(g17
(I0
tp5638
g19
tp5639
Rp5640
((I1
(L1L
tp5641
g26
I00
(lp5642
S'Single_stmt'
p5643
atp5644
(Ntp5645
tp5646
ba(lp5647
g16
(g35
(I0
tp5648
g19
tp5649
Rp5650
(I1
(L1L
tp5651
g26
I00
(lp5652
g0
(g7
g2
Ntp5653
Rp5654
(dp5655
g11
g0
(g12
g2
Ntp5656
Rp5657
((lp5658
g16
(g17
(I0
tp5659
g19
tp5660
Rp5661
((I1
(L2L
tp5662
g26
I00
(lp5663
S'Stmts'
p5664
aS'_;_'
p5665
atp5666
(Ntp5667
tp5668
ba(lp5669
g16
(g35
(I0
tp5670
g19
tp5671
Rp5672
(I1
(L2L
tp5673
g26
I00
(lp5674
g0
(g7
g2
Ntp5675
Rp5676
(dp5677
g11
g0
(g12
g2
Ntp5678
Rp5679
((lp5680
g16
(g17
(I0
tp5681
g19
tp5682
Rp5683
((I1
(L2L
tp5684
g26
I00
(lp5685
S'_print_'
p5686
aS'Exprlist'
p5687
atp5688
(Ntp5689
tp5690
ba(lp5691
g16
(g35
(I0
tp5692
g19
tp5693
Rp5694
(I1
(L2L
tp5695
g26
I00
(lp5696
g0
(g7
g2
Ntp5697
Rp5698
(dp5699
g11
g0
(g12
g2
Ntp5700
Rp5701
((lp5702
g16
(g17
(I0
tp5703
g19
tp5704
Rp5705
((I1
(L0L
tp5706
g26
I00
(lp5707
tp5708
(Ntp5709
tp5710
ba(lp5711
g16
(g35
(I0
tp5712
g19
tp5713
Rp5714
(I1
(L0L
tp5715
g26
I00
(lp5716
tp5717
ba(lp5718
g5705
atp5719
bsg177
S'print'
p5720
sbag0
(g7
g2
Ntp5721
Rp5722
(dp5723
g11
g0
(g12
g2
Ntp5724
Rp5725
((lp5726
g16
(g17
(I0
tp5727
g19
tp5728
Rp5729
((I1
(L1L
tp5730
g26
I00
(lp5731
S'Expr'
p5732
atp5733
(Ntp5734
tp5735
ba(lp5736
g16
(g35
(I0
tp5737
g19
tp5738
Rp5739
(I1
(L1L
tp5740
g26
I00
(lp5741
g0
(g7
g2
Ntp5742
Rp5743
(dp5744
g11
g0
(g12
g2
Ntp5745
Rp5746
((lp5747
g16
(g17
(I0
tp5748
g19
tp5749
Rp5750
((I1
(L1L
tp5751
g26
I00
(lp5752
S'Val'
p5753
atp5754
(Ntp5755
tp5756
ba(lp5757
g16
(g35
(I0
tp5758
g19
tp5759
Rp5760
(I1
(L1L
tp5761
g26
I00
(lp5762
g0
(g7
g2
Ntp5763
Rp5764
(dp5765
g11
g0
(g12
g2
Ntp5766
Rp5767
((lp5768
g16
(g17
(I0
tp5769
g19
tp5770
Rp5771
((I1
(L1L
tp5772
g26
I00
(lp5773
S'Var'
p5774
atp5775
(Ntp5776
tp5777
ba(lp5778
g16
(g35
(I0
tp5779
g19
tp5780
Rp5781
(I1
(L1L
tp5782
g26
I00
(lp5783
g0
(g7
g2
Ntp5784
Rp5785
(dp5786
g11
g0
(g12
g2
Ntp5787
Rp5788
((lp5789
g16
(g17
(I0
tp5790
g19
tp5791
Rp5792
((I1
(L1L
tp5793
g26
I00
(lp5794
S'_L_'
p5795
atp5796
(Ntp5797
tp5798
ba(lp5799
g16
(g35
(I0
tp5800
g19
tp5801
Rp5802
(I1
(L1L
tp5803
g26
I00
(lp5804
g0
(g7
g2
Ntp5805
Rp5806
(dp5807
g11
g0
(g12
g2
Ntp5808
Rp5809
((lp5810
g16
(g17
(I0
tp5811
g19
tp5812
Rp5813
((I1
(L0L
tp5814
g26
I00
(lp5815
tp5816
(Ntp5817
tp5818
ba(lp5819
g16
(g35
(I0
tp5820
g19
tp5821
Rp5822
(I1
(L0L
tp5823
g26
I00
(lp5824
tp5825
ba(lp5826
g5813
atp5827
bsg177
g2487
sbatp5828
ba(lp5829
g5792
atp5830
bsg177
g5774
sbatp5831
ba(lp5832
g5771
atp5833
bsg177
g5753
sbatp5834
ba(lp5835
g5750
atp5836
bsg177
g5732
sbatp5837
ba(lp5838
g5729
atp5839
bsg177
g5687
sbatp5840
ba(lp5841
g5683
atp5842
bsg177
g5664
sbag0
(g7
g2
Ntp5843
Rp5844
(dp5845
g11
g0
(g12
g2
Ntp5846
Rp5847
((lp5848
g16
(g17
(I0
tp5849
g19
tp5850
Rp5851
((I1
(L0L
tp5852
g26
I00
(lp5853
tp5854
(Ntp5855
tp5856
ba(lp5857
g16
(g35
(I0
tp5858
g19
tp5859
Rp5860
(I1
(L0L
tp5861
g26
I00
(lp5862
tp5863
ba(lp5864
g5851
atp5865
bsg177
g632
sbatp5866
ba(lp5867
g5661
atp5868
bsg177
g5643
sbatp5869
ba(lp5870
g5640
atp5871
bsg177
S'Stmt'
p5872
sbatp5873
ba(lp5874
g49
atp5875
bsg177
g30
sbatp5876
ba(lp5877
g21
atp5878
bsg177
g6
sbsS'pos'
p5879
g9
sb.