ccopy_reg
_reconstructor
p1
(ctree
Tree
p2
c__builtin__
object
p3
NtRp4
(dp5
S'patterns'
p6
c__builtin__
set
p7
((ltRp8
sS'root'
p9
g1
(ctree
vertex
p10
g3
NtRp11
(dp12
S'_data'
p13
g1
(cpandas.core.internals
SingleBlockManager
p14
g3
NtRp15
((lp16
cnumpy.core.multiarray
_reconstruct
p17
(cpandas.core.index
Index
p18
(I0
tS'b'
tRp19
((I1
(L1L
tcnumpy
dtype
p20
(S'O8'
I0
I1
tRp21
(I3
S'|'
NNNI-1
I-1
I63
tbI00
(lp22
S'Prog'
p23
at(Nttba(lp24
g17
(cnumpy
ndarray
p25
(I0
tS'b'
tRp26
(I1
(L1L
tg21
I00
(lp27
g1
(g10
g3
NtRp28
(dp29
g13
g1
(g14
g3
NtRp30
((lp31
g17
(g18
(I0
tS'b'
tRp32
((I1
(L4L
tg21
I00
(lp33
S'Stmt1'
p34
aS'Stmt2'
p35
aS'Stmt3'
p36
aS'Stmt4'
p37
at(Nttba(lp38
g17
(g25
(I0
tS'b'
tRp39
(I1
(L4L
tg21
I00
(lp40
g1
(g10
g3
NtRp41
(dp42
g13
g1
(g14
g3
NtRp43
((lp44
g17
(g18
(I0
tS'b'
tRp45
((I1
(L1L
tg21
I00
(lp46
S'Single_stmt'
p47
at(Nttba(lp48
g17
(g25
(I0
tS'b'
tRp49
(I1
(L1L
tg21
I00
(lp50
g1
(g10
g3
NtRp51
(dp52
g13
g1
(g14
g3
NtRp53
((lp54
g17
(g18
(I0
tS'b'
tRp55
((I1
(L2L
tg21
I00
(lp56
S'Import_stmt'
p57
aS'_;_'
p58
at(Nttba(lp59
g17
(g25
(I0
tS'b'
tRp60
(I1
(L2L
tg21
I00
(lp61
g1
(g10
g3
NtRp62
(dp63
g13
g1
(g14
g3
NtRp64
((lp65
g17
(g18
(I0
tS'b'
tRp66
((I1
(L1L
tg21
I00
(lp67
S'Import'
p68
at(Nttba(lp69
g17
(g25
(I0
tS'b'
tRp70
(I1
(L1L
tg21
I00
(lp71
g1
(g10
g3
NtRp72
(dp73
g13
g1
(g14
g3
NtRp74
((lp75
g17
(g18
(I0
tS'b'
tRp76
((I1
(L4L
tg21
I00
(lp77
S'_from_'
p78
aS'Rel_module'
p79
aS'_import_'
p80
aS'Id_list'
p81
at(Nttba(lp82
g17
(g25
(I0
tS'b'
tRp83
(I1
(L4L
tg21
I00
(lp84
g1
(g10
g3
NtRp85
(dp86
g13
g1
(g14
g3
NtRp87
((lp88
g17
(g18
(I0
tS'b'
tRp89
((I1
(L0L
tg21
I00
(lt(Nttba(lp90
g17
(g25
(I0
tS'b'
tRp91
(I1
(L0L
tg21
I00
(ltba(lp92
g89
atbsS'name'
p93
S'from'
p94
sbag1
(g10
g3
NtRp95
(dp96
g13
g1
(g14
g3
NtRp97
((lp98
g17
(g18
(I0
tS'b'
tRp99
((I1
(L1L
tg21
I00
(lp100
S'Module'
p101
at(Nttba(lp102
g17
(g25
(I0
tS'b'
tRp103
(I1
(L1L
tg21
I00
(lp104
g1
(g10
g3
NtRp105
(dp106
g13
g1
(g14
g3
NtRp107
((lp108
g17
(g18
(I0
tS'b'
tRp109
((I1
(L1L
tg21
I00
(lp110
S'Id'
p111
at(Nttba(lp112
g17
(g25
(I0
tS'b'
tRp113
(I1
(L1L
tg21
I00
(lp114
g1
(g10
g3
NtRp115
(dp116
g13
g1
(g14
g3
NtRp117
((lp118
g17
(g18
(I0
tS'b'
tRp119
((I1
(L1L
tg21
I00
(lp120
S'___future___'
p121
at(Nttba(lp122
g17
(g25
(I0
tS'b'
tRp123
(I1
(L1L
tg21
I00
(lp124
g1
(g10
g3
NtRp125
(dp126
g13
g1
(g14
g3
NtRp127
((lp128
g17
(g18
(I0
tS'b'
tRp129
((I1
(L0L
tg21
I00
(lt(Nttba(lp130
g17
(g25
(I0
tS'b'
tRp131
(I1
(L0L
tg21
I00
(ltba(lp132
g129
atbsg93
S'__future__'
p133
sbatba(lp134
g119
atbsg93
g111
sbatba(lp135
g109
atbsg93
g101
sbatba(lp136
g99
atbsg93
g79
sbag1
(g10
g3
NtRp137
(dp138
g13
g1
(g14
g3
NtRp139
((lp140
g17
(g18
(I0
tS'b'
tRp141
((I1
(L0L
tg21
I00
(lt(Nttba(lp142
g17
(g25
(I0
tS'b'
tRp143
(I1
(L0L
tg21
I00
(ltba(lp144
g141
atbsg93
S'import'
p145
sbag1
(g10
g3
NtRp146
(dp147
g13
g1
(g14
g3
NtRp148
((lp149
g17
(g18
(I0
tS'b'
tRp150
((I1
(L1L
tg21
I00
(lp151
S'Id_alias'
p152
at(Nttba(lp153
g17
(g25
(I0
tS'b'
tRp154
(I1
(L1L
tg21
I00
(lp155
g1
(g10
g3
NtRp156
(dp157
g13
g1
(g14
g3
NtRp158
((lp159
g17
(g18
(I0
tS'b'
tRp160
((I1
(L1L
tg21
I00
(lp161
S'Id'
p162
at(Nttba(lp163
g17
(g25
(I0
tS'b'
tRp164
(I1
(L1L
tg21
I00
(lp165
g1
(g10
g3
NtRp166
(dp167
g13
g1
(g14
g3
NtRp168
((lp169
g17
(g18
(I0
tS'b'
tRp170
((I1
(L1L
tg21
I00
(lp171
S'_division_'
p172
at(Nttba(lp173
g17
(g25
(I0
tS'b'
tRp174
(I1
(L1L
tg21
I00
(lp175
g1
(g10
g3
NtRp176
(dp177
g13
g1
(g14
g3
NtRp178
((lp179
g17
(g18
(I0
tS'b'
tRp180
((I1
(L0L
tg21
I00
(lt(Nttba(lp181
g17
(g25
(I0
tS'b'
tRp182
(I1
(L0L
tg21
I00
(ltba(lp183
g180
atbsg93
S'division'
p184
sbatba(lp185
g170
atbsg93
g162
sbatba(lp186
g160
atbsg93
g152
sbatba(lp187
g150
atbsg93
g81
sbatba(lp188
g76
atbsg93
g68
sbatba(lp189
g66
atbsg93
g57
sbag1
(g10
g3
NtRp190
(dp191
g13
g1
(g14
g3
NtRp192
((lp193
g17
(g18
(I0
tS'b'
tRp194
((I1
(L0L
tg21
I00
(lt(Nttba(lp195
g17
(g25
(I0
tS'b'
tRp196
(I1
(L0L
tg21
I00
(ltba(lp197
g194
atbsg93
S';'
sbatba(lp198
g55
atbsg93
g47
sbatba(lp199
g45
atbsg93
S'Stmt'
p200
sbag1
(g10
g3
NtRp201
(dp202
g13
g1
(g14
g3
NtRp203
((lp204
g17
(g18
(I0
tS'b'
tRp205
((I1
(L1L
tg21
I00
(lp206
S'Single_stmt'
p207
at(Nttba(lp208
g17
(g25
(I0
tS'b'
tRp209
(I1
(L1L
tg21
I00
(lp210
g1
(g10
g3
NtRp211
(dp212
g13
g1
(g14
g3
NtRp213
((lp214
g17
(g18
(I0
tS'b'
tRp215
((I1
(L2L
tg21
I00
(lp216
S'Exprlist'
p217
aS'_;_'
p218
at(Nttba(lp219
g17
(g25
(I0
tS'b'
tRp220
(I1
(L2L
tg21
I00
(lp221
g1
(g10
g3
NtRp222
(dp223
g13
g1
(g14
g3
NtRp224
((lp225
g17
(g18
(I0
tS'b'
tRp226
((I1
(L1L
tg21
I00
(lp227
S'Expr'
p228
at(Nttba(lp229
g17
(g25
(I0
tS'b'
tRp230
(I1
(L1L
tg21
I00
(lp231
g1
(g10
g3
NtRp232
(dp233
g13
g1
(g14
g3
NtRp234
((lp235
g17
(g18
(I0
tS'b'
tRp236
((I1
(L1L
tg21
I00
(lp237
S'Val'
p238
at(Nttba(lp239
g17
(g25
(I0
tS'b'
tRp240
(I1
(L1L
tg21
I00
(lp241
g1
(g10
g3
NtRp242
(dp243
g13
g1
(g14
g3
NtRp244
((lp245
g17
(g18
(I0
tS'b'
tRp246
((I1
(L1L
tg21
I00
(lp247
S'String'
p248
at(Nttba(lp249
g17
(g25
(I0
tS'b'
tRp250
(I1
(L1L
tg21
I00
(lp251
g1
(g10
g3
NtRp252
(dp253
g13
g1
(g14
g3
NtRp254
((lp255
g17
(g18
(I0
tS'b'
tRp256
((I1
(L1L
tg21
I00
(lp257
S'Str_val'
p258
at(Nttba(lp259
g17
(g25
(I0
tS'b'
tRp260
(I1
(L1L
tg21
I00
(lp261
g1
(g10
g3
NtRp262
(dp263
g13
g1
(g14
g3
NtRp264
((lp265
g17
(g18
(I0
tS'b'
tRp266
((I1
(L1L
tg21
I00
(lp267
S'_"""\r\nTest program for codegeneration\r\n"""_'
p268
at(Nttba(lp269
g17
(g25
(I0
tS'b'
tRp270
(I1
(L1L
tg21
I00
(lp271
g1
(g10
g3
NtRp272
(dp273
g13
g1
(g14
g3
NtRp274
((lp275
g17
(g18
(I0
tS'b'
tRp276
((I1
(L0L
tg21
I00
(lt(Nttba(lp277
g17
(g25
(I0
tS'b'
tRp278
(I1
(L0L
tg21
I00
(ltba(lp279
g276
atbsg93
S'"\nTest program for codegeneration\n"'
p280
sbatba(lp281
g266
atbsg93
g258
sbatba(lp282
g256
atbsg93
g248
sbatba(lp283
g246
atbsg93
g238
sbatba(lp284
g17
(g18
(I0
tS'b'
tRp285
((I1
(L1L
tg21
I00
(lp286
g238
at(Nttbatbsg93
S'Expr'
p287
sbatba(lp288
g226
atbsg93
g217
sbag1
(g10
g3
NtRp289
(dp290
g13
g1
(g14
g3
NtRp291
((lp292
g17
(g18
(I0
tS'b'
tRp293
((I1
(L0L
tg21
I00
(lt(Nttba(lp294
g17
(g25
(I0
tS'b'
tRp295
(I1
(L0L
tg21
I00
(ltba(lp296
g293
atbsg93
S';'
sbatba(lp297
g215
atbsg93
g207
sbatba(lp298
g205
atbsg93
S'Stmt'
p299
sbag1
(g10
g3
NtRp300
(dp301
g13
g1
(g14
g3
NtRp302
((lp303
g17
(g18
(I0
tS'b'
tRp304
((I1
(L1L
tg21
I00
(lp305
S'Block_stmt'
p306
at(Nttba(lp307
g17
(g25
(I0
tS'b'
tRp308
(I1
(L1L
tg21
I00
(lp309
g1
(g10
g3
NtRp310
(dp311
g13
g1
(g14
g3
NtRp312
((lp313
g17
(g18
(I0
tS'b'
tRp314
((I1
(L2L
tg21
I00
(lp315
S'Block_head'
p316
aS'Block'
p317
at(Nttba(lp318
g17
(g25
(I0
tS'b'
tRp319
(I1
(L2L
tg21
I00
(lp320
g1
(g10
g3
NtRp321
(dp322
g13
g1
(g14
g3
NtRp323
((lp324
g17
(g18
(I0
tS'b'
tRp325
((I1
(L1L
tg21
I00
(lp326
S'Func'
p327
at(Nttba(lp328
g17
(g25
(I0
tS'b'
tRp329
(I1
(L1L
tg21
I00
(lp330
g1
(g10
g3
NtRp331
(dp332
g13
g1
(g14
g3
NtRp333
((lp334
g17
(g18
(I0
tS'b'
tRp335
((I1
(L5L
tg21
I00
(lp336
S'_def_'
p337
aS'Id'
p338
aS'_(_'
p339
aS'Paramlist'
p340
aS'_)_'
p341
at(Nttba(lp342
g17
(g25
(I0
tS'b'
tRp343
(I1
(L5L
tg21
I00
(lp344
g1
(g10
g3
NtRp345
(dp346
g13
g1
(g14
g3
NtRp347
((lp348
g17
(g18
(I0
tS'b'
tRp349
((I1
(L0L
tg21
I00
(lt(Nttba(lp350
g17
(g25
(I0
tS'b'
tRp351
(I1
(L0L
tg21
I00
(ltba(lp352
g349
atbsg93
S'def'
p353
sbag1
(g10
g3
NtRp354
(dp355
g13
g1
(g14
g3
NtRp356
((lp357
g17
(g18
(I0
tS'b'
tRp358
((I1
(L1L
tg21
I00
(lp359
S'_f_'
p360
at(Nttba(lp361
g17
(g25
(I0
tS'b'
tRp362
(I1
(L1L
tg21
I00
(lp363
g1
(g10
g3
NtRp364
(dp365
g13
g1
(g14
g3
NtRp366
((lp367
g17
(g18
(I0
tS'b'
tRp368
((I1
(L0L
tg21
I00
(lt(Nttba(lp369
g17
(g25
(I0
tS'b'
tRp370
(I1
(L0L
tg21
I00
(ltba(lp371
g368
atbsg93
S'f'
sbatba(lp372
g358
atbsg93
g338
sbag1
(g10
g3
NtRp373
(dp374
g13
g1
(g14
g3
NtRp375
((lp376
g17
(g18
(I0
tS'b'
tRp377
((I1
(L0L
tg21
I00
(lt(Nttba(lp378
g17
(g25
(I0
tS'b'
tRp379
(I1
(L0L
tg21
I00
(ltba(lp380
g377
atbsg93
S'('
sbag1
(g10
g3
NtRp381
(dp382
g13
g1
(g14
g3
NtRp383
((lp384
g17
(g18
(I0
tS'b'
tRp385
((I1
(L1L
tg21
I00
(lp386
S'Pos_paramlist'
p387
at(Nttba(lp388
g17
(g25
(I0
tS'b'
tRp389
(I1
(L1L
tg21
I00
(lp390
g1
(g10
g3
NtRp391
(dp392
g13
g1
(g14
g3
NtRp393
((lp394
g17
(g18
(I0
tS'b'
tRp395
((I1
(L1L
tg21
I00
(lp396
S'Pos_paramtuple'
p397
at(Nttba(lp398
g17
(g25
(I0
tS'b'
tRp399
(I1
(L1L
tg21
I00
(lp400
g1
(g10
g3
NtRp401
(dp402
g13
g1
(g14
g3
NtRp403
((lp404
g17
(g18
(I0
tS'b'
tRp405
((I1
(L1L
tg21
I00
(lp406
S'Simple_var'
p407
at(Nttba(lp408
g17
(g25
(I0
tS'b'
tRp409
(I1
(L1L
tg21
I00
(lp410
g1
(g10
g3
NtRp411
(dp412
g13
g1
(g14
g3
NtRp413
((lp414
g17
(g18
(I0
tS'b'
tRp415
((I1
(L1L
tg21
I00
(lp416
S'Id'
p417
at(Nttba(lp418
g17
(g25
(I0
tS'b'
tRp419
(I1
(L1L
tg21
I00
(lp420
g1
(g10
g3
NtRp421
(dp422
g13
g1
(g14
g3
NtRp423
((lp424
g17
(g18
(I0
tS'b'
tRp425
((I1
(L1L
tg21
I00
(lp426
S'_x_'
p427
at(Nttba(lp428
g17
(g25
(I0
tS'b'
tRp429
(I1
(L1L
tg21
I00
(lp430
g1
(g10
g3
NtRp431
(dp432
g13
g1
(g14
g3
NtRp433
((lp434
g17
(g18
(I0
tS'b'
tRp435
((I1
(L0L
tg21
I00
(lt(Nttba(lp436
g17
(g25
(I0
tS'b'
tRp437
(I1
(L0L
tg21
I00
(ltba(lp438
g435
atbsg93
S'x'
sbatba(lp439
g425
atbsg93
g417
sbatba(lp440
g415
atbsg93
g407
sbatba(lp441
g405
atbsg93
g397
sbatba(lp442
g395
atbsg93
g387
sbatba(lp443
g385
atbsg93
g340
sbag1
(g10
g3
NtRp444
(dp445
g13
g1
(g14
g3
NtRp446
((lp447
g17
(g18
(I0
tS'b'
tRp448
((I1
(L0L
tg21
I00
(lt(Nttba(lp449
g17
(g25
(I0
tS'b'
tRp450
(I1
(L0L
tg21
I00
(ltba(lp451
g448
atbsg93
S')'
sbatba(lp452
g335
atbsg93
g327
sbatba(lp453
g325
atbsg93
g316
sbag1
(g10
g3
NtRp454
(dp455
g13
g1
(g14
g3
NtRp456
((lp457
g17
(g18
(I0
tS'b'
tRp458
((I1
(L3L
tg21
I00
(lp459
S'Blockbegin'
p460
aS'Prog'
p461
aS'Blockend'
p462
at(Nttba(lp463
g17
(g25
(I0
tS'b'
tRp464
(I1
(L3L
tg21
I00
(lp465
g1
(g10
g3
NtRp466
(dp467
g13
g1
(g14
g3
NtRp468
((lp469
g17
(g18
(I0
tS'b'
tRp470
((I1
(L1L
tg21
I00
(lp471
S'_:$blockbegin_'
p472
at(Nttba(lp473
g17
(g25
(I0
tS'b'
tRp474
(I1
(L1L
tg21
I00
(lp475
g1
(g10
g3
NtRp476
(dp477
g13
g1
(g14
g3
NtRp478
((lp479
g17
(g18
(I0
tS'b'
tRp480
((I1
(L0L
tg21
I00
(lt(Nttba(lp481
g17
(g25
(I0
tS'b'
tRp482
(I1
(L0L
tg21
I00
(ltba(lp483
g480
atbsg93
S':$blockbegin'
p484
sbatba(lp485
g470
atbsg93
g460
sbag1
(g10
g3
NtRp486
(dp487
g13
g1
(g14
g3
NtRp488
((lp489
g17
(g18
(I0
tS'b'
tRp490
((I1
(L2L
tg21
I00
(lp491
S'Stmt1'
p492
aS'Stmt2'
p493
at(Nttba(lp494
g17
(g25
(I0
tS'b'
tRp495
(I1
(L2L
tg21
I00
(lp496
g1
(g10
g3
NtRp497
(dp498
g13
g1
(g14
g3
NtRp499
((lp500
g17
(g18
(I0
tS'b'
tRp501
((I1
(L1L
tg21
I00
(lp502
S'Single_stmt'
p503
at(Nttba(lp504
g17
(g25
(I0
tS'b'
tRp505
(I1
(L1L
tg21
I00
(lp506
g1
(g10
g3
NtRp507
(dp508
g13
g1
(g14
g3
NtRp509
((lp510
g17
(g18
(I0
tS'b'
tRp511
((I1
(L2L
tg21
I00
(lp512
S'Exprlist'
p513
aS'_;_'
p514
at(Nttba(lp515
g17
(g25
(I0
tS'b'
tRp516
(I1
(L2L
tg21
I00
(lp517
g1
(g10
g3
NtRp518
(dp519
g13
g1
(g14
g3
NtRp520
((lp521
g17
(g18
(I0
tS'b'
tRp522
((I1
(L1L
tg21
I00
(lp523
S'Expr'
p524
at(Nttba(lp525
g17
(g25
(I0
tS'b'
tRp526
(I1
(L1L
tg21
I00
(lp527
g1
(g10
g3
NtRp528
(dp529
g13
g1
(g14
g3
NtRp530
((lp531
g17
(g18
(I0
tS'b'
tRp532
((I1
(L1L
tg21
I00
(lp533
S'Val'
p534
at(Nttba(lp535
g17
(g25
(I0
tS'b'
tRp536
(I1
(L1L
tg21
I00
(lp537
g1
(g10
g3
NtRp538
(dp539
g13
g1
(g14
g3
NtRp540
((lp541
g17
(g18
(I0
tS'b'
tRp542
((I1
(L1L
tg21
I00
(lp543
S'String'
p544
at(Nttba(lp545
g17
(g25
(I0
tS'b'
tRp546
(I1
(L1L
tg21
I00
(lp547
g1
(g10
g3
NtRp548
(dp549
g13
g1
(g14
g3
NtRp550
((lp551
g17
(g18
(I0
tS'b'
tRp552
((I1
(L1L
tg21
I00
(lp553
S'Str_val'
p554
at(Nttba(lp555
g17
(g25
(I0
tS'b'
tRp556
(I1
(L1L
tg21
I00
(lp557
g1
(g10
g3
NtRp558
(dp559
g13
g1
(g14
g3
NtRp560
((lp561
g17
(g18
(I0
tS'b'
tRp562
((I1
(L1L
tg21
I00
(lp563
S'_"""calculate"""_'
p564
at(Nttba(lp565
g17
(g25
(I0
tS'b'
tRp566
(I1
(L1L
tg21
I00
(lp567
g1
(g10
g3
NtRp568
(dp569
g13
g1
(g14
g3
NtRp570
((lp571
g17
(g18
(I0
tS'b'
tRp572
((I1
(L0L
tg21
I00
(lt(Nttba(lp573
g17
(g25
(I0
tS'b'
tRp574
(I1
(L0L
tg21
I00
(ltba(lp575
g572
atbsg93
S'"calculate"'
p576
sbatba(lp577
g562
atbsg93
g554
sbatba(lp578
g552
atbsg93
g544
sbatba(lp579
g542
atbsg93
g534
sbatba(lp580
g17
(g18
(I0
tS'b'
tRp581
((I1
(L1L
tg21
I00
(lp582
g534
at(Nttbatbsg93
S'Expr'
p583
sbatba(lp584
g522
atbsg93
g513
sbag1
(g10
g3
NtRp585
(dp586
g13
g1
(g14
g3
NtRp587
((lp588
g17
(g18
(I0
tS'b'
tRp589
((I1
(L0L
tg21
I00
(lt(Nttba(lp590
g17
(g25
(I0
tS'b'
tRp591
(I1
(L0L
tg21
I00
(ltba(lp592
g589
atbsg93
S';'
sbatba(lp593
g511
atbsg93
g503
sbatba(lp594
g501
atbsg93
S'Stmt'
p595
sbag1
(g10
g3
NtRp596
(dp597
g13
g1
(g14
g3
NtRp598
((lp599
g17
(g18
(I0
tS'b'
tRp600
((I1
(L1L
tg21
I00
(lp601
S'Single_stmt'
p602
at(Nttba(lp603
g17
(g25
(I0
tS'b'
tRp604
(I1
(L1L
tg21
I00
(lp605
g1
(g10
g3
NtRp606
(dp607
g13
g1
(g14
g3
NtRp608
((lp609
g17
(g18
(I0
tS'b'
tRp610
((I1
(L2L
tg21
I00
(lp611
S'Func_stmt'
p612
aS'_;_'
p613
at(Nttba(lp614
g17
(g25
(I0
tS'b'
tRp615
(I1
(L2L
tg21
I00
(lp616
g1
(g10
g3
NtRp617
(dp618
g13
g1
(g14
g3
NtRp619
((lp620
g17
(g18
(I0
tS'b'
tRp621
((I1
(L2L
tg21
I00
(lp622
S'_return_'
p623
aS'Exprlist'
p624
at(Nttba(lp625
g17
(g25
(I0
tS'b'
tRp626
(I1
(L2L
tg21
I00
(lp627
g1
(g10
g3
NtRp628
(dp629
g13
g1
(g14
g3
NtRp630
((lp631
g17
(g18
(I0
tS'b'
tRp632
((I1
(L0L
tg21
I00
(lt(Nttba(lp633
g17
(g25
(I0
tS'b'
tRp634
(I1
(L0L
tg21
I00
(ltba(lp635
g632
atbsg93
S'return'
p636
sbag1
(g10
g3
NtRp637
(dp638
g13
g1
(g14
g3
NtRp639
((lp640
g17
(g18
(I0
tS'b'
tRp641
((I1
(L1L
tg21
I00
(lp642
S'Expr'
p643
at(Nttba(lp644
g17
(g25
(I0
tS'b'
tRp645
(I1
(L1L
tg21
I00
(lp646
g1
(g10
g3
NtRp647
(dp648
g13
g1
(g14
g3
NtRp649
((lp650
g17
(g18
(I0
tS'b'
tRp651
((I1
(L1L
tg21
I00
(lp652
S'Dash_calc'
p653
at(Nttba(lp654
g17
(g25
(I0
tS'b'
tRp655
(I1
(L1L
tg21
I00
(lp656
g1
(g10
g3
NtRp657
(dp658
g13
g1
(g14
g3
NtRp659
((lp660
g17
(g18
(I0
tS'b'
tRp661
((I1
(L3L
tg21
I00
(lp662
S'Expr1'
p663
aS'_+_'
p664
aS'Expr2'
p665
at(Nttba(lp666
g17
(g25
(I0
tS'b'
tRp667
(I1
(L3L
tg21
I00
(lp668
g1
(g10
g3
NtRp669
(dp670
g13
g1
(g14
g3
NtRp671
((lp672
g17
(g18
(I0
tS'b'
tRp673
((I1
(L1L
tg21
I00
(lp674
S'Dash_calc'
p675
at(Nttba(lp676
g17
(g25
(I0
tS'b'
tRp677
(I1
(L1L
tg21
I00
(lp678
g1
(g10
g3
NtRp679
(dp680
g13
g1
(g14
g3
NtRp681
((lp682
g17
(g18
(I0
tS'b'
tRp683
((I1
(L3L
tg21
I00
(lp684
S'Expr1'
p685
aS'_+_'
p686
aS'Expr2'
p687
at(Nttba(lp688
g17
(g25
(I0
tS'b'
tRp689
(I1
(L3L
tg21
I00
(lp690
g1
(g10
g3
NtRp691
(dp692
g13
g1
(g14
g3
NtRp693
((lp694
g17
(g18
(I0
tS'b'
tRp695
((I1
(L1L
tg21
I00
(lp696
S'Dash_calc'
p697
at(Nttba(lp698
g17
(g25
(I0
tS'b'
tRp699
(I1
(L1L
tg21
I00
(lp700
g1
(g10
g3
NtRp701
(dp702
g13
g1
(g14
g3
NtRp703
((lp704
g17
(g18
(I0
tS'b'
tRp705
((I1
(L3L
tg21
I00
(lp706
S'Expr1'
p707
aS'_-_'
p708
aS'Expr2'
p709
at(Nttba(lp710
g17
(g25
(I0
tS'b'
tRp711
(I1
(L3L
tg21
I00
(lp712
g1
(g10
g3
NtRp713
(dp714
g13
g1
(g14
g3
NtRp715
((lp716
g17
(g18
(I0
tS'b'
tRp717
((I1
(L1L
tg21
I00
(lp718
S'Dash_calc'
p719
at(Nttba(lp720
g17
(g25
(I0
tS'b'
tRp721
(I1
(L1L
tg21
I00
(lp722
g1
(g10
g3
NtRp723
(dp724
g13
g1
(g14
g3
NtRp725
((lp726
g17
(g18
(I0
tS'b'
tRp727
((I1
(L3L
tg21
I00
(lp728
S'Expr1'
p729
aS'_-_'
p730
aS'Expr2'
p731
at(Nttba(lp732
g17
(g25
(I0
tS'b'
tRp733
(I1
(L3L
tg21
I00
(lp734
g1
(g10
g3
NtRp735
(dp736
g13
g1
(g14
g3
NtRp737
((lp738
g17
(g18
(I0
tS'b'
tRp739
((I1
(L1L
tg21
I00
(lp740
S'Dash_calc'
p741
at(Nttba(lp742
g17
(g25
(I0
tS'b'
tRp743
(I1
(L1L
tg21
I00
(lp744
g1
(g10
g3
NtRp745
(dp746
g13
g1
(g14
g3
NtRp747
((lp748
g17
(g18
(I0
tS'b'
tRp749
((I1
(L3L
tg21
I00
(lp750
S'Expr1'
p751
aS'_+_'
p752
aS'Expr2'
p753
at(Nttba(lp754
g17
(g25
(I0
tS'b'
tRp755
(I1
(L3L
tg21
I00
(lp756
g1
(g10
g3
NtRp757
(dp758
g13
g1
(g14
g3
NtRp759
((lp760
g17
(g18
(I0
tS'b'
tRp761
((I1
(L1L
tg21
I00
(lp762
S'Exponentiation'
p763
at(Nttba(lp764
g17
(g25
(I0
tS'b'
tRp765
(I1
(L1L
tg21
I00
(lp766
g1
(g10
g3
NtRp767
(dp768
g13
g1
(g14
g3
NtRp769
((lp770
g17
(g18
(I0
tS'b'
tRp771
((I1
(L3L
tg21
I00
(lp772
S'Expr1'
p773
aS'_**_'
p774
aS'Expr2'
p775
at(Nttba(lp776
g17
(g25
(I0
tS'b'
tRp777
(I1
(L3L
tg21
I00
(lp778
g1
(g10
g3
NtRp779
(dp780
g13
g1
(g14
g3
NtRp781
((lp782
g17
(g18
(I0
tS'b'
tRp783
((I1
(L1L
tg21
I00
(lp784
S'Val'
p785
at(Nttba(lp786
g17
(g25
(I0
tS'b'
tRp787
(I1
(L1L
tg21
I00
(lp788
g1
(g10
g3
NtRp789
(dp790
g13
g1
(g14
g3
NtRp791
((lp792
g17
(g18
(I0
tS'b'
tRp793
((I1
(L1L
tg21
I00
(lp794
S'Var'
p795
at(Nttba(lp796
g17
(g25
(I0
tS'b'
tRp797
(I1
(L1L
tg21
I00
(lp798
g1
(g10
g3
NtRp799
(dp800
g13
g1
(g14
g3
NtRp801
((lp802
g17
(g18
(I0
tS'b'
tRp803
((I1
(L1L
tg21
I00
(lp804
S'Id'
p805
at(Nttba(lp806
g17
(g25
(I0
tS'b'
tRp807
(I1
(L1L
tg21
I00
(lp808
g1
(g10
g3
NtRp809
(dp810
g13
g1
(g14
g3
NtRp811
((lp812
g17
(g18
(I0
tS'b'
tRp813
((I1
(L1L
tg21
I00
(lp814
S'_x_'
p815
at(Nttba(lp816
g17
(g25
(I0
tS'b'
tRp817
(I1
(L1L
tg21
I00
(lp818
g1
(g10
g3
NtRp819
(dp820
g13
g1
(g14
g3
NtRp821
((lp822
g17
(g18
(I0
tS'b'
tRp823
((I1
(L0L
tg21
I00
(lt(Nttba(lp824
g17
(g25
(I0
tS'b'
tRp825
(I1
(L0L
tg21
I00
(ltba(lp826
g823
atbsg93
S'x'
sbatba(lp827
g813
atbsg93
g805
sbatba(lp828
g803
atbsg93
g795
sbatba(lp829
g793
atbsg93
g785
sbatba(lp830
g17
(g18
(I0
tS'b'
tRp831
((I1
(L1L
tg21
I00
(lp832
g785
at(Nttbatbsg93
S'Expr'
p833
sbag1
(g10
g3
NtRp834
(dp835
g13
g1
(g14
g3
NtRp836
((lp837
g17
(g18
(I0
tS'b'
tRp838
((I1
(L0L
tg21
I00
(lt(Nttba(lp839
g17
(g25
(I0
tS'b'
tRp840
(I1
(L0L
tg21
I00
(ltba(lp841
g838
atbsg93
S'**'
p842
sbag1
(g10
g3
NtRp843
(dp844
g13
g1
(g14
g3
NtRp845
((lp846
g17
(g18
(I0
tS'b'
tRp847
((I1
(L1L
tg21
I00
(lp848
S'Val'
p849
at(Nttba(lp850
g17
(g25
(I0
tS'b'
tRp851
(I1
(L1L
tg21
I00
(lp852
g1
(g10
g3
NtRp853
(dp854
g13
g1
(g14
g3
NtRp855
((lp856
g17
(g18
(I0
tS'b'
tRp857
((I1
(L1L
tg21
I00
(lp858
S'Number'
p859
at(Nttba(lp860
g17
(g25
(I0
tS'b'
tRp861
(I1
(L1L
tg21
I00
(lp862
g1
(g10
g3
NtRp863
(dp864
g13
g1
(g14
g3
NtRp865
((lp866
g17
(g18
(I0
tS'b'
tRp867
((I1
(L1L
tg21
I00
(lp868
S'Int'
p869
at(Nttba(lp870
g17
(g25
(I0
tS'b'
tRp871
(I1
(L1L
tg21
I00
(lp872
g1
(g10
g3
NtRp873
(dp874
g13
g1
(g14
g3
NtRp875
((lp876
g17
(g18
(I0
tS'b'
tRp877
((I1
(L1L
tg21
I00
(lp878
S'_2_'
p879
at(Nttba(lp880
g17
(g25
(I0
tS'b'
tRp881
(I1
(L1L
tg21
I00
(lp882
g1
(g10
g3
NtRp883
(dp884
g13
g1
(g14
g3
NtRp885
((lp886
g17
(g18
(I0
tS'b'
tRp887
((I1
(L0L
tg21
I00
(lt(Nttba(lp888
g17
(g25
(I0
tS'b'
tRp889
(I1
(L0L
tg21
I00
(ltba(lp890
g887
atbsg93
S'2'
sbatba(lp891
g877
atbsg93
g869
sbatba(lp892
g867
atbsg93
g859
sbatba(lp893
g857
atbsg93
g849
sbatba(lp894
g17
(g18
(I0
tS'b'
tRp895
((I1
(L1L
tg21
I00
(lp896
g849
at(Nttbatbsg93
S'Expr'
p897
sbatba(lp898
g771
atbsg93
g763
sbatba(lp899
g761
atbsg93
S'Expr'
p900
sbag1
(g10
g3
NtRp901
(dp902
g13
g1
(g14
g3
NtRp903
((lp904
g17
(g18
(I0
tS'b'
tRp905
((I1
(L0L
tg21
I00
(lt(Nttba(lp906
g17
(g25
(I0
tS'b'
tRp907
(I1
(L0L
tg21
I00
(ltba(lp908
g905
atbsg93
S'+'
sbag1
(g10
g3
NtRp909
(dp910
g13
g1
(g14
g3
NtRp911
((lp912
g17
(g18
(I0
tS'b'
tRp913
((I1
(L1L
tg21
I00
(lp914
S'Dot_calc'
p915
at(Nttba(lp916
g17
(g25
(I0
tS'b'
tRp917
(I1
(L1L
tg21
I00
(lp918
g1
(g10
g3
NtRp919
(dp920
g13
g1
(g14
g3
NtRp921
((lp922
g17
(g18
(I0
tS'b'
tRp923
((I1
(L3L
tg21
I00
(lp924
S'Expr1'
p925
aS'_*_'
p926
aS'Expr2'
p927
at(Nttba(lp928
g17
(g25
(I0
tS'b'
tRp929
(I1
(L3L
tg21
I00
(lp930
g1
(g10
g3
NtRp931
(dp932
g13
g1
(g14
g3
NtRp933
((lp934
g17
(g18
(I0
tS'b'
tRp935
((I1
(L1L
tg21
I00
(lp936
S'Val'
p937
at(Nttba(lp938
g17
(g25
(I0
tS'b'
tRp939
(I1
(L1L
tg21
I00
(lp940
g1
(g10
g3
NtRp941
(dp942
g13
g1
(g14
g3
NtRp943
((lp944
g17
(g18
(I0
tS'b'
tRp945
((I1
(L1L
tg21
I00
(lp946
S'Var'
p947
at(Nttba(lp948
g17
(g25
(I0
tS'b'
tRp949
(I1
(L1L
tg21
I00
(lp950
g1
(g10
g3
NtRp951
(dp952
g13
g1
(g14
g3
NtRp953
((lp954
g17
(g18
(I0
tS'b'
tRp955
((I1
(L1L
tg21
I00
(lp956
S'Id'
p957
at(Nttba(lp958
g17
(g25
(I0
tS'b'
tRp959
(I1
(L1L
tg21
I00
(lp960
g1
(g10
g3
NtRp961
(dp962
g13
g1
(g14
g3
NtRp963
((lp964
g17
(g18
(I0
tS'b'
tRp965
((I1
(L1L
tg21
I00
(lp966
S'_x_'
p967
at(Nttba(lp968
g17
(g25
(I0
tS'b'
tRp969
(I1
(L1L
tg21
I00
(lp970
g1
(g10
g3
NtRp971
(dp972
g13
g1
(g14
g3
NtRp973
((lp974
g17
(g18
(I0
tS'b'
tRp975
((I1
(L0L
tg21
I00
(lt(Nttba(lp976
g17
(g25
(I0
tS'b'
tRp977
(I1
(L0L
tg21
I00
(ltba(lp978
g975
atbsg93
S'x'
sbatba(lp979
g965
atbsg93
g957
sbatba(lp980
g955
atbsg93
g947
sbatba(lp981
g945
atbsg93
g937
sbatba(lp982
g17
(g18
(I0
tS'b'
tRp983
((I1
(L1L
tg21
I00
(lp984
g937
at(Nttbatbsg93
S'Expr'
p985
sbag1
(g10
g3
NtRp986
(dp987
g13
g1
(g14
g3
NtRp988
((lp989
g17
(g18
(I0
tS'b'
tRp990
((I1
(L0L
tg21
I00
(lt(Nttba(lp991
g17
(g25
(I0
tS'b'
tRp992
(I1
(L0L
tg21
I00
(ltba(lp993
g990
atbsg93
S'*'
sbag1
(g10
g3
NtRp994
(dp995
g13
g1
(g14
g3
NtRp996
((lp997
g17
(g18
(I0
tS'b'
tRp998
((I1
(L1L
tg21
I00
(lp999
S'Val'
p1000
at(Nttba(lp1001
g17
(g25
(I0
tS'b'
tRp1002
(I1
(L1L
tg21
I00
(lp1003
g1
(g10
g3
NtRp1004
(dp1005
g13
g1
(g14
g3
NtRp1006
((lp1007
g17
(g18
(I0
tS'b'
tRp1008
((I1
(L1L
tg21
I00
(lp1009
S'Number'
p1010
at(Nttba(lp1011
g17
(g25
(I0
tS'b'
tRp1012
(I1
(L1L
tg21
I00
(lp1013
g1
(g10
g3
NtRp1014
(dp1015
g13
g1
(g14
g3
NtRp1016
((lp1017
g17
(g18
(I0
tS'b'
tRp1018
((I1
(L1L
tg21
I00
(lp1019
S'Int'
p1020
at(Nttba(lp1021
g17
(g25
(I0
tS'b'
tRp1022
(I1
(L1L
tg21
I00
(lp1023
g1
(g10
g3
NtRp1024
(dp1025
g13
g1
(g14
g3
NtRp1026
((lp1027
g17
(g18
(I0
tS'b'
tRp1028
((I1
(L1L
tg21
I00
(lp1029
S'_4_'
p1030
at(Nttba(lp1031
g17
(g25
(I0
tS'b'
tRp1032
(I1
(L1L
tg21
I00
(lp1033
g1
(g10
g3
NtRp1034
(dp1035
g13
g1
(g14
g3
NtRp1036
((lp1037
g17
(g18
(I0
tS'b'
tRp1038
((I1
(L0L
tg21
I00
(lt(Nttba(lp1039
g17
(g25
(I0
tS'b'
tRp1040
(I1
(L0L
tg21
I00
(ltba(lp1041
g1038
atbsg93
S'4'
sbatba(lp1042
g1028
atbsg93
g1020
sbatba(lp1043
g1018
atbsg93
g1010
sbatba(lp1044
g1008
atbsg93
g1000
sbatba(lp1045
g17
(g18
(I0
tS'b'
tRp1046
((I1
(L1L
tg21
I00
(lp1047
g1000
at(Nttbatbsg93
S'Expr'
p1048
sbatba(lp1049
g923
atbsg93
g915
sbatba(lp1050
g913
atbsg93
S'Expr'
p1051
sbatba(lp1052
g749
atbsg93
g741
sbatba(lp1053
g739
atbsg93
S'Expr'
p1054
sbag1
(g10
g3
NtRp1055
(dp1056
g13
g1
(g14
g3
NtRp1057
((lp1058
g17
(g18
(I0
tS'b'
tRp1059
((I1
(L0L
tg21
I00
(lt(Nttba(lp1060
g17
(g25
(I0
tS'b'
tRp1061
(I1
(L0L
tg21
I00
(ltba(lp1062
g1059
atbsg93
S'-'
sbag1
(g10
g3
NtRp1063
(dp1064
g13
g1
(g14
g3
NtRp1065
((lp1066
g17
(g18
(I0
tS'b'
tRp1067
((I1
(L1L
tg21
I00
(lp1068
S'Dot_calc'
p1069
at(Nttba(lp1070
g17
(g25
(I0
tS'b'
tRp1071
(I1
(L1L
tg21
I00
(lp1072
g1
(g10
g3
NtRp1073
(dp1074
g13
g1
(g14
g3
NtRp1075
((lp1076
g17
(g18
(I0
tS'b'
tRp1077
((I1
(L3L
tg21
I00
(lp1078
S'Expr1'
p1079
aS'_/_'
p1080
aS'Expr2'
p1081
at(Nttba(lp1082
g17
(g25
(I0
tS'b'
tRp1083
(I1
(L3L
tg21
I00
(lp1084
g1
(g10
g3
NtRp1085
(dp1086
g13
g1
(g14
g3
NtRp1087
((lp1088
g17
(g18
(I0
tS'b'
tRp1089
((I1
(L1L
tg21
I00
(lp1090
S'Brackets'
p1091
at(Nttba(lp1092
g17
(g25
(I0
tS'b'
tRp1093
(I1
(L1L
tg21
I00
(lp1094
g1
(g10
g3
NtRp1095
(dp1096
g13
g1
(g14
g3
NtRp1097
((lp1098
g17
(g18
(I0
tS'b'
tRp1099
((I1
(L3L
tg21
I00
(lp1100
S'_(_'
p1101
aS'Expr'
p1102
aS'_)_'
p1103
at(Nttba(lp1104
g17
(g25
(I0
tS'b'
tRp1105
(I1
(L3L
tg21
I00
(lp1106
g1
(g10
g3
NtRp1107
(dp1108
g13
g1
(g14
g3
NtRp1109
((lp1110
g17
(g18
(I0
tS'b'
tRp1111
((I1
(L0L
tg21
I00
(lt(Nttba(lp1112
g17
(g25
(I0
tS'b'
tRp1113
(I1
(L0L
tg21
I00
(ltba(lp1114
g1111
atbsg93
S'('
sbag1
(g10
g3
NtRp1115
(dp1116
g13
g1
(g14
g3
NtRp1117
((lp1118
g17
(g18
(I0
tS'b'
tRp1119
((I1
(L1L
tg21
I00
(lp1120
S'Dash_calc'
p1121
at(Nttba(lp1122
g17
(g25
(I0
tS'b'
tRp1123
(I1
(L1L
tg21
I00
(lp1124
g1
(g10
g3
NtRp1125
(dp1126
g13
g1
(g14
g3
NtRp1127
((lp1128
g17
(g18
(I0
tS'b'
tRp1129
((I1
(L3L
tg21
I00
(lp1130
S'Expr1'
p1131
aS'_-_'
p1132
aS'Expr2'
p1133
at(Nttba(lp1134
g17
(g25
(I0
tS'b'
tRp1135
(I1
(L3L
tg21
I00
(lp1136
g1
(g10
g3
NtRp1137
(dp1138
g13
g1
(g14
g3
NtRp1139
((lp1140
g17
(g18
(I0
tS'b'
tRp1141
((I1
(L1L
tg21
I00
(lp1142
S'Val'
p1143
at(Nttba(lp1144
g17
(g25
(I0
tS'b'
tRp1145
(I1
(L1L
tg21
I00
(lp1146
g1
(g10
g3
NtRp1147
(dp1148
g13
g1
(g14
g3
NtRp1149
((lp1150
g17
(g18
(I0
tS'b'
tRp1151
((I1
(L1L
tg21
I00
(lp1152
S'Var'
p1153
at(Nttba(lp1154
g17
(g25
(I0
tS'b'
tRp1155
(I1
(L1L
tg21
I00
(lp1156
g1
(g10
g3
NtRp1157
(dp1158
g13
g1
(g14
g3
NtRp1159
((lp1160
g17
(g18
(I0
tS'b'
tRp1161
((I1
(L1L
tg21
I00
(lp1162
S'Id'
p1163
at(Nttba(lp1164
g17
(g25
(I0
tS'b'
tRp1165
(I1
(L1L
tg21
I00
(lp1166
g1
(g10
g3
NtRp1167
(dp1168
g13
g1
(g14
g3
NtRp1169
((lp1170
g17
(g18
(I0
tS'b'
tRp1171
((I1
(L1L
tg21
I00
(lp1172
S'_x_'
p1173
at(Nttba(lp1174
g17
(g25
(I0
tS'b'
tRp1175
(I1
(L1L
tg21
I00
(lp1176
g1
(g10
g3
NtRp1177
(dp1178
g13
g1
(g14
g3
NtRp1179
((lp1180
g17
(g18
(I0
tS'b'
tRp1181
((I1
(L0L
tg21
I00
(lt(Nttba(lp1182
g17
(g25
(I0
tS'b'
tRp1183
(I1
(L0L
tg21
I00
(ltba(lp1184
g1181
atbsg93
S'x'
sbatba(lp1185
g1171
atbsg93
g1163
sbatba(lp1186
g1161
atbsg93
g1153
sbatba(lp1187
g1151
atbsg93
g1143
sbatba(lp1188
g17
(g18
(I0
tS'b'
tRp1189
((I1
(L1L
tg21
I00
(lp1190
g1143
at(Nttbatbsg93
S'Expr'
p1191
sbag1
(g10
g3
NtRp1192
(dp1193
g13
g1
(g14
g3
NtRp1194
((lp1195
g17
(g18
(I0
tS'b'
tRp1196
((I1
(L0L
tg21
I00
(lt(Nttba(lp1197
g17
(g25
(I0
tS'b'
tRp1198
(I1
(L0L
tg21
I00
(ltba(lp1199
g1196
atbsg93
S'-'
sbag1
(g10
g3
NtRp1200
(dp1201
g13
g1
(g14
g3
NtRp1202
((lp1203
g17
(g18
(I0
tS'b'
tRp1204
((I1
(L1L
tg21
I00
(lp1205
S'Val'
p1206
at(Nttba(lp1207
g17
(g25
(I0
tS'b'
tRp1208
(I1
(L1L
tg21
I00
(lp1209
g1
(g10
g3
NtRp1210
(dp1211
g13
g1
(g14
g3
NtRp1212
((lp1213
g17
(g18
(I0
tS'b'
tRp1214
((I1
(L1L
tg21
I00
(lp1215
S'Number'
p1216
at(Nttba(lp1217
g17
(g25
(I0
tS'b'
tRp1218
(I1
(L1L
tg21
I00
(lp1219
g1
(g10
g3
NtRp1220
(dp1221
g13
g1
(g14
g3
NtRp1222
((lp1223
g17
(g18
(I0
tS'b'
tRp1224
((I1
(L1L
tg21
I00
(lp1225
S'Int'
p1226
at(Nttba(lp1227
g17
(g25
(I0
tS'b'
tRp1228
(I1
(L1L
tg21
I00
(lp1229
g1
(g10
g3
NtRp1230
(dp1231
g13
g1
(g14
g3
NtRp1232
((lp1233
g17
(g18
(I0
tS'b'
tRp1234
((I1
(L1L
tg21
I00
(lp1235
S'_3_'
p1236
at(Nttba(lp1237
g17
(g25
(I0
tS'b'
tRp1238
(I1
(L1L
tg21
I00
(lp1239
g1
(g10
g3
NtRp1240
(dp1241
g13
g1
(g14
g3
NtRp1242
((lp1243
g17
(g18
(I0
tS'b'
tRp1244
((I1
(L0L
tg21
I00
(lt(Nttba(lp1245
g17
(g25
(I0
tS'b'
tRp1246
(I1
(L0L
tg21
I00
(ltba(lp1247
g1244
atbsg93
S'3'
sbatba(lp1248
g1234
atbsg93
g1226
sbatba(lp1249
g1224
atbsg93
g1216
sbatba(lp1250
g1214
atbsg93
g1206
sbatba(lp1251
g17
(g18
(I0
tS'b'
tRp1252
((I1
(L1L
tg21
I00
(lp1253
g1206
at(Nttbatbsg93
S'Expr'
p1254
sbatba(lp1255
g1129
atbsg93
g1121
sbatba(lp1256
g1119
atbsg93
S'Expr'
p1257
sbag1
(g10
g3
NtRp1258
(dp1259
g13
g1
(g14
g3
NtRp1260
((lp1261
g17
(g18
(I0
tS'b'
tRp1262
((I1
(L0L
tg21
I00
(lt(Nttba(lp1263
g17
(g25
(I0
tS'b'
tRp1264
(I1
(L0L
tg21
I00
(ltba(lp1265
g1262
atbsg93
S')'
sbatba(lp1266
g1099
atbsg93
g1091
sbatba(lp1267
g1089
atbsg93
S'Expr'
p1268
sbag1
(g10
g3
NtRp1269
(dp1270
g13
g1
(g14
g3
NtRp1271
((lp1272
g17
(g18
(I0
tS'b'
tRp1273
((I1
(L0L
tg21
I00
(lt(Nttba(lp1274
g17
(g25
(I0
tS'b'
tRp1275
(I1
(L0L
tg21
I00
(ltba(lp1276
g1273
atbsg93
S'/'
sbag1
(g10
g3
NtRp1277
(dp1278
g13
g1
(g14
g3
NtRp1279
((lp1280
g17
(g18
(I0
tS'b'
tRp1281
((I1
(L1L
tg21
I00
(lp1282
S'Val'
p1283
at(Nttba(lp1284
g17
(g25
(I0
tS'b'
tRp1285
(I1
(L1L
tg21
I00
(lp1286
g1
(g10
g3
NtRp1287
(dp1288
g13
g1
(g14
g3
NtRp1289
((lp1290
g17
(g18
(I0
tS'b'
tRp1291
((I1
(L1L
tg21
I00
(lp1292
S'Var'
p1293
at(Nttba(lp1294
g17
(g25
(I0
tS'b'
tRp1295
(I1
(L1L
tg21
I00
(lp1296
g1
(g10
g3
NtRp1297
(dp1298
g13
g1
(g14
g3
NtRp1299
((lp1300
g17
(g18
(I0
tS'b'
tRp1301
((I1
(L1L
tg21
I00
(lp1302
S'Id'
p1303
at(Nttba(lp1304
g17
(g25
(I0
tS'b'
tRp1305
(I1
(L1L
tg21
I00
(lp1306
g1
(g10
g3
NtRp1307
(dp1308
g13
g1
(g14
g3
NtRp1309
((lp1310
g17
(g18
(I0
tS'b'
tRp1311
((I1
(L1L
tg21
I00
(lp1312
S'_x_'
p1313
at(Nttba(lp1314
g17
(g25
(I0
tS'b'
tRp1315
(I1
(L1L
tg21
I00
(lp1316
g1
(g10
g3
NtRp1317
(dp1318
g13
g1
(g14
g3
NtRp1319
((lp1320
g17
(g18
(I0
tS'b'
tRp1321
((I1
(L0L
tg21
I00
(lt(Nttba(lp1322
g17
(g25
(I0
tS'b'
tRp1323
(I1
(L0L
tg21
I00
(ltba(lp1324
g1321
atbsg93
S'x'
sbatba(lp1325
g1311
atbsg93
g1303
sbatba(lp1326
g1301
atbsg93
g1293
sbatba(lp1327
g1291
atbsg93
g1283
sbatba(lp1328
g17
(g18
(I0
tS'b'
tRp1329
((I1
(L1L
tg21
I00
(lp1330
g1283
at(Nttbatbsg93
S'Expr'
p1331
sbatba(lp1332
g1077
atbsg93
g1069
sbatba(lp1333
g1067
atbsg93
S'Expr'
p1334
sbatba(lp1335
g727
atbsg93
g719
sbatba(lp1336
g717
atbsg93
S'Expr'
p1337
sbag1
(g10
g3
NtRp1338
(dp1339
g13
g1
(g14
g3
NtRp1340
((lp1341
g17
(g18
(I0
tS'b'
tRp1342
((I1
(L0L
tg21
I00
(lt(Nttba(lp1343
g17
(g25
(I0
tS'b'
tRp1344
(I1
(L0L
tg21
I00
(ltba(lp1345
g1342
atbsg93
S'-'
sbag1
(g10
g3
NtRp1346
(dp1347
g13
g1
(g14
g3
NtRp1348
((lp1349
g17
(g18
(I0
tS'b'
tRp1350
((I1
(L1L
tg21
I00
(lp1351
S'Val'
p1352
at(Nttba(lp1353
g17
(g25
(I0
tS'b'
tRp1354
(I1
(L1L
tg21
I00
(lp1355
g1
(g10
g3
NtRp1356
(dp1357
g13
g1
(g14
g3
NtRp1358
((lp1359
g17
(g18
(I0
tS'b'
tRp1360
((I1
(L1L
tg21
I00
(lp1361
S'Number'
p1362
at(Nttba(lp1363
g17
(g25
(I0
tS'b'
tRp1364
(I1
(L1L
tg21
I00
(lp1365
g1
(g10
g3
NtRp1366
(dp1367
g13
g1
(g14
g3
NtRp1368
((lp1369
g17
(g18
(I0
tS'b'
tRp1370
((I1
(L1L
tg21
I00
(lp1371
S'Float'
p1372
at(Nttba(lp1373
g17
(g25
(I0
tS'b'
tRp1374
(I1
(L1L
tg21
I00
(lp1375
g1
(g10
g3
NtRp1376
(dp1377
g13
g1
(g14
g3
NtRp1378
((lp1379
g17
(g18
(I0
tS'b'
tRp1380
((I1
(L1L
tg21
I00
(lp1381
S'_1.3e2_'
p1382
at(Nttba(lp1383
g17
(g25
(I0
tS'b'
tRp1384
(I1
(L1L
tg21
I00
(lp1385
g1
(g10
g3
NtRp1386
(dp1387
g13
g1
(g14
g3
NtRp1388
((lp1389
g17
(g18
(I0
tS'b'
tRp1390
((I1
(L0L
tg21
I00
(lt(Nttba(lp1391
g17
(g25
(I0
tS'b'
tRp1392
(I1
(L0L
tg21
I00
(ltba(lp1393
g1390
atbsg93
S'1.3e2'
p1394
sbatba(lp1395
g1380
atbsg93
g1372
sbatba(lp1396
g1370
atbsg93
g1362
sbatba(lp1397
g1360
atbsg93
g1352
sbatba(lp1398
g17
(g18
(I0
tS'b'
tRp1399
((I1
(L1L
tg21
I00
(lp1400
g1352
at(Nttbatbsg93
S'Expr'
p1401
sbatba(lp1402
g705
atbsg93
g697
sbatba(lp1403
g695
atbsg93
S'Expr'
p1404
sbag1
(g10
g3
NtRp1405
(dp1406
g13
g1
(g14
g3
NtRp1407
((lp1408
g17
(g18
(I0
tS'b'
tRp1409
((I1
(L0L
tg21
I00
(lt(Nttba(lp1410
g17
(g25
(I0
tS'b'
tRp1411
(I1
(L0L
tg21
I00
(ltba(lp1412
g1409
atbsg93
S'+'
sbag1
(g10
g3
NtRp1413
(dp1414
g13
g1
(g14
g3
NtRp1415
((lp1416
g17
(g18
(I0
tS'b'
tRp1417
((I1
(L1L
tg21
I00
(lp1418
S'Val'
p1419
at(Nttba(lp1420
g17
(g25
(I0
tS'b'
tRp1421
(I1
(L1L
tg21
I00
(lp1422
g1
(g10
g3
NtRp1423
(dp1424
g13
g1
(g14
g3
NtRp1425
((lp1426
g17
(g18
(I0
tS'b'
tRp1427
((I1
(L1L
tg21
I00
(lp1428
S'Number'
p1429
at(Nttba(lp1430
g17
(g25
(I0
tS'b'
tRp1431
(I1
(L1L
tg21
I00
(lp1432
g1
(g10
g3
NtRp1433
(dp1434
g13
g1
(g14
g3
NtRp1435
((lp1436
g17
(g18
(I0
tS'b'
tRp1437
((I1
(L1L
tg21
I00
(lp1438
S'Int'
p1439
at(Nttba(lp1440
g17
(g25
(I0
tS'b'
tRp1441
(I1
(L1L
tg21
I00
(lp1442
g1
(g10
g3
NtRp1443
(dp1444
g13
g1
(g14
g3
NtRp1445
((lp1446
g17
(g18
(I0
tS'b'
tRp1447
((I1
(L1L
tg21
I00
(lp1448
S'_2_'
p1449
at(Nttba(lp1450
g17
(g25
(I0
tS'b'
tRp1451
(I1
(L1L
tg21
I00
(lp1452
g1
(g10
g3
NtRp1453
(dp1454
g13
g1
(g14
g3
NtRp1455
((lp1456
g17
(g18
(I0
tS'b'
tRp1457
((I1
(L0L
tg21
I00
(lt(Nttba(lp1458
g17
(g25
(I0
tS'b'
tRp1459
(I1
(L0L
tg21
I00
(ltba(lp1460
g1457
atbsg93
S'2'
sbatba(lp1461
g1447
atbsg93
g1439
sbatba(lp1462
g1437
atbsg93
g1429
sbatba(lp1463
g1427
atbsg93
g1419
sbatba(lp1464
g17
(g18
(I0
tS'b'
tRp1465
((I1
(L1L
tg21
I00
(lp1466
g1419
at(Nttbatbsg93
S'Expr'
p1467
sbatba(lp1468
g683
atbsg93
g675
sbatba(lp1469
g673
atbsg93
S'Expr'
p1470
sbag1
(g10
g3
NtRp1471
(dp1472
g13
g1
(g14
g3
NtRp1473
((lp1474
g17
(g18
(I0
tS'b'
tRp1475
((I1
(L0L
tg21
I00
(lt(Nttba(lp1476
g17
(g25
(I0
tS'b'
tRp1477
(I1
(L0L
tg21
I00
(ltba(lp1478
g1475
atbsg93
S'+'
sbag1
(g10
g3
NtRp1479
(dp1480
g13
g1
(g14
g3
NtRp1481
((lp1482
g17
(g18
(I0
tS'b'
tRp1483
((I1
(L1L
tg21
I00
(lp1484
S'Val'
p1485
at(Nttba(lp1486
g17
(g25
(I0
tS'b'
tRp1487
(I1
(L1L
tg21
I00
(lp1488
g1
(g10
g3
NtRp1489
(dp1490
g13
g1
(g14
g3
NtRp1491
((lp1492
g17
(g18
(I0
tS'b'
tRp1493
((I1
(L1L
tg21
I00
(lp1494
S'Number'
p1495
at(Nttba(lp1496
g17
(g25
(I0
tS'b'
tRp1497
(I1
(L1L
tg21
I00
(lp1498
g1
(g10
g3
NtRp1499
(dp1500
g13
g1
(g14
g3
NtRp1501
((lp1502
g17
(g18
(I0
tS'b'
tRp1503
((I1
(L1L
tg21
I00
(lp1504
S'Int'
p1505
at(Nttba(lp1506
g17
(g25
(I0
tS'b'
tRp1507
(I1
(L1L
tg21
I00
(lp1508
g1
(g10
g3
NtRp1509
(dp1510
g13
g1
(g14
g3
NtRp1511
((lp1512
g17
(g18
(I0
tS'b'
tRp1513
((I1
(L1L
tg21
I00
(lp1514
S'_5_'
p1515
at(Nttba(lp1516
g17
(g25
(I0
tS'b'
tRp1517
(I1
(L1L
tg21
I00
(lp1518
g1
(g10
g3
NtRp1519
(dp1520
g13
g1
(g14
g3
NtRp1521
((lp1522
g17
(g18
(I0
tS'b'
tRp1523
((I1
(L0L
tg21
I00
(lt(Nttba(lp1524
g17
(g25
(I0
tS'b'
tRp1525
(I1
(L0L
tg21
I00
(ltba(lp1526
g1523
atbsg93
S'5'
sbatba(lp1527
g1513
atbsg93
g1505
sbatba(lp1528
g1503
atbsg93
g1495
sbatba(lp1529
g1493
atbsg93
g1485
sbatba(lp1530
g17
(g18
(I0
tS'b'
tRp1531
((I1
(L1L
tg21
I00
(lp1532
g1485
at(Nttbatbsg93
S'Expr'
p1533
sbatba(lp1534
g661
atbsg93
g653
sbatba(lp1535
g651
atbsg93
S'Expr'
p1536
sbatba(lp1537
g641
atbsg93
g624
sbatba(lp1538
g621
atbsg93
g612
sbag1
(g10
g3
NtRp1539
(dp1540
g13
g1
(g14
g3
NtRp1541
((lp1542
g17
(g18
(I0
tS'b'
tRp1543
((I1
(L0L
tg21
I00
(lt(Nttba(lp1544
g17
(g25
(I0
tS'b'
tRp1545
(I1
(L0L
tg21
I00
(ltba(lp1546
g1543
atbsg93
S';'
sbatba(lp1547
g610
atbsg93
g602
sbatba(lp1548
g600
atbsg93
S'Stmt'
p1549
sbatba(lp1550
g490
atbsg93
g461
sbag1
(g10
g3
NtRp1551
(dp1552
g13
g1
(g14
g3
NtRp1553
((lp1554
g17
(g18
(I0
tS'b'
tRp1555
((I1
(L1L
tg21
I00
(lp1556
S'_$blockend_'
p1557
at(Nttba(lp1558
g17
(g25
(I0
tS'b'
tRp1559
(I1
(L1L
tg21
I00
(lp1560
g1
(g10
g3
NtRp1561
(dp1562
g13
g1
(g14
g3
NtRp1563
((lp1564
g17
(g18
(I0
tS'b'
tRp1565
((I1
(L0L
tg21
I00
(lt(Nttba(lp1566
g17
(g25
(I0
tS'b'
tRp1567
(I1
(L0L
tg21
I00
(ltba(lp1568
g1565
atbsg93
S'$blockend'
p1569
sbatba(lp1570
g1555
atbsg93
g462
sbatba(lp1571
g458
atbsg93
g317
sbatba(lp1572
g314
atbsg93
g306
sbatba(lp1573
g304
atbsg93
S'Stmt'
p1574
sbag1
(g10
g3
NtRp1575
(dp1576
g13
g1
(g14
g3
NtRp1577
((lp1578
g17
(g18
(I0
tS'b'
tRp1579
((I1
(L1L
tg21
I00
(lp1580
S'Block_stmt'
p1581
at(Nttba(lp1582
g17
(g25
(I0
tS'b'
tRp1583
(I1
(L1L
tg21
I00
(lp1584
g1
(g10
g3
NtRp1585
(dp1586
g13
g1
(g14
g3
NtRp1587
((lp1588
g17
(g18
(I0
tS'b'
tRp1589
((I1
(L1L
tg21
I00
(lp1590
S'Ifelse'
p1591
at(Nttba(lp1592
g17
(g25
(I0
tS'b'
tRp1593
(I1
(L1L
tg21
I00
(lp1594
g1
(g10
g3
NtRp1595
(dp1596
g13
g1
(g14
g3
NtRp1597
((lp1598
g17
(g18
(I0
tS'b'
tRp1599
((I1
(L2L
tg21
I00
(lp1600
S'If'
p1601
aS'Block'
p1602
at(Nttba(lp1603
g17
(g25
(I0
tS'b'
tRp1604
(I1
(L2L
tg21
I00
(lp1605
g1
(g10
g3
NtRp1606
(dp1607
g13
g1
(g14
g3
NtRp1608
((lp1609
g17
(g18
(I0
tS'b'
tRp1610
((I1
(L2L
tg21
I00
(lp1611
S'_if_'
p1612
aS'Expr'
p1613
at(Nttba(lp1614
g17
(g25
(I0
tS'b'
tRp1615
(I1
(L2L
tg21
I00
(lp1616
g1
(g10
g3
NtRp1617
(dp1618
g13
g1
(g14
g3
NtRp1619
((lp1620
g17
(g18
(I0
tS'b'
tRp1621
((I1
(L0L
tg21
I00
(lt(Nttba(lp1622
g17
(g25
(I0
tS'b'
tRp1623
(I1
(L0L
tg21
I00
(ltba(lp1624
g1621
atbsg93
S'if'
p1625
sbag1
(g10
g3
NtRp1626
(dp1627
g13
g1
(g14
g3
NtRp1628
((lp1629
g17
(g18
(I0
tS'b'
tRp1630
((I1
(L1L
tg21
I00
(lp1631
S'Comparison'
p1632
at(Nttba(lp1633
g17
(g25
(I0
tS'b'
tRp1634
(I1
(L1L
tg21
I00
(lp1635
g1
(g10
g3
NtRp1636
(dp1637
g13
g1
(g14
g3
NtRp1638
((lp1639
g17
(g18
(I0
tS'b'
tRp1640
((I1
(L3L
tg21
I00
(lp1641
S'Expr1'
p1642
aS'Op_cmp'
p1643
aS'Expr2'
p1644
at(Nttba(lp1645
g17
(g25
(I0
tS'b'
tRp1646
(I1
(L3L
tg21
I00
(lp1647
g1
(g10
g3
NtRp1648
(dp1649
g13
g1
(g14
g3
NtRp1650
((lp1651
g17
(g18
(I0
tS'b'
tRp1652
((I1
(L1L
tg21
I00
(lp1653
S'Val'
p1654
at(Nttba(lp1655
g17
(g25
(I0
tS'b'
tRp1656
(I1
(L1L
tg21
I00
(lp1657
g1
(g10
g3
NtRp1658
(dp1659
g13
g1
(g14
g3
NtRp1660
((lp1661
g17
(g18
(I0
tS'b'
tRp1662
((I1
(L1L
tg21
I00
(lp1663
S'Var'
p1664
at(Nttba(lp1665
g17
(g25
(I0
tS'b'
tRp1666
(I1
(L1L
tg21
I00
(lp1667
g1
(g10
g3
NtRp1668
(dp1669
g13
g1
(g14
g3
NtRp1670
((lp1671
g17
(g18
(I0
tS'b'
tRp1672
((I1
(L1L
tg21
I00
(lp1673
S'Id'
p1674
at(Nttba(lp1675
g17
(g25
(I0
tS'b'
tRp1676
(I1
(L1L
tg21
I00
(lp1677
g1
(g10
g3
NtRp1678
(dp1679
g13
g1
(g14
g3
NtRp1680
((lp1681
g17
(g18
(I0
tS'b'
tRp1682
((I1
(L1L
tg21
I00
(lp1683
S'___name___'
p1684
at(Nttba(lp1685
g17
(g25
(I0
tS'b'
tRp1686
(I1
(L1L
tg21
I00
(lp1687
g1
(g10
g3
NtRp1688
(dp1689
g13
g1
(g14
g3
NtRp1690
((lp1691
g17
(g18
(I0
tS'b'
tRp1692
((I1
(L0L
tg21
I00
(lt(Nttba(lp1693
g17
(g25
(I0
tS'b'
tRp1694
(I1
(L0L
tg21
I00
(ltba(lp1695
g1692
atbsg93
S'__name__'
p1696
sbatba(lp1697
g1682
atbsg93
g1674
sbatba(lp1698
g1672
atbsg93
g1664
sbatba(lp1699
g1662
atbsg93
g1654
sbatba(lp1700
g17
(g18
(I0
tS'b'
tRp1701
((I1
(L1L
tg21
I00
(lp1702
g1654
at(Nttbatbsg93
S'Expr'
p1703
sbag1
(g10
g3
NtRp1704
(dp1705
g13
g1
(g14
g3
NtRp1706
((lp1707
g17
(g18
(I0
tS'b'
tRp1708
((I1
(L1L
tg21
I00
(lp1709
S'_==_'
p1710
at(Nttba(lp1711
g17
(g25
(I0
tS'b'
tRp1712
(I1
(L1L
tg21
I00
(lp1713
g1
(g10
g3
NtRp1714
(dp1715
g13
g1
(g14
g3
NtRp1716
((lp1717
g17
(g18
(I0
tS'b'
tRp1718
((I1
(L0L
tg21
I00
(lt(Nttba(lp1719
g17
(g25
(I0
tS'b'
tRp1720
(I1
(L0L
tg21
I00
(ltba(lp1721
g1718
atbsg93
S'=='
p1722
sbatba(lp1723
g1708
atbsg93
g1643
sbag1
(g10
g3
NtRp1724
(dp1725
g13
g1
(g14
g3
NtRp1726
((lp1727
g17
(g18
(I0
tS'b'
tRp1728
((I1
(L1L
tg21
I00
(lp1729
S'Val'
p1730
at(Nttba(lp1731
g17
(g25
(I0
tS'b'
tRp1732
(I1
(L1L
tg21
I00
(lp1733
g1
(g10
g3
NtRp1734
(dp1735
g13
g1
(g14
g3
NtRp1736
((lp1737
g17
(g18
(I0
tS'b'
tRp1738
((I1
(L1L
tg21
I00
(lp1739
S'String'
p1740
at(Nttba(lp1741
g17
(g25
(I0
tS'b'
tRp1742
(I1
(L1L
tg21
I00
(lp1743
g1
(g10
g3
NtRp1744
(dp1745
g13
g1
(g14
g3
NtRp1746
((lp1747
g17
(g18
(I0
tS'b'
tRp1748
((I1
(L1L
tg21
I00
(lp1749
S'Str_val'
p1750
at(Nttba(lp1751
g17
(g25
(I0
tS'b'
tRp1752
(I1
(L1L
tg21
I00
(lp1753
g1
(g10
g3
NtRp1754
(dp1755
g13
g1
(g14
g3
NtRp1756
((lp1757
g17
(g18
(I0
tS'b'
tRp1758
((I1
(L1L
tg21
I00
(lp1759
S"_'__main__'_"
p1760
at(Nttba(lp1761
g17
(g25
(I0
tS'b'
tRp1762
(I1
(L1L
tg21
I00
(lp1763
g1
(g10
g3
NtRp1764
(dp1765
g13
g1
(g14
g3
NtRp1766
((lp1767
g17
(g18
(I0
tS'b'
tRp1768
((I1
(L0L
tg21
I00
(lt(Nttba(lp1769
g17
(g25
(I0
tS'b'
tRp1770
(I1
(L0L
tg21
I00
(ltba(lp1771
g1768
atbsg93
S'"__main__"'
p1772
sbatba(lp1773
g1758
atbsg93
g1750
sbatba(lp1774
g1748
atbsg93
g1740
sbatba(lp1775
g1738
atbsg93
g1730
sbatba(lp1776
g17
(g18
(I0
tS'b'
tRp1777
((I1
(L1L
tg21
I00
(lp1778
g1730
at(Nttbatbsg93
S'Expr'
p1779
sbatba(lp1780
g1640
atbsg93
g1632
sbatba(lp1781
g1630
atbsg93
S'Expr'
p1782
sbatba(lp1783
g1610
atbsg93
g1601
sbag1
(g10
g3
NtRp1784
(dp1785
g13
g1
(g14
g3
NtRp1786
((lp1787
g17
(g18
(I0
tS'b'
tRp1788
((I1
(L3L
tg21
I00
(lp1789
S'Blockbegin'
p1790
aS'Prog'
p1791
aS'Blockend'
p1792
at(Nttba(lp1793
g17
(g25
(I0
tS'b'
tRp1794
(I1
(L3L
tg21
I00
(lp1795
g1
(g10
g3
NtRp1796
(dp1797
g13
g1
(g14
g3
NtRp1798
((lp1799
g17
(g18
(I0
tS'b'
tRp1800
((I1
(L1L
tg21
I00
(lp1801
S'_:$blockbegin_'
p1802
at(Nttba(lp1803
g17
(g25
(I0
tS'b'
tRp1804
(I1
(L1L
tg21
I00
(lp1805
g1
(g10
g3
NtRp1806
(dp1807
g13
g1
(g14
g3
NtRp1808
((lp1809
g17
(g18
(I0
tS'b'
tRp1810
((I1
(L0L
tg21
I00
(lt(Nttba(lp1811
g17
(g25
(I0
tS'b'
tRp1812
(I1
(L0L
tg21
I00
(ltba(lp1813
g1810
atbsg93
S':$blockbegin'
p1814
sbatba(lp1815
g1800
atbsg93
g1790
sbag1
(g10
g3
NtRp1816
(dp1817
g13
g1
(g14
g3
NtRp1818
((lp1819
g17
(g18
(I0
tS'b'
tRp1820
((I1
(L4L
tg21
I00
(lp1821
S'Stmt1'
p1822
aS'Stmt2'
p1823
aS'Stmt3'
p1824
aS'Stmt4'
p1825
at(Nttba(lp1826
g17
(g25
(I0
tS'b'
tRp1827
(I1
(L4L
tg21
I00
(lp1828
g1
(g10
g3
NtRp1829
(dp1830
g13
g1
(g14
g3
NtRp1831
((lp1832
g17
(g18
(I0
tS'b'
tRp1833
((I1
(L1L
tg21
I00
(lp1834
S'Single_stmt'
p1835
at(Nttba(lp1836
g17
(g25
(I0
tS'b'
tRp1837
(I1
(L1L
tg21
I00
(lp1838
g1
(g10
g3
NtRp1839
(dp1840
g13
g1
(g14
g3
NtRp1841
((lp1842
g17
(g18
(I0
tS'b'
tRp1843
((I1
(L2L
tg21
I00
(lp1844
S'Assign_stmt'
p1845
aS'_;_'
p1846
at(Nttba(lp1847
g17
(g25
(I0
tS'b'
tRp1848
(I1
(L2L
tg21
I00
(lp1849
g1
(g10
g3
NtRp1850
(dp1851
g13
g1
(g14
g3
NtRp1852
((lp1853
g17
(g18
(I0
tS'b'
tRp1854
((I1
(L1L
tg21
I00
(lp1855
S'Assign'
p1856
at(Nttba(lp1857
g17
(g25
(I0
tS'b'
tRp1858
(I1
(L1L
tg21
I00
(lp1859
g1
(g10
g3
NtRp1860
(dp1861
g13
g1
(g14
g3
NtRp1862
((lp1863
g17
(g18
(I0
tS'b'
tRp1864
((I1
(L3L
tg21
I00
(lp1865
S'Varlist'
p1866
aS'_=_'
p1867
aS'Exprlist'
p1868
at(Nttba(lp1869
g17
(g25
(I0
tS'b'
tRp1870
(I1
(L3L
tg21
I00
(lp1871
g1
(g10
g3
NtRp1872
(dp1873
g13
g1
(g14
g3
NtRp1874
((lp1875
g17
(g18
(I0
tS'b'
tRp1876
((I1
(L1L
tg21
I00
(lp1877
S'Vartuple'
p1878
at(Nttba(lp1879
g17
(g25
(I0
tS'b'
tRp1880
(I1
(L1L
tg21
I00
(lp1881
g1
(g10
g3
NtRp1882
(dp1883
g13
g1
(g14
g3
NtRp1884
((lp1885
g17
(g18
(I0
tS'b'
tRp1886
((I1
(L1L
tg21
I00
(lp1887
S'Var'
p1888
at(Nttba(lp1889
g17
(g25
(I0
tS'b'
tRp1890
(I1
(L1L
tg21
I00
(lp1891
g1
(g10
g3
NtRp1892
(dp1893
g13
g1
(g14
g3
NtRp1894
((lp1895
g17
(g18
(I0
tS'b'
tRp1896
((I1
(L1L
tg21
I00
(lp1897
S'Id'
p1898
at(Nttba(lp1899
g17
(g25
(I0
tS'b'
tRp1900
(I1
(L1L
tg21
I00
(lp1901
g1
(g10
g3
NtRp1902
(dp1903
g13
g1
(g14
g3
NtRp1904
((lp1905
g17
(g18
(I0
tS'b'
tRp1906
((I1
(L1L
tg21
I00
(lp1907
S'_L_'
p1908
at(Nttba(lp1909
g17
(g25
(I0
tS'b'
tRp1910
(I1
(L1L
tg21
I00
(lp1911
g1
(g10
g3
NtRp1912
(dp1913
g13
g1
(g14
g3
NtRp1914
((lp1915
g17
(g18
(I0
tS'b'
tRp1916
((I1
(L0L
tg21
I00
(lt(Nttba(lp1917
g17
(g25
(I0
tS'b'
tRp1918
(I1
(L0L
tg21
I00
(ltba(lp1919
g1916
atbsg93
S'L'
sbatba(lp1920
g1906
atbsg93
g1898
sbatba(lp1921
g1896
atbsg93
g1888
sbatba(lp1922
g1886
atbsg93
g1878
sbatba(lp1923
g1876
atbsg93
g1866
sbag1
(g10
g3
NtRp1924
(dp1925
g13
g1
(g14
g3
NtRp1926
((lp1927
g17
(g18
(I0
tS'b'
tRp1928
((I1
(L0L
tg21
I00
(lt(Nttba(lp1929
g17
(g25
(I0
tS'b'
tRp1930
(I1
(L0L
tg21
I00
(ltba(lp1931
g1928
atbsg93
S'='
sbag1
(g10
g3
NtRp1932
(dp1933
g13
g1
(g14
g3
NtRp1934
((lp1935
g17
(g18
(I0
tS'b'
tRp1936
((I1
(L1L
tg21
I00
(lp1937
S'Expr'
p1938
at(Nttba(lp1939
g17
(g25
(I0
tS'b'
tRp1940
(I1
(L1L
tg21
I00
(lp1941
g1
(g10
g3
NtRp1942
(dp1943
g13
g1
(g14
g3
NtRp1944
((lp1945
g17
(g18
(I0
tS'b'
tRp1946
((I1
(L1L
tg21
I00
(lp1947
S'Dot_calc'
p1948
at(Nttba(lp1949
g17
(g25
(I0
tS'b'
tRp1950
(I1
(L1L
tg21
I00
(lp1951
g1
(g10
g3
NtRp1952
(dp1953
g13
g1
(g14
g3
NtRp1954
((lp1955
g17
(g18
(I0
tS'b'
tRp1956
((I1
(L3L
tg21
I00
(lp1957
S'Expr1'
p1958
aS'_*_'
p1959
aS'Expr2'
p1960
at(Nttba(lp1961
g17
(g25
(I0
tS'b'
tRp1962
(I1
(L3L
tg21
I00
(lp1963
g1
(g10
g3
NtRp1964
(dp1965
g13
g1
(g14
g3
NtRp1966
((lp1967
g17
(g18
(I0
tS'b'
tRp1968
((I1
(L1L
tg21
I00
(lp1969
S'Val'
p1970
at(Nttba(lp1971
g17
(g25
(I0
tS'b'
tRp1972
(I1
(L1L
tg21
I00
(lp1973
g1
(g10
g3
NtRp1974
(dp1975
g13
g1
(g14
g3
NtRp1976
((lp1977
g17
(g18
(I0
tS'b'
tRp1978
((I1
(L1L
tg21
I00
(lp1979
S'List'
p1980
at(Nttba(lp1981
g17
(g25
(I0
tS'b'
tRp1982
(I1
(L1L
tg21
I00
(lp1983
g1
(g10
g3
NtRp1984
(dp1985
g13
g1
(g14
g3
NtRp1986
((lp1987
g17
(g18
(I0
tS'b'
tRp1988
((I1
(L3L
tg21
I00
(lp1989
S'_[_'
p1990
aS'Exprlist'
p1991
aS'_]_'
p1992
at(Nttba(lp1993
g17
(g25
(I0
tS'b'
tRp1994
(I1
(L3L
tg21
I00
(lp1995
g1
(g10
g3
NtRp1996
(dp1997
g13
g1
(g14
g3
NtRp1998
((lp1999
g17
(g18
(I0
tS'b'
tRp2000
((I1
(L0L
tg21
I00
(lt(Nttba(lp2001
g17
(g25
(I0
tS'b'
tRp2002
(I1
(L0L
tg21
I00
(ltba(lp2003
g2000
atbsg93
S'['
sbag1
(g10
g3
NtRp2004
(dp2005
g13
g1
(g14
g3
NtRp2006
((lp2007
g17
(g18
(I0
tS'b'
tRp2008
((I1
(L1L
tg21
I00
(lp2009
S'Expr'
p2010
at(Nttba(lp2011
g17
(g25
(I0
tS'b'
tRp2012
(I1
(L1L
tg21
I00
(lp2013
g1
(g10
g3
NtRp2014
(dp2015
g13
g1
(g14
g3
NtRp2016
((lp2017
g17
(g18
(I0
tS'b'
tRp2018
((I1
(L1L
tg21
I00
(lp2019
S'Val'
p2020
at(Nttba(lp2021
g17
(g25
(I0
tS'b'
tRp2022
(I1
(L1L
tg21
I00
(lp2023
g1
(g10
g3
NtRp2024
(dp2025
g13
g1
(g14
g3
NtRp2026
((lp2027
g17
(g18
(I0
tS'b'
tRp2028
((I1
(L1L
tg21
I00
(lp2029
S'Number'
p2030
at(Nttba(lp2031
g17
(g25
(I0
tS'b'
tRp2032
(I1
(L1L
tg21
I00
(lp2033
g1
(g10
g3
NtRp2034
(dp2035
g13
g1
(g14
g3
NtRp2036
((lp2037
g17
(g18
(I0
tS'b'
tRp2038
((I1
(L1L
tg21
I00
(lp2039
S'Int'
p2040
at(Nttba(lp2041
g17
(g25
(I0
tS'b'
tRp2042
(I1
(L1L
tg21
I00
(lp2043
g1
(g10
g3
NtRp2044
(dp2045
g13
g1
(g14
g3
NtRp2046
((lp2047
g17
(g18
(I0
tS'b'
tRp2048
((I1
(L1L
tg21
I00
(lp2049
S'_0_'
p2050
at(Nttba(lp2051
g17
(g25
(I0
tS'b'
tRp2052
(I1
(L1L
tg21
I00
(lp2053
g1
(g10
g3
NtRp2054
(dp2055
g13
g1
(g14
g3
NtRp2056
((lp2057
g17
(g18
(I0
tS'b'
tRp2058
((I1
(L0L
tg21
I00
(lt(Nttba(lp2059
g17
(g25
(I0
tS'b'
tRp2060
(I1
(L0L
tg21
I00
(ltba(lp2061
g2058
atbsg93
S'0'
sbatba(lp2062
g2048
atbsg93
g2040
sbatba(lp2063
g2038
atbsg93
g2030
sbatba(lp2064
g2028
atbsg93
g2020
sbatba(lp2065
g17
(g18
(I0
tS'b'
tRp2066
((I1
(L1L
tg21
I00
(lp2067
g2020
at(Nttbatbsg93
S'Expr'
p2068
sbatba(lp2069
g2008
atbsg93
g1991
sbag1
(g10
g3
NtRp2070
(dp2071
g13
g1
(g14
g3
NtRp2072
((lp2073
g17
(g18
(I0
tS'b'
tRp2074
((I1
(L0L
tg21
I00
(lt(Nttba(lp2075
g17
(g25
(I0
tS'b'
tRp2076
(I1
(L0L
tg21
I00
(ltba(lp2077
g2074
atbsg93
S']'
sbatba(lp2078
g1988
atbsg93
g1980
sbatba(lp2079
g1978
atbsg93
g1970
sbatba(lp2080
g17
(g18
(I0
tS'b'
tRp2081
((I1
(L1L
tg21
I00
(lp2082
g1970
at(Nttbatbsg93
S'Expr'
p2083
sbag1
(g10
g3
NtRp2084
(dp2085
g13
g1
(g14
g3
NtRp2086
((lp2087
g17
(g18
(I0
tS'b'
tRp2088
((I1
(L0L
tg21
I00
(lt(Nttba(lp2089
g17
(g25
(I0
tS'b'
tRp2090
(I1
(L0L
tg21
I00
(ltba(lp2091
g2088
atbsg93
S'*'
sbag1
(g10
g3
NtRp2092
(dp2093
g13
g1
(g14
g3
NtRp2094
((lp2095
g17
(g18
(I0
tS'b'
tRp2096
((I1
(L1L
tg21
I00
(lp2097
S'Val'
p2098
at(Nttba(lp2099
g17
(g25
(I0
tS'b'
tRp2100
(I1
(L1L
tg21
I00
(lp2101
g1
(g10
g3
NtRp2102
(dp2103
g13
g1
(g14
g3
NtRp2104
((lp2105
g17
(g18
(I0
tS'b'
tRp2106
((I1
(L1L
tg21
I00
(lp2107
S'Number'
p2108
at(Nttba(lp2109
g17
(g25
(I0
tS'b'
tRp2110
(I1
(L1L
tg21
I00
(lp2111
g1
(g10
g3
NtRp2112
(dp2113
g13
g1
(g14
g3
NtRp2114
((lp2115
g17
(g18
(I0
tS'b'
tRp2116
((I1
(L1L
tg21
I00
(lp2117
S'Int'
p2118
at(Nttba(lp2119
g17
(g25
(I0
tS'b'
tRp2120
(I1
(L1L
tg21
I00
(lp2121
g1
(g10
g3
NtRp2122
(dp2123
g13
g1
(g14
g3
NtRp2124
((lp2125
g17
(g18
(I0
tS'b'
tRp2126
((I1
(L1L
tg21
I00
(lp2127
S'_10_'
p2128
at(Nttba(lp2129
g17
(g25
(I0
tS'b'
tRp2130
(I1
(L1L
tg21
I00
(lp2131
g1
(g10
g3
NtRp2132
(dp2133
g13
g1
(g14
g3
NtRp2134
((lp2135
g17
(g18
(I0
tS'b'
tRp2136
((I1
(L0L
tg21
I00
(lt(Nttba(lp2137
g17
(g25
(I0
tS'b'
tRp2138
(I1
(L0L
tg21
I00
(ltba(lp2139
g2136
atbsg93
S'10'
p2140
sbatba(lp2141
g2126
atbsg93
g2118
sbatba(lp2142
g2116
atbsg93
g2108
sbatba(lp2143
g2106
atbsg93
g2098
sbatba(lp2144
g17
(g18
(I0
tS'b'
tRp2145
((I1
(L1L
tg21
I00
(lp2146
g2098
at(Nttbatbsg93
S'Expr'
p2147
sbatba(lp2148
g1956
atbsg93
g1948
sbatba(lp2149
g1946
atbsg93
S'Expr'
p2150
sbatba(lp2151
g1936
atbsg93
g1868
sbatba(lp2152
g1864
atbsg93
g1856
sbatba(lp2153
g1854
atbsg93
g1845
sbag1
(g10
g3
NtRp2154
(dp2155
g13
g1
(g14
g3
NtRp2156
((lp2157
g17
(g18
(I0
tS'b'
tRp2158
((I1
(L0L
tg21
I00
(lt(Nttba(lp2159
g17
(g25
(I0
tS'b'
tRp2160
(I1
(L0L
tg21
I00
(ltba(lp2161
g2158
atbsg93
S';'
sbatba(lp2162
g1843
atbsg93
g1835
sbatba(lp2163
g1833
atbsg93
S'Stmt'
p2164
sbag1
(g10
g3
NtRp2165
(dp2166
g13
g1
(g14
g3
NtRp2167
((lp2168
g17
(g18
(I0
tS'b'
tRp2169
((I1
(L1L
tg21
I00
(lp2170
S'Block_stmt'
p2171
at(Nttba(lp2172
g17
(g25
(I0
tS'b'
tRp2173
(I1
(L1L
tg21
I00
(lp2174
g1
(g10
g3
NtRp2175
(dp2176
g13
g1
(g14
g3
NtRp2177
((lp2178
g17
(g18
(I0
tS'b'
tRp2179
((I1
(L2L
tg21
I00
(lp2180
S'Block_head'
p2181
aS'Block'
p2182
at(Nttba(lp2183
g17
(g25
(I0
tS'b'
tRp2184
(I1
(L2L
tg21
I00
(lp2185
g1
(g10
g3
NtRp2186
(dp2187
g13
g1
(g14
g3
NtRp2188
((lp2189
g17
(g18
(I0
tS'b'
tRp2190
((I1
(L1L
tg21
I00
(lp2191
S'Loop'
p2192
at(Nttba(lp2193
g17
(g25
(I0
tS'b'
tRp2194
(I1
(L1L
tg21
I00
(lp2195
g1
(g10
g3
NtRp2196
(dp2197
g13
g1
(g14
g3
NtRp2198
((lp2199
g17
(g18
(I0
tS'b'
tRp2200
((I1
(L1L
tg21
I00
(lp2201
S'For'
p2202
at(Nttba(lp2203
g17
(g25
(I0
tS'b'
tRp2204
(I1
(L1L
tg21
I00
(lp2205
g1
(g10
g3
NtRp2206
(dp2207
g13
g1
(g14
g3
NtRp2208
((lp2209
g17
(g18
(I0
tS'b'
tRp2210
((I1
(L4L
tg21
I00
(lp2211
S'_for_'
p2212
aS'Varlist'
p2213
aS'_in_'
p2214
aS'Exprlist'
p2215
at(Nttba(lp2216
g17
(g25
(I0
tS'b'
tRp2217
(I1
(L4L
tg21
I00
(lp2218
g1
(g10
g3
NtRp2219
(dp2220
g13
g1
(g14
g3
NtRp2221
((lp2222
g17
(g18
(I0
tS'b'
tRp2223
((I1
(L0L
tg21
I00
(lt(Nttba(lp2224
g17
(g25
(I0
tS'b'
tRp2225
(I1
(L0L
tg21
I00
(ltba(lp2226
g2223
atbsg93
S'for'
p2227
sbag1
(g10
g3
NtRp2228
(dp2229
g13
g1
(g14
g3
NtRp2230
((lp2231
g17
(g18
(I0
tS'b'
tRp2232
((I1
(L1L
tg21
I00
(lp2233
S'Vartuple'
p2234
at(Nttba(lp2235
g17
(g25
(I0
tS'b'
tRp2236
(I1
(L1L
tg21
I00
(lp2237
g1
(g10
g3
NtRp2238
(dp2239
g13
g1
(g14
g3
NtRp2240
((lp2241
g17
(g18
(I0
tS'b'
tRp2242
((I1
(L1L
tg21
I00
(lp2243
S'Var'
p2244
at(Nttba(lp2245
g17
(g25
(I0
tS'b'
tRp2246
(I1
(L1L
tg21
I00
(lp2247
g1
(g10
g3
NtRp2248
(dp2249
g13
g1
(g14
g3
NtRp2250
((lp2251
g17
(g18
(I0
tS'b'
tRp2252
((I1
(L1L
tg21
I00
(lp2253
S'Id'
p2254
at(Nttba(lp2255
g17
(g25
(I0
tS'b'
tRp2256
(I1
(L1L
tg21
I00
(lp2257
g1
(g10
g3
NtRp2258
(dp2259
g13
g1
(g14
g3
NtRp2260
((lp2261
g17
(g18
(I0
tS'b'
tRp2262
((I1
(L1L
tg21
I00
(lp2263
S'_i_'
p2264
at(Nttba(lp2265
g17
(g25
(I0
tS'b'
tRp2266
(I1
(L1L
tg21
I00
(lp2267
g1
(g10
g3
NtRp2268
(dp2269
g13
g1
(g14
g3
NtRp2270
((lp2271
g17
(g18
(I0
tS'b'
tRp2272
((I1
(L0L
tg21
I00
(lt(Nttba(lp2273
g17
(g25
(I0
tS'b'
tRp2274
(I1
(L0L
tg21
I00
(ltba(lp2275
g2272
atbsg93
S'i'
sbatba(lp2276
g2262
atbsg93
g2254
sbatba(lp2277
g2252
atbsg93
g2244
sbatba(lp2278
g2242
atbsg93
g2234
sbatba(lp2279
g2232
atbsg93
g2213
sbag1
(g10
g3
NtRp2280
(dp2281
g13
g1
(g14
g3
NtRp2282
((lp2283
g17
(g18
(I0
tS'b'
tRp2284
((I1
(L0L
tg21
I00
(lt(Nttba(lp2285
g17
(g25
(I0
tS'b'
tRp2286
(I1
(L0L
tg21
I00
(ltba(lp2287
g2284
atbsg93
S'in'
p2288
sbag1
(g10
g3
NtRp2289
(dp2290
g13
g1
(g14
g3
NtRp2291
((lp2292
g17
(g18
(I0
tS'b'
tRp2293
((I1
(L1L
tg21
I00
(lp2294
S'Expr'
p2295
at(Nttba(lp2296
g17
(g25
(I0
tS'b'
tRp2297
(I1
(L1L
tg21
I00
(lp2298
g1
(g10
g3
NtRp2299
(dp2300
g13
g1
(g14
g3
NtRp2301
((lp2302
g17
(g18
(I0
tS'b'
tRp2303
((I1
(L1L
tg21
I00
(lp2304
S'Funccall'
p2305
at(Nttba(lp2306
g17
(g25
(I0
tS'b'
tRp2307
(I1
(L1L
tg21
I00
(lp2308
g1
(g10
g3
NtRp2309
(dp2310
g13
g1
(g14
g3
NtRp2311
((lp2312
g17
(g18
(I0
tS'b'
tRp2313
((I1
(L4L
tg21
I00
(lp2314
S'Expr'
p2315
aS'_(_'
p2316
aS'Arglist'
p2317
aS'_)_'
p2318
at(Nttba(lp2319
g17
(g25
(I0
tS'b'
tRp2320
(I1
(L4L
tg21
I00
(lp2321
g1
(g10
g3
NtRp2322
(dp2323
g13
g1
(g14
g3
NtRp2324
((lp2325
g17
(g18
(I0
tS'b'
tRp2326
((I1
(L1L
tg21
I00
(lp2327
S'Val'
p2328
at(Nttba(lp2329
g17
(g25
(I0
tS'b'
tRp2330
(I1
(L1L
tg21
I00
(lp2331
g1
(g10
g3
NtRp2332
(dp2333
g13
g1
(g14
g3
NtRp2334
((lp2335
g17
(g18
(I0
tS'b'
tRp2336
((I1
(L1L
tg21
I00
(lp2337
S'Var'
p2338
at(Nttba(lp2339
g17
(g25
(I0
tS'b'
tRp2340
(I1
(L1L
tg21
I00
(lp2341
g1
(g10
g3
NtRp2342
(dp2343
g13
g1
(g14
g3
NtRp2344
((lp2345
g17
(g18
(I0
tS'b'
tRp2346
((I1
(L1L
tg21
I00
(lp2347
S'Id'
p2348
at(Nttba(lp2349
g17
(g25
(I0
tS'b'
tRp2350
(I1
(L1L
tg21
I00
(lp2351
g1
(g10
g3
NtRp2352
(dp2353
g13
g1
(g14
g3
NtRp2354
((lp2355
g17
(g18
(I0
tS'b'
tRp2356
((I1
(L1L
tg21
I00
(lp2357
S'_range_'
p2358
at(Nttba(lp2359
g17
(g25
(I0
tS'b'
tRp2360
(I1
(L1L
tg21
I00
(lp2361
g1
(g10
g3
NtRp2362
(dp2363
g13
g1
(g14
g3
NtRp2364
((lp2365
g17
(g18
(I0
tS'b'
tRp2366
((I1
(L0L
tg21
I00
(lt(Nttba(lp2367
g17
(g25
(I0
tS'b'
tRp2368
(I1
(L0L
tg21
I00
(ltba(lp2369
g2366
atbsg93
S'range'
p2370
sbatba(lp2371
g2356
atbsg93
g2348
sbatba(lp2372
g2346
atbsg93
g2338
sbatba(lp2373
g2336
atbsg93
g2328
sbatba(lp2374
g17
(g18
(I0
tS'b'
tRp2375
((I1
(L1L
tg21
I00
(lp2376
g2328
at(Nttbatbsg93
S'Expr'
p2377
sbag1
(g10
g3
NtRp2378
(dp2379
g13
g1
(g14
g3
NtRp2380
((lp2381
g17
(g18
(I0
tS'b'
tRp2382
((I1
(L0L
tg21
I00
(lt(Nttba(lp2383
g17
(g25
(I0
tS'b'
tRp2384
(I1
(L0L
tg21
I00
(ltba(lp2385
g2382
atbsg93
S'('
sbag1
(g10
g3
NtRp2386
(dp2387
g13
g1
(g14
g3
NtRp2388
((lp2389
g17
(g18
(I0
tS'b'
tRp2390
((I1
(L1L
tg21
I00
(lp2391
S'Pos_arglist'
p2392
at(Nttba(lp2393
g17
(g25
(I0
tS'b'
tRp2394
(I1
(L1L
tg21
I00
(lp2395
g1
(g10
g3
NtRp2396
(dp2397
g13
g1
(g14
g3
NtRp2398
((lp2399
g17
(g18
(I0
tS'b'
tRp2400
((I1
(L1L
tg21
I00
(lp2401
S'Pos_arg'
p2402
at(Nttba(lp2403
g17
(g25
(I0
tS'b'
tRp2404
(I1
(L1L
tg21
I00
(lp2405
g1
(g10
g3
NtRp2406
(dp2407
g13
g1
(g14
g3
NtRp2408
((lp2409
g17
(g18
(I0
tS'b'
tRp2410
((I1
(L1L
tg21
I00
(lp2411
S'Expr'
p2412
at(Nttba(lp2413
g17
(g25
(I0
tS'b'
tRp2414
(I1
(L1L
tg21
I00
(lp2415
g1
(g10
g3
NtRp2416
(dp2417
g13
g1
(g14
g3
NtRp2418
((lp2419
g17
(g18
(I0
tS'b'
tRp2420
((I1
(L1L
tg21
I00
(lp2421
S'Funccall'
p2422
at(Nttba(lp2423
g17
(g25
(I0
tS'b'
tRp2424
(I1
(L1L
tg21
I00
(lp2425
g1
(g10
g3
NtRp2426
(dp2427
g13
g1
(g14
g3
NtRp2428
((lp2429
g17
(g18
(I0
tS'b'
tRp2430
((I1
(L4L
tg21
I00
(lp2431
S'Expr'
p2432
aS'_(_'
p2433
aS'Arglist'
p2434
aS'_)_'
p2435
at(Nttba(lp2436
g17
(g25
(I0
tS'b'
tRp2437
(I1
(L4L
tg21
I00
(lp2438
g1
(g10
g3
NtRp2439
(dp2440
g13
g1
(g14
g3
NtRp2441
((lp2442
g17
(g18
(I0
tS'b'
tRp2443
((I1
(L1L
tg21
I00
(lp2444
S'Val'
p2445
at(Nttba(lp2446
g17
(g25
(I0
tS'b'
tRp2447
(I1
(L1L
tg21
I00
(lp2448
g1
(g10
g3
NtRp2449
(dp2450
g13
g1
(g14
g3
NtRp2451
((lp2452
g17
(g18
(I0
tS'b'
tRp2453
((I1
(L1L
tg21
I00
(lp2454
S'Var'
p2455
at(Nttba(lp2456
g17
(g25
(I0
tS'b'
tRp2457
(I1
(L1L
tg21
I00
(lp2458
g1
(g10
g3
NtRp2459
(dp2460
g13
g1
(g14
g3
NtRp2461
((lp2462
g17
(g18
(I0
tS'b'
tRp2463
((I1
(L1L
tg21
I00
(lp2464
S'Id'
p2465
at(Nttba(lp2466
g17
(g25
(I0
tS'b'
tRp2467
(I1
(L1L
tg21
I00
(lp2468
g1
(g10
g3
NtRp2469
(dp2470
g13
g1
(g14
g3
NtRp2471
((lp2472
g17
(g18
(I0
tS'b'
tRp2473
((I1
(L1L
tg21
I00
(lp2474
S'_len_'
p2475
at(Nttba(lp2476
g17
(g25
(I0
tS'b'
tRp2477
(I1
(L1L
tg21
I00
(lp2478
g1
(g10
g3
NtRp2479
(dp2480
g13
g1
(g14
g3
NtRp2481
((lp2482
g17
(g18
(I0
tS'b'
tRp2483
((I1
(L0L
tg21
I00
(lt(Nttba(lp2484
g17
(g25
(I0
tS'b'
tRp2485
(I1
(L0L
tg21
I00
(ltba(lp2486
g2483
atbsg93
S'len'
p2487
sbatba(lp2488
g2473
atbsg93
g2465
sbatba(lp2489
g2463
atbsg93
g2455
sbatba(lp2490
g2453
atbsg93
g2445
sbatba(lp2491
g17
(g18
(I0
tS'b'
tRp2492
((I1
(L1L
tg21
I00
(lp2493
g2445
at(Nttbatbsg93
S'Expr'
p2494
sbag1
(g10
g3
NtRp2495
(dp2496
g13
g1
(g14
g3
NtRp2497
((lp2498
g17
(g18
(I0
tS'b'
tRp2499
((I1
(L0L
tg21
I00
(lt(Nttba(lp2500
g17
(g25
(I0
tS'b'
tRp2501
(I1
(L0L
tg21
I00
(ltba(lp2502
g2499
atbsg93
S'('
sbag1
(g10
g3
NtRp2503
(dp2504
g13
g1
(g14
g3
NtRp2505
((lp2506
g17
(g18
(I0
tS'b'
tRp2507
((I1
(L1L
tg21
I00
(lp2508
S'Pos_arglist'
p2509
at(Nttba(lp2510
g17
(g25
(I0
tS'b'
tRp2511
(I1
(L1L
tg21
I00
(lp2512
g1
(g10
g3
NtRp2513
(dp2514
g13
g1
(g14
g3
NtRp2515
((lp2516
g17
(g18
(I0
tS'b'
tRp2517
((I1
(L1L
tg21
I00
(lp2518
S'Pos_arg'
p2519
at(Nttba(lp2520
g17
(g25
(I0
tS'b'
tRp2521
(I1
(L1L
tg21
I00
(lp2522
g1
(g10
g3
NtRp2523
(dp2524
g13
g1
(g14
g3
NtRp2525
((lp2526
g17
(g18
(I0
tS'b'
tRp2527
((I1
(L1L
tg21
I00
(lp2528
S'Expr'
p2529
at(Nttba(lp2530
g17
(g25
(I0
tS'b'
tRp2531
(I1
(L1L
tg21
I00
(lp2532
g1
(g10
g3
NtRp2533
(dp2534
g13
g1
(g14
g3
NtRp2535
((lp2536
g17
(g18
(I0
tS'b'
tRp2537
((I1
(L1L
tg21
I00
(lp2538
S'Val'
p2539
at(Nttba(lp2540
g17
(g25
(I0
tS'b'
tRp2541
(I1
(L1L
tg21
I00
(lp2542
g1
(g10
g3
NtRp2543
(dp2544
g13
g1
(g14
g3
NtRp2545
((lp2546
g17
(g18
(I0
tS'b'
tRp2547
((I1
(L1L
tg21
I00
(lp2548
S'Var'
p2549
at(Nttba(lp2550
g17
(g25
(I0
tS'b'
tRp2551
(I1
(L1L
tg21
I00
(lp2552
g1
(g10
g3
NtRp2553
(dp2554
g13
g1
(g14
g3
NtRp2555
((lp2556
g17
(g18
(I0
tS'b'
tRp2557
((I1
(L1L
tg21
I00
(lp2558
S'Id'
p2559
at(Nttba(lp2560
g17
(g25
(I0
tS'b'
tRp2561
(I1
(L1L
tg21
I00
(lp2562
g1
(g10
g3
NtRp2563
(dp2564
g13
g1
(g14
g3
NtRp2565
((lp2566
g17
(g18
(I0
tS'b'
tRp2567
((I1
(L1L
tg21
I00
(lp2568
S'_L_'
p2569
at(Nttba(lp2570
g17
(g25
(I0
tS'b'
tRp2571
(I1
(L1L
tg21
I00
(lp2572
g1
(g10
g3
NtRp2573
(dp2574
g13
g1
(g14
g3
NtRp2575
((lp2576
g17
(g18
(I0
tS'b'
tRp2577
((I1
(L0L
tg21
I00
(lt(Nttba(lp2578
g17
(g25
(I0
tS'b'
tRp2579
(I1
(L0L
tg21
I00
(ltba(lp2580
g2577
atbsg93
S'L'
sbatba(lp2581
g2567
atbsg93
g2559
sbatba(lp2582
g2557
atbsg93
g2549
sbatba(lp2583
g2547
atbsg93
g2539
sbatba(lp2584
g17
(g18
(I0
tS'b'
tRp2585
((I1
(L1L
tg21
I00
(lp2586
g2539
at(Nttbatbsg93
S'Expr'
p2587
sbatba(lp2588
g2527
atbsg93
g2519
sbatba(lp2589
g2517
atbsg93
g2509
sbatba(lp2590
g2507
atbsg93
g2434
sbag1
(g10
g3
NtRp2591
(dp2592
g13
g1
(g14
g3
NtRp2593
((lp2594
g17
(g18
(I0
tS'b'
tRp2595
((I1
(L0L
tg21
I00
(lt(Nttba(lp2596
g17
(g25
(I0
tS'b'
tRp2597
(I1
(L0L
tg21
I00
(ltba(lp2598
g2595
atbsg93
S')'
sbatba(lp2599
g2430
atbsg93
g2422
sbatba(lp2600
g2420
atbsg93
S'Expr'
p2601
sbatba(lp2602
g2410
atbsg93
g2402
sbatba(lp2603
g2400
atbsg93
g2392
sbatba(lp2604
g2390
atbsg93
g2317
sbag1
(g10
g3
NtRp2605
(dp2606
g13
g1
(g14
g3
NtRp2607
((lp2608
g17
(g18
(I0
tS'b'
tRp2609
((I1
(L0L
tg21
I00
(lt(Nttba(lp2610
g17
(g25
(I0
tS'b'
tRp2611
(I1
(L0L
tg21
I00
(ltba(lp2612
g2609
atbsg93
S')'
sbatba(lp2613
g2313
atbsg93
g2305
sbatba(lp2614
g2303
atbsg93
S'Expr'
p2615
sbatba(lp2616
g2293
atbsg93
g2215
sbatba(lp2617
g2210
atbsg93
g2202
sbatba(lp2618
g2200
atbsg93
g2192
sbatba(lp2619
g2190
atbsg93
g2181
sbag1
(g10
g3
NtRp2620
(dp2621
g13
g1
(g14
g3
NtRp2622
((lp2623
g17
(g18
(I0
tS'b'
tRp2624
((I1
(L3L
tg21
I00
(lp2625
S'Blockbegin'
p2626
aS'Prog'
p2627
aS'Blockend'
p2628
at(Nttba(lp2629
g17
(g25
(I0
tS'b'
tRp2630
(I1
(L3L
tg21
I00
(lp2631
g1
(g10
g3
NtRp2632
(dp2633
g13
g1
(g14
g3
NtRp2634
((lp2635
g17
(g18
(I0
tS'b'
tRp2636
((I1
(L1L
tg21
I00
(lp2637
S'_:$blockbegin_'
p2638
at(Nttba(lp2639
g17
(g25
(I0
tS'b'
tRp2640
(I1
(L1L
tg21
I00
(lp2641
g1
(g10
g3
NtRp2642
(dp2643
g13
g1
(g14
g3
NtRp2644
((lp2645
g17
(g18
(I0
tS'b'
tRp2646
((I1
(L0L
tg21
I00
(lt(Nttba(lp2647
g17
(g25
(I0
tS'b'
tRp2648
(I1
(L0L
tg21
I00
(ltba(lp2649
g2646
atbsg93
S':$blockbegin'
p2650
sbatba(lp2651
g2636
atbsg93
g2626
sbag1
(g10
g3
NtRp2652
(dp2653
g13
g1
(g14
g3
NtRp2654
((lp2655
g17
(g18
(I0
tS'b'
tRp2656
((I1
(L1L
tg21
I00
(lp2657
S'Stmt'
p2658
at(Nttba(lp2659
g17
(g25
(I0
tS'b'
tRp2660
(I1
(L1L
tg21
I00
(lp2661
g1
(g10
g3
NtRp2662
(dp2663
g13
g1
(g14
g3
NtRp2664
((lp2665
g17
(g18
(I0
tS'b'
tRp2666
((I1
(L1L
tg21
I00
(lp2667
S'Block_stmt'
p2668
at(Nttba(lp2669
g17
(g25
(I0
tS'b'
tRp2670
(I1
(L1L
tg21
I00
(lp2671
g1
(g10
g3
NtRp2672
(dp2673
g13
g1
(g14
g3
NtRp2674
((lp2675
g17
(g18
(I0
tS'b'
tRp2676
((I1
(L1L
tg21
I00
(lp2677
S'Ifelse'
p2678
at(Nttba(lp2679
g17
(g25
(I0
tS'b'
tRp2680
(I1
(L1L
tg21
I00
(lp2681
g1
(g10
g3
NtRp2682
(dp2683
g13
g1
(g14
g3
NtRp2684
((lp2685
g17
(g18
(I0
tS'b'
tRp2686
((I1
(L4L
tg21
I00
(lp2687
S'If'
p2688
aS'Block1'
p2689
aS'Else'
p2690
aS'Block2'
p2691
at(Nttba(lp2692
g17
(g25
(I0
tS'b'
tRp2693
(I1
(L4L
tg21
I00
(lp2694
g1
(g10
g3
NtRp2695
(dp2696
g13
g1
(g14
g3
NtRp2697
((lp2698
g17
(g18
(I0
tS'b'
tRp2699
((I1
(L2L
tg21
I00
(lp2700
S'_if_'
p2701
aS'Expr'
p2702
at(Nttba(lp2703
g17
(g25
(I0
tS'b'
tRp2704
(I1
(L2L
tg21
I00
(lp2705
g1
(g10
g3
NtRp2706
(dp2707
g13
g1
(g14
g3
NtRp2708
((lp2709
g17
(g18
(I0
tS'b'
tRp2710
((I1
(L0L
tg21
I00
(lt(Nttba(lp2711
g17
(g25
(I0
tS'b'
tRp2712
(I1
(L0L
tg21
I00
(ltba(lp2713
g2710
atbsg93
S'if'
p2714
sbag1
(g10
g3
NtRp2715
(dp2716
g13
g1
(g14
g3
NtRp2717
((lp2718
g17
(g18
(I0
tS'b'
tRp2719
((I1
(L1L
tg21
I00
(lp2720
S'Comparison'
p2721
at(Nttba(lp2722
g17
(g25
(I0
tS'b'
tRp2723
(I1
(L1L
tg21
I00
(lp2724
g1
(g10
g3
NtRp2725
(dp2726
g13
g1
(g14
g3
NtRp2727
((lp2728
g17
(g18
(I0
tS'b'
tRp2729
((I1
(L3L
tg21
I00
(lp2730
S'Expr1'
p2731
aS'Op_cmp'
p2732
aS'Expr2'
p2733
at(Nttba(lp2734
g17
(g25
(I0
tS'b'
tRp2735
(I1
(L3L
tg21
I00
(lp2736
g1
(g10
g3
NtRp2737
(dp2738
g13
g1
(g14
g3
NtRp2739
((lp2740
g17
(g18
(I0
tS'b'
tRp2741
((I1
(L1L
tg21
I00
(lp2742
S'Val'
p2743
at(Nttba(lp2744
g17
(g25
(I0
tS'b'
tRp2745
(I1
(L1L
tg21
I00
(lp2746
g1
(g10
g3
NtRp2747
(dp2748
g13
g1
(g14
g3
NtRp2749
((lp2750
g17
(g18
(I0
tS'b'
tRp2751
((I1
(L1L
tg21
I00
(lp2752
S'Var'
p2753
at(Nttba(lp2754
g17
(g25
(I0
tS'b'
tRp2755
(I1
(L1L
tg21
I00
(lp2756
g1
(g10
g3
NtRp2757
(dp2758
g13
g1
(g14
g3
NtRp2759
((lp2760
g17
(g18
(I0
tS'b'
tRp2761
((I1
(L1L
tg21
I00
(lp2762
S'Id'
p2763
at(Nttba(lp2764
g17
(g25
(I0
tS'b'
tRp2765
(I1
(L1L
tg21
I00
(lp2766
g1
(g10
g3
NtRp2767
(dp2768
g13
g1
(g14
g3
NtRp2769
((lp2770
g17
(g18
(I0
tS'b'
tRp2771
((I1
(L1L
tg21
I00
(lp2772
S'_i_'
p2773
at(Nttba(lp2774
g17
(g25
(I0
tS'b'
tRp2775
(I1
(L1L
tg21
I00
(lp2776
g1
(g10
g3
NtRp2777
(dp2778
g13
g1
(g14
g3
NtRp2779
((lp2780
g17
(g18
(I0
tS'b'
tRp2781
((I1
(L0L
tg21
I00
(lt(Nttba(lp2782
g17
(g25
(I0
tS'b'
tRp2783
(I1
(L0L
tg21
I00
(ltba(lp2784
g2781
atbsg93
S'i'
sbatba(lp2785
g2771
atbsg93
g2763
sbatba(lp2786
g2761
atbsg93
g2753
sbatba(lp2787
g2751
atbsg93
g2743
sbatba(lp2788
g17
(g18
(I0
tS'b'
tRp2789
((I1
(L1L
tg21
I00
(lp2790
g2743
at(Nttbatbsg93
S'Expr'
p2791
sbag1
(g10
g3
NtRp2792
(dp2793
g13
g1
(g14
g3
NtRp2794
((lp2795
g17
(g18
(I0
tS'b'
tRp2796
((I1
(L1L
tg21
I00
(lp2797
S'_>_'
p2798
at(Nttba(lp2799
g17
(g25
(I0
tS'b'
tRp2800
(I1
(L1L
tg21
I00
(lp2801
g1
(g10
g3
NtRp2802
(dp2803
g13
g1
(g14
g3
NtRp2804
((lp2805
g17
(g18
(I0
tS'b'
tRp2806
((I1
(L0L
tg21
I00
(lt(Nttba(lp2807
g17
(g25
(I0
tS'b'
tRp2808
(I1
(L0L
tg21
I00
(ltba(lp2809
g2806
atbsg93
S'>'
sbatba(lp2810
g2796
atbsg93
g2732
sbag1
(g10
g3
NtRp2811
(dp2812
g13
g1
(g14
g3
NtRp2813
((lp2814
g17
(g18
(I0
tS'b'
tRp2815
((I1
(L1L
tg21
I00
(lp2816
S'Val'
p2817
at(Nttba(lp2818
g17
(g25
(I0
tS'b'
tRp2819
(I1
(L1L
tg21
I00
(lp2820
g1
(g10
g3
NtRp2821
(dp2822
g13
g1
(g14
g3
NtRp2823
((lp2824
g17
(g18
(I0
tS'b'
tRp2825
((I1
(L1L
tg21
I00
(lp2826
S'Number'
p2827
at(Nttba(lp2828
g17
(g25
(I0
tS'b'
tRp2829
(I1
(L1L
tg21
I00
(lp2830
g1
(g10
g3
NtRp2831
(dp2832
g13
g1
(g14
g3
NtRp2833
((lp2834
g17
(g18
(I0
tS'b'
tRp2835
((I1
(L1L
tg21
I00
(lp2836
S'Int'
p2837
at(Nttba(lp2838
g17
(g25
(I0
tS'b'
tRp2839
(I1
(L1L
tg21
I00
(lp2840
g1
(g10
g3
NtRp2841
(dp2842
g13
g1
(g14
g3
NtRp2843
((lp2844
g17
(g18
(I0
tS'b'
tRp2845
((I1
(L1L
tg21
I00
(lp2846
S'_3_'
p2847
at(Nttba(lp2848
g17
(g25
(I0
tS'b'
tRp2849
(I1
(L1L
tg21
I00
(lp2850
g1
(g10
g3
NtRp2851
(dp2852
g13
g1
(g14
g3
NtRp2853
((lp2854
g17
(g18
(I0
tS'b'
tRp2855
((I1
(L0L
tg21
I00
(lt(Nttba(lp2856
g17
(g25
(I0
tS'b'
tRp2857
(I1
(L0L
tg21
I00
(ltba(lp2858
g2855
atbsg93
S'3'
sbatba(lp2859
g2845
atbsg93
g2837
sbatba(lp2860
g2835
atbsg93
g2827
sbatba(lp2861
g2825
atbsg93
g2817
sbatba(lp2862
g17
(g18
(I0
tS'b'
tRp2863
((I1
(L1L
tg21
I00
(lp2864
g2817
at(Nttbatbsg93
S'Expr'
p2865
sbatba(lp2866
g2729
atbsg93
g2721
sbatba(lp2867
g2719
atbsg93
S'Expr'
p2868
sbatba(lp2869
g2699
atbsg93
g2688
sbag1
(g10
g3
NtRp2870
(dp2871
g13
g1
(g14
g3
NtRp2872
((lp2873
g17
(g18
(I0
tS'b'
tRp2874
((I1
(L3L
tg21
I00
(lp2875
S'Blockbegin'
p2876
aS'Prog'
p2877
aS'Blockend'
p2878
at(Nttba(lp2879
g17
(g25
(I0
tS'b'
tRp2880
(I1
(L3L
tg21
I00
(lp2881
g1
(g10
g3
NtRp2882
(dp2883
g13
g1
(g14
g3
NtRp2884
((lp2885
g17
(g18
(I0
tS'b'
tRp2886
((I1
(L1L
tg21
I00
(lp2887
S'_:$blockbegin_'
p2888
at(Nttba(lp2889
g17
(g25
(I0
tS'b'
tRp2890
(I1
(L1L
tg21
I00
(lp2891
g1
(g10
g3
NtRp2892
(dp2893
g13
g1
(g14
g3
NtRp2894
((lp2895
g17
(g18
(I0
tS'b'
tRp2896
((I1
(L0L
tg21
I00
(lt(Nttba(lp2897
g17
(g25
(I0
tS'b'
tRp2898
(I1
(L0L
tg21
I00
(ltba(lp2899
g2896
atbsg93
S':$blockbegin'
p2900
sbatba(lp2901
g2886
atbsg93
g2876
sbag1
(g10
g3
NtRp2902
(dp2903
g13
g1
(g14
g3
NtRp2904
((lp2905
g17
(g18
(I0
tS'b'
tRp2906
((I1
(L1L
tg21
I00
(lp2907
S'Stmt'
p2908
at(Nttba(lp2909
g17
(g25
(I0
tS'b'
tRp2910
(I1
(L1L
tg21
I00
(lp2911
g1
(g10
g3
NtRp2912
(dp2913
g13
g1
(g14
g3
NtRp2914
((lp2915
g17
(g18
(I0
tS'b'
tRp2916
((I1
(L1L
tg21
I00
(lp2917
S'Single_stmt'
p2918
at(Nttba(lp2919
g17
(g25
(I0
tS'b'
tRp2920
(I1
(L1L
tg21
I00
(lp2921
g1
(g10
g3
NtRp2922
(dp2923
g13
g1
(g14
g3
NtRp2924
((lp2925
g17
(g18
(I0
tS'b'
tRp2926
((I1
(L2L
tg21
I00
(lp2927
S'Assign_stmt'
p2928
aS'_;_'
p2929
at(Nttba(lp2930
g17
(g25
(I0
tS'b'
tRp2931
(I1
(L2L
tg21
I00
(lp2932
g1
(g10
g3
NtRp2933
(dp2934
g13
g1
(g14
g3
NtRp2935
((lp2936
g17
(g18
(I0
tS'b'
tRp2937
((I1
(L1L
tg21
I00
(lp2938
S'Assign'
p2939
at(Nttba(lp2940
g17
(g25
(I0
tS'b'
tRp2941
(I1
(L1L
tg21
I00
(lp2942
g1
(g10
g3
NtRp2943
(dp2944
g13
g1
(g14
g3
NtRp2945
((lp2946
g17
(g18
(I0
tS'b'
tRp2947
((I1
(L3L
tg21
I00
(lp2948
S'Varlist'
p2949
aS'_=_'
p2950
aS'Exprlist'
p2951
at(Nttba(lp2952
g17
(g25
(I0
tS'b'
tRp2953
(I1
(L3L
tg21
I00
(lp2954
g1
(g10
g3
NtRp2955
(dp2956
g13
g1
(g14
g3
NtRp2957
((lp2958
g17
(g18
(I0
tS'b'
tRp2959
((I1
(L1L
tg21
I00
(lp2960
S'Vartuple'
p2961
at(Nttba(lp2962
g17
(g25
(I0
tS'b'
tRp2963
(I1
(L1L
tg21
I00
(lp2964
g1
(g10
g3
NtRp2965
(dp2966
g13
g1
(g14
g3
NtRp2967
((lp2968
g17
(g18
(I0
tS'b'
tRp2969
((I1
(L1L
tg21
I00
(lp2970
S'Var'
p2971
at(Nttba(lp2972
g17
(g25
(I0
tS'b'
tRp2973
(I1
(L1L
tg21
I00
(lp2974
g1
(g10
g3
NtRp2975
(dp2976
g13
g1
(g14
g3
NtRp2977
((lp2978
g17
(g18
(I0
tS'b'
tRp2979
((I1
(L4L
tg21
I00
(lp2980
S'Var'
p2981
aS'_[_'
p2982
aS'Slice'
p2983
aS'_]_'
p2984
at(Nttba(lp2985
g17
(g25
(I0
tS'b'
tRp2986
(I1
(L4L
tg21
I00
(lp2987
g1
(g10
g3
NtRp2988
(dp2989
g13
g1
(g14
g3
NtRp2990
((lp2991
g17
(g18
(I0
tS'b'
tRp2992
((I1
(L1L
tg21
I00
(lp2993
S'Id'
p2994
at(Nttba(lp2995
g17
(g25
(I0
tS'b'
tRp2996
(I1
(L1L
tg21
I00
(lp2997
g1
(g10
g3
NtRp2998
(dp2999
g13
g1
(g14
g3
NtRp3000
((lp3001
g17
(g18
(I0
tS'b'
tRp3002
((I1
(L1L
tg21
I00
(lp3003
S'_L_'
p3004
at(Nttba(lp3005
g17
(g25
(I0
tS'b'
tRp3006
(I1
(L1L
tg21
I00
(lp3007
g1
(g10
g3
NtRp3008
(dp3009
g13
g1
(g14
g3
NtRp3010
((lp3011
g17
(g18
(I0
tS'b'
tRp3012
((I1
(L0L
tg21
I00
(lt(Nttba(lp3013
g17
(g25
(I0
tS'b'
tRp3014
(I1
(L0L
tg21
I00
(ltba(lp3015
g3012
atbsg93
S'L'
sbatba(lp3016
g3002
atbsg93
g2994
sbatba(lp3017
g2992
atbsg93
g2981
sbag1
(g10
g3
NtRp3018
(dp3019
g13
g1
(g14
g3
NtRp3020
((lp3021
g17
(g18
(I0
tS'b'
tRp3022
((I1
(L0L
tg21
I00
(lt(Nttba(lp3023
g17
(g25
(I0
tS'b'
tRp3024
(I1
(L0L
tg21
I00
(ltba(lp3025
g3022
atbsg93
S'['
sbag1
(g10
g3
NtRp3026
(dp3027
g13
g1
(g14
g3
NtRp3028
((lp3029
g17
(g18
(I0
tS'b'
tRp3030
((I1
(L1L
tg21
I00
(lp3031
S'Expr'
p3032
at(Nttba(lp3033
g17
(g25
(I0
tS'b'
tRp3034
(I1
(L1L
tg21
I00
(lp3035
g1
(g10
g3
NtRp3036
(dp3037
g13
g1
(g14
g3
NtRp3038
((lp3039
g17
(g18
(I0
tS'b'
tRp3040
((I1
(L1L
tg21
I00
(lp3041
S'Val'
p3042
at(Nttba(lp3043
g17
(g25
(I0
tS'b'
tRp3044
(I1
(L1L
tg21
I00
(lp3045
g1
(g10
g3
NtRp3046
(dp3047
g13
g1
(g14
g3
NtRp3048
((lp3049
g17
(g18
(I0
tS'b'
tRp3050
((I1
(L1L
tg21
I00
(lp3051
S'Var'
p3052
at(Nttba(lp3053
g17
(g25
(I0
tS'b'
tRp3054
(I1
(L1L
tg21
I00
(lp3055
g1
(g10
g3
NtRp3056
(dp3057
g13
g1
(g14
g3
NtRp3058
((lp3059
g17
(g18
(I0
tS'b'
tRp3060
((I1
(L1L
tg21
I00
(lp3061
S'Id'
p3062
at(Nttba(lp3063
g17
(g25
(I0
tS'b'
tRp3064
(I1
(L1L
tg21
I00
(lp3065
g1
(g10
g3
NtRp3066
(dp3067
g13
g1
(g14
g3
NtRp3068
((lp3069
g17
(g18
(I0
tS'b'
tRp3070
((I1
(L1L
tg21
I00
(lp3071
S'_i_'
p3072
at(Nttba(lp3073
g17
(g25
(I0
tS'b'
tRp3074
(I1
(L1L
tg21
I00
(lp3075
g1
(g10
g3
NtRp3076
(dp3077
g13
g1
(g14
g3
NtRp3078
((lp3079
g17
(g18
(I0
tS'b'
tRp3080
((I1
(L0L
tg21
I00
(lt(Nttba(lp3081
g17
(g25
(I0
tS'b'
tRp3082
(I1
(L0L
tg21
I00
(ltba(lp3083
g3080
atbsg93
S'i'
sbatba(lp3084
g3070
atbsg93
g3062
sbatba(lp3085
g3060
atbsg93
g3052
sbatba(lp3086
g3050
atbsg93
g3042
sbatba(lp3087
g17
(g18
(I0
tS'b'
tRp3088
((I1
(L1L
tg21
I00
(lp3089
g3042
at(Nttbatbsg93
S'Expr'
p3090
sbatba(lp3091
g3030
atbsg93
g2983
sbag1
(g10
g3
NtRp3092
(dp3093
g13
g1
(g14
g3
NtRp3094
((lp3095
g17
(g18
(I0
tS'b'
tRp3096
((I1
(L0L
tg21
I00
(lt(Nttba(lp3097
g17
(g25
(I0
tS'b'
tRp3098
(I1
(L0L
tg21
I00
(ltba(lp3099
g3096
atbsg93
S']'
sbatba(lp3100
g2979
atbsg93
g2971
sbatba(lp3101
g2969
atbsg93
g2961
sbatba(lp3102
g2959
atbsg93
g2949
sbag1
(g10
g3
NtRp3103
(dp3104
g13
g1
(g14
g3
NtRp3105
((lp3106
g17
(g18
(I0
tS'b'
tRp3107
((I1
(L0L
tg21
I00
(lt(Nttba(lp3108
g17
(g25
(I0
tS'b'
tRp3109
(I1
(L0L
tg21
I00
(ltba(lp3110
g3107
atbsg93
S'='
sbag1
(g10
g3
NtRp3111
(dp3112
g13
g1
(g14
g3
NtRp3113
((lp3114
g17
(g18
(I0
tS'b'
tRp3115
((I1
(L1L
tg21
I00
(lp3116
S'Expr'
p3117
at(Nttba(lp3118
g17
(g25
(I0
tS'b'
tRp3119
(I1
(L1L
tg21
I00
(lp3120
g1
(g10
g3
NtRp3121
(dp3122
g13
g1
(g14
g3
NtRp3123
((lp3124
g17
(g18
(I0
tS'b'
tRp3125
((I1
(L1L
tg21
I00
(lp3126
S'Funccall'
p3127
at(Nttba(lp3128
g17
(g25
(I0
tS'b'
tRp3129
(I1
(L1L
tg21
I00
(lp3130
g1
(g10
g3
NtRp3131
(dp3132
g13
g1
(g14
g3
NtRp3133
((lp3134
g17
(g18
(I0
tS'b'
tRp3135
((I1
(L4L
tg21
I00
(lp3136
S'Expr'
p3137
aS'_(_'
p3138
aS'Arglist'
p3139
aS'_)_'
p3140
at(Nttba(lp3141
g17
(g25
(I0
tS'b'
tRp3142
(I1
(L4L
tg21
I00
(lp3143
g1
(g10
g3
NtRp3144
(dp3145
g13
g1
(g14
g3
NtRp3146
((lp3147
g17
(g18
(I0
tS'b'
tRp3148
((I1
(L1L
tg21
I00
(lp3149
S'Val'
p3150
at(Nttba(lp3151
g17
(g25
(I0
tS'b'
tRp3152
(I1
(L1L
tg21
I00
(lp3153
g1
(g10
g3
NtRp3154
(dp3155
g13
g1
(g14
g3
NtRp3156
((lp3157
g17
(g18
(I0
tS'b'
tRp3158
((I1
(L1L
tg21
I00
(lp3159
S'Var'
p3160
at(Nttba(lp3161
g17
(g25
(I0
tS'b'
tRp3162
(I1
(L1L
tg21
I00
(lp3163
g1
(g10
g3
NtRp3164
(dp3165
g13
g1
(g14
g3
NtRp3166
((lp3167
g17
(g18
(I0
tS'b'
tRp3168
((I1
(L1L
tg21
I00
(lp3169
S'Id'
p3170
at(Nttba(lp3171
g17
(g25
(I0
tS'b'
tRp3172
(I1
(L1L
tg21
I00
(lp3173
g1
(g10
g3
NtRp3174
(dp3175
g13
g1
(g14
g3
NtRp3176
((lp3177
g17
(g18
(I0
tS'b'
tRp3178
((I1
(L1L
tg21
I00
(lp3179
S'_f_'
p3180
at(Nttba(lp3181
g17
(g25
(I0
tS'b'
tRp3182
(I1
(L1L
tg21
I00
(lp3183
g1
(g10
g3
NtRp3184
(dp3185
g13
g1
(g14
g3
NtRp3186
((lp3187
g17
(g18
(I0
tS'b'
tRp3188
((I1
(L0L
tg21
I00
(lt(Nttba(lp3189
g17
(g25
(I0
tS'b'
tRp3190
(I1
(L0L
tg21
I00
(ltba(lp3191
g3188
atbsg93
S'f'
sbatba(lp3192
g3178
atbsg93
g3170
sbatba(lp3193
g3168
atbsg93
g3160
sbatba(lp3194
g3158
atbsg93
g3150
sbatba(lp3195
g17
(g18
(I0
tS'b'
tRp3196
((I1
(L1L
tg21
I00
(lp3197
g3150
at(Nttbatbsg93
S'Expr'
p3198
sbag1
(g10
g3
NtRp3199
(dp3200
g13
g1
(g14
g3
NtRp3201
((lp3202
g17
(g18
(I0
tS'b'
tRp3203
((I1
(L0L
tg21
I00
(lt(Nttba(lp3204
g17
(g25
(I0
tS'b'
tRp3205
(I1
(L0L
tg21
I00
(ltba(lp3206
g3203
atbsg93
S'('
sbag1
(g10
g3
NtRp3207
(dp3208
g13
g1
(g14
g3
NtRp3209
((lp3210
g17
(g18
(I0
tS'b'
tRp3211
((I1
(L1L
tg21
I00
(lp3212
S'Pos_arglist'
p3213
at(Nttba(lp3214
g17
(g25
(I0
tS'b'
tRp3215
(I1
(L1L
tg21
I00
(lp3216
g1
(g10
g3
NtRp3217
(dp3218
g13
g1
(g14
g3
NtRp3219
((lp3220
g17
(g18
(I0
tS'b'
tRp3221
((I1
(L1L
tg21
I00
(lp3222
S'Pos_arg'
p3223
at(Nttba(lp3224
g17
(g25
(I0
tS'b'
tRp3225
(I1
(L1L
tg21
I00
(lp3226
g1
(g10
g3
NtRp3227
(dp3228
g13
g1
(g14
g3
NtRp3229
((lp3230
g17
(g18
(I0
tS'b'
tRp3231
((I1
(L1L
tg21
I00
(lp3232
S'Expr'
p3233
at(Nttba(lp3234
g17
(g25
(I0
tS'b'
tRp3235
(I1
(L1L
tg21
I00
(lp3236
g1
(g10
g3
NtRp3237
(dp3238
g13
g1
(g14
g3
NtRp3239
((lp3240
g17
(g18
(I0
tS'b'
tRp3241
((I1
(L1L
tg21
I00
(lp3242
S'Dash_calc'
p3243
at(Nttba(lp3244
g17
(g25
(I0
tS'b'
tRp3245
(I1
(L1L
tg21
I00
(lp3246
g1
(g10
g3
NtRp3247
(dp3248
g13
g1
(g14
g3
NtRp3249
((lp3250
g17
(g18
(I0
tS'b'
tRp3251
((I1
(L3L
tg21
I00
(lp3252
S'Expr1'
p3253
aS'_+_'
p3254
aS'Expr2'
p3255
at(Nttba(lp3256
g17
(g25
(I0
tS'b'
tRp3257
(I1
(L3L
tg21
I00
(lp3258
g1
(g10
g3
NtRp3259
(dp3260
g13
g1
(g14
g3
NtRp3261
((lp3262
g17
(g18
(I0
tS'b'
tRp3263
((I1
(L1L
tg21
I00
(lp3264
S'Val'
p3265
at(Nttba(lp3266
g17
(g25
(I0
tS'b'
tRp3267
(I1
(L1L
tg21
I00
(lp3268
g1
(g10
g3
NtRp3269
(dp3270
g13
g1
(g14
g3
NtRp3271
((lp3272
g17
(g18
(I0
tS'b'
tRp3273
((I1
(L1L
tg21
I00
(lp3274
S'Var'
p3275
at(Nttba(lp3276
g17
(g25
(I0
tS'b'
tRp3277
(I1
(L1L
tg21
I00
(lp3278
g1
(g10
g3
NtRp3279
(dp3280
g13
g1
(g14
g3
NtRp3281
((lp3282
g17
(g18
(I0
tS'b'
tRp3283
((I1
(L1L
tg21
I00
(lp3284
S'Id'
p3285
at(Nttba(lp3286
g17
(g25
(I0
tS'b'
tRp3287
(I1
(L1L
tg21
I00
(lp3288
g1
(g10
g3
NtRp3289
(dp3290
g13
g1
(g14
g3
NtRp3291
((lp3292
g17
(g18
(I0
tS'b'
tRp3293
((I1
(L1L
tg21
I00
(lp3294
S'_i_'
p3295
at(Nttba(lp3296
g17
(g25
(I0
tS'b'
tRp3297
(I1
(L1L
tg21
I00
(lp3298
g1
(g10
g3
NtRp3299
(dp3300
g13
g1
(g14
g3
NtRp3301
((lp3302
g17
(g18
(I0
tS'b'
tRp3303
((I1
(L0L
tg21
I00
(lt(Nttba(lp3304
g17
(g25
(I0
tS'b'
tRp3305
(I1
(L0L
tg21
I00
(ltba(lp3306
g3303
atbsg93
S'i'
sbatba(lp3307
g3293
atbsg93
g3285
sbatba(lp3308
g3283
atbsg93
g3275
sbatba(lp3309
g3273
atbsg93
g3265
sbatba(lp3310
g17
(g18
(I0
tS'b'
tRp3311
((I1
(L1L
tg21
I00
(lp3312
g3265
at(Nttbatbsg93
S'Expr'
p3313
sbag1
(g10
g3
NtRp3314
(dp3315
g13
g1
(g14
g3
NtRp3316
((lp3317
g17
(g18
(I0
tS'b'
tRp3318
((I1
(L0L
tg21
I00
(lt(Nttba(lp3319
g17
(g25
(I0
tS'b'
tRp3320
(I1
(L0L
tg21
I00
(ltba(lp3321
g3318
atbsg93
S'+'
sbag1
(g10
g3
NtRp3322
(dp3323
g13
g1
(g14
g3
NtRp3324
((lp3325
g17
(g18
(I0
tS'b'
tRp3326
((I1
(L1L
tg21
I00
(lp3327
S'Val'
p3328
at(Nttba(lp3329
g17
(g25
(I0
tS'b'
tRp3330
(I1
(L1L
tg21
I00
(lp3331
g1
(g10
g3
NtRp3332
(dp3333
g13
g1
(g14
g3
NtRp3334
((lp3335
g17
(g18
(I0
tS'b'
tRp3336
((I1
(L1L
tg21
I00
(lp3337
S'Number'
p3338
at(Nttba(lp3339
g17
(g25
(I0
tS'b'
tRp3340
(I1
(L1L
tg21
I00
(lp3341
g1
(g10
g3
NtRp3342
(dp3343
g13
g1
(g14
g3
NtRp3344
((lp3345
g17
(g18
(I0
tS'b'
tRp3346
((I1
(L1L
tg21
I00
(lp3347
S'Int'
p3348
at(Nttba(lp3349
g17
(g25
(I0
tS'b'
tRp3350
(I1
(L1L
tg21
I00
(lp3351
g1
(g10
g3
NtRp3352
(dp3353
g13
g1
(g14
g3
NtRp3354
((lp3355
g17
(g18
(I0
tS'b'
tRp3356
((I1
(L1L
tg21
I00
(lp3357
S'_1_'
p3358
at(Nttba(lp3359
g17
(g25
(I0
tS'b'
tRp3360
(I1
(L1L
tg21
I00
(lp3361
g1
(g10
g3
NtRp3362
(dp3363
g13
g1
(g14
g3
NtRp3364
((lp3365
g17
(g18
(I0
tS'b'
tRp3366
((I1
(L0L
tg21
I00
(lt(Nttba(lp3367
g17
(g25
(I0
tS'b'
tRp3368
(I1
(L0L
tg21
I00
(ltba(lp3369
g3366
atbsg93
S'1'
sbatba(lp3370
g3356
atbsg93
g3348
sbatba(lp3371
g3346
atbsg93
g3338
sbatba(lp3372
g3336
atbsg93
g3328
sbatba(lp3373
g17
(g18
(I0
tS'b'
tRp3374
((I1
(L1L
tg21
I00
(lp3375
g3328
at(Nttbatbsg93
S'Expr'
p3376
sbatba(lp3377
g3251
atbsg93
g3243
sbatba(lp3378
g3241
atbsg93
S'Expr'
p3379
sbatba(lp3380
g3231
atbsg93
g3223
sbatba(lp3381
g3221
atbsg93
g3213
sbatba(lp3382
g3211
atbsg93
g3139
sbag1
(g10
g3
NtRp3383
(dp3384
g13
g1
(g14
g3
NtRp3385
((lp3386
g17
(g18
(I0
tS'b'
tRp3387
((I1
(L0L
tg21
I00
(lt(Nttba(lp3388
g17
(g25
(I0
tS'b'
tRp3389
(I1
(L0L
tg21
I00
(ltba(lp3390
g3387
atbsg93
S')'
sbatba(lp3391
g3135
atbsg93
g3127
sbatba(lp3392
g3125
atbsg93
S'Expr'
p3393
sbatba(lp3394
g3115
atbsg93
g2951
sbatba(lp3395
g2947
atbsg93
g2939
sbatba(lp3396
g2937
atbsg93
g2928
sbag1
(g10
g3
NtRp3397
(dp3398
g13
g1
(g14
g3
NtRp3399
((lp3400
g17
(g18
(I0
tS'b'
tRp3401
((I1
(L0L
tg21
I00
(lt(Nttba(lp3402
g17
(g25
(I0
tS'b'
tRp3403
(I1
(L0L
tg21
I00
(ltba(lp3404
g3401
atbsg93
S';'
sbatba(lp3405
g2926
atbsg93
g2918
sbatba(lp3406
g2916
atbsg93
g2908
sbatba(lp3407
g2906
atbsg93
g2877
sbag1
(g10
g3
NtRp3408
(dp3409
g13
g1
(g14
g3
NtRp3410
((lp3411
g17
(g18
(I0
tS'b'
tRp3412
((I1
(L1L
tg21
I00
(lp3413
S'_$blockend_'
p3414
at(Nttba(lp3415
g17
(g25
(I0
tS'b'
tRp3416
(I1
(L1L
tg21
I00
(lp3417
g1
(g10
g3
NtRp3418
(dp3419
g13
g1
(g14
g3
NtRp3420
((lp3421
g17
(g18
(I0
tS'b'
tRp3422
((I1
(L0L
tg21
I00
(lt(Nttba(lp3423
g17
(g25
(I0
tS'b'
tRp3424
(I1
(L0L
tg21
I00
(ltba(lp3425
g3422
atbsg93
S'$blockend'
p3426
sbatba(lp3427
g3412
atbsg93
g2878
sbatba(lp3428
g2874
atbsg93
S'Block'
p3429
sbag1
(g10
g3
NtRp3430
(dp3431
g13
g1
(g14
g3
NtRp3432
((lp3433
g17
(g18
(I0
tS'b'
tRp3434
((I1
(L1L
tg21
I00
(lp3435
S'_else_'
p3436
at(Nttba(lp3437
g17
(g25
(I0
tS'b'
tRp3438
(I1
(L1L
tg21
I00
(lp3439
g1
(g10
g3
NtRp3440
(dp3441
g13
g1
(g14
g3
NtRp3442
((lp3443
g17
(g18
(I0
tS'b'
tRp3444
((I1
(L0L
tg21
I00
(lt(Nttba(lp3445
g17
(g25
(I0
tS'b'
tRp3446
(I1
(L0L
tg21
I00
(ltba(lp3447
g3444
atbsg93
S'else'
p3448
sbatba(lp3449
g3434
atbsg93
g2690
sbag1
(g10
g3
NtRp3450
(dp3451
g13
g1
(g14
g3
NtRp3452
((lp3453
g17
(g18
(I0
tS'b'
tRp3454
((I1
(L3L
tg21
I00
(lp3455
S'Blockbegin'
p3456
aS'Prog'
p3457
aS'Blockend'
p3458
at(Nttba(lp3459
g17
(g25
(I0
tS'b'
tRp3460
(I1
(L3L
tg21
I00
(lp3461
g1
(g10
g3
NtRp3462
(dp3463
g13
g1
(g14
g3
NtRp3464
((lp3465
g17
(g18
(I0
tS'b'
tRp3466
((I1
(L1L
tg21
I00
(lp3467
S'_:$blockbegin_'
p3468
at(Nttba(lp3469
g17
(g25
(I0
tS'b'
tRp3470
(I1
(L1L
tg21
I00
(lp3471
g1
(g10
g3
NtRp3472
(dp3473
g13
g1
(g14
g3
NtRp3474
((lp3475
g17
(g18
(I0
tS'b'
tRp3476
((I1
(L0L
tg21
I00
(lt(Nttba(lp3477
g17
(g25
(I0
tS'b'
tRp3478
(I1
(L0L
tg21
I00
(ltba(lp3479
g3476
atbsg93
S':$blockbegin'
p3480
sbatba(lp3481
g3466
atbsg93
g3456
sbag1
(g10
g3
NtRp3482
(dp3483
g13
g1
(g14
g3
NtRp3484
((lp3485
g17
(g18
(I0
tS'b'
tRp3486
((I1
(L1L
tg21
I00
(lp3487
S'Stmt'
p3488
at(Nttba(lp3489
g17
(g25
(I0
tS'b'
tRp3490
(I1
(L1L
tg21
I00
(lp3491
g1
(g10
g3
NtRp3492
(dp3493
g13
g1
(g14
g3
NtRp3494
((lp3495
g17
(g18
(I0
tS'b'
tRp3496
((I1
(L1L
tg21
I00
(lp3497
S'Single_stmt'
p3498
at(Nttba(lp3499
g17
(g25
(I0
tS'b'
tRp3500
(I1
(L1L
tg21
I00
(lp3501
g1
(g10
g3
NtRp3502
(dp3503
g13
g1
(g14
g3
NtRp3504
((lp3505
g17
(g18
(I0
tS'b'
tRp3506
((I1
(L2L
tg21
I00
(lp3507
S'Assign_stmt'
p3508
aS'_;_'
p3509
at(Nttba(lp3510
g17
(g25
(I0
tS'b'
tRp3511
(I1
(L2L
tg21
I00
(lp3512
g1
(g10
g3
NtRp3513
(dp3514
g13
g1
(g14
g3
NtRp3515
((lp3516
g17
(g18
(I0
tS'b'
tRp3517
((I1
(L1L
tg21
I00
(lp3518
S'Aug_assign'
p3519
at(Nttba(lp3520
g17
(g25
(I0
tS'b'
tRp3521
(I1
(L1L
tg21
I00
(lp3522
g1
(g10
g3
NtRp3523
(dp3524
g13
g1
(g14
g3
NtRp3525
((lp3526
g17
(g18
(I0
tS'b'
tRp3527
((I1
(L3L
tg21
I00
(lp3528
S'Var'
p3529
aS'Aug_op'
p3530
aS'Exprlist'
p3531
at(Nttba(lp3532
g17
(g25
(I0
tS'b'
tRp3533
(I1
(L3L
tg21
I00
(lp3534
g1
(g10
g3
NtRp3535
(dp3536
g13
g1
(g14
g3
NtRp3537
((lp3538
g17
(g18
(I0
tS'b'
tRp3539
((I1
(L4L
tg21
I00
(lp3540
S'Var'
p3541
aS'_[_'
p3542
aS'Slice'
p3543
aS'_]_'
p3544
at(Nttba(lp3545
g17
(g25
(I0
tS'b'
tRp3546
(I1
(L4L
tg21
I00
(lp3547
g1
(g10
g3
NtRp3548
(dp3549
g13
g1
(g14
g3
NtRp3550
((lp3551
g17
(g18
(I0
tS'b'
tRp3552
((I1
(L1L
tg21
I00
(lp3553
S'Id'
p3554
at(Nttba(lp3555
g17
(g25
(I0
tS'b'
tRp3556
(I1
(L1L
tg21
I00
(lp3557
g1
(g10
g3
NtRp3558
(dp3559
g13
g1
(g14
g3
NtRp3560
((lp3561
g17
(g18
(I0
tS'b'
tRp3562
((I1
(L1L
tg21
I00
(lp3563
S'_L_'
p3564
at(Nttba(lp3565
g17
(g25
(I0
tS'b'
tRp3566
(I1
(L1L
tg21
I00
(lp3567
g1
(g10
g3
NtRp3568
(dp3569
g13
g1
(g14
g3
NtRp3570
((lp3571
g17
(g18
(I0
tS'b'
tRp3572
((I1
(L0L
tg21
I00
(lt(Nttba(lp3573
g17
(g25
(I0
tS'b'
tRp3574
(I1
(L0L
tg21
I00
(ltba(lp3575
g3572
atbsg93
S'L'
sbatba(lp3576
g3562
atbsg93
g3554
sbatba(lp3577
g3552
atbsg93
g3541
sbag1
(g10
g3
NtRp3578
(dp3579
g13
g1
(g14
g3
NtRp3580
((lp3581
g17
(g18
(I0
tS'b'
tRp3582
((I1
(L0L
tg21
I00
(lt(Nttba(lp3583
g17
(g25
(I0
tS'b'
tRp3584
(I1
(L0L
tg21
I00
(ltba(lp3585
g3582
atbsg93
S'['
sbag1
(g10
g3
NtRp3586
(dp3587
g13
g1
(g14
g3
NtRp3588
((lp3589
g17
(g18
(I0
tS'b'
tRp3590
((I1
(L1L
tg21
I00
(lp3591
S'Expr'
p3592
at(Nttba(lp3593
g17
(g25
(I0
tS'b'
tRp3594
(I1
(L1L
tg21
I00
(lp3595
g1
(g10
g3
NtRp3596
(dp3597
g13
g1
(g14
g3
NtRp3598
((lp3599
g17
(g18
(I0
tS'b'
tRp3600
((I1
(L1L
tg21
I00
(lp3601
S'Val'
p3602
at(Nttba(lp3603
g17
(g25
(I0
tS'b'
tRp3604
(I1
(L1L
tg21
I00
(lp3605
g1
(g10
g3
NtRp3606
(dp3607
g13
g1
(g14
g3
NtRp3608
((lp3609
g17
(g18
(I0
tS'b'
tRp3610
((I1
(L1L
tg21
I00
(lp3611
S'Var'
p3612
at(Nttba(lp3613
g17
(g25
(I0
tS'b'
tRp3614
(I1
(L1L
tg21
I00
(lp3615
g1
(g10
g3
NtRp3616
(dp3617
g13
g1
(g14
g3
NtRp3618
((lp3619
g17
(g18
(I0
tS'b'
tRp3620
((I1
(L1L
tg21
I00
(lp3621
S'Id'
p3622
at(Nttba(lp3623
g17
(g25
(I0
tS'b'
tRp3624
(I1
(L1L
tg21
I00
(lp3625
g1
(g10
g3
NtRp3626
(dp3627
g13
g1
(g14
g3
NtRp3628
((lp3629
g17
(g18
(I0
tS'b'
tRp3630
((I1
(L1L
tg21
I00
(lp3631
S'_i_'
p3632
at(Nttba(lp3633
g17
(g25
(I0
tS'b'
tRp3634
(I1
(L1L
tg21
I00
(lp3635
g1
(g10
g3
NtRp3636
(dp3637
g13
g1
(g14
g3
NtRp3638
((lp3639
g17
(g18
(I0
tS'b'
tRp3640
((I1
(L0L
tg21
I00
(lt(Nttba(lp3641
g17
(g25
(I0
tS'b'
tRp3642
(I1
(L0L
tg21
I00
(ltba(lp3643
g3640
atbsg93
S'i'
sbatba(lp3644
g3630
atbsg93
g3622
sbatba(lp3645
g3620
atbsg93
g3612
sbatba(lp3646
g3610
atbsg93
g3602
sbatba(lp3647
g17
(g18
(I0
tS'b'
tRp3648
((I1
(L1L
tg21
I00
(lp3649
g3602
at(Nttbatbsg93
S'Expr'
p3650
sbatba(lp3651
g3590
atbsg93
g3543
sbag1
(g10
g3
NtRp3652
(dp3653
g13
g1
(g14
g3
NtRp3654
((lp3655
g17
(g18
(I0
tS'b'
tRp3656
((I1
(L0L
tg21
I00
(lt(Nttba(lp3657
g17
(g25
(I0
tS'b'
tRp3658
(I1
(L0L
tg21
I00
(ltba(lp3659
g3656
atbsg93
S']'
sbatba(lp3660
g3539
atbsg93
g3529
sbag1
(g10
g3
NtRp3661
(dp3662
g13
g1
(g14
g3
NtRp3663
((lp3664
g17
(g18
(I0
tS'b'
tRp3665
((I1
(L1L
tg21
I00
(lp3666
S'_+=_'
p3667
at(Nttba(lp3668
g17
(g25
(I0
tS'b'
tRp3669
(I1
(L1L
tg21
I00
(lp3670
g1
(g10
g3
NtRp3671
(dp3672
g13
g1
(g14
g3
NtRp3673
((lp3674
g17
(g18
(I0
tS'b'
tRp3675
((I1
(L0L
tg21
I00
(lt(Nttba(lp3676
g17
(g25
(I0
tS'b'
tRp3677
(I1
(L0L
tg21
I00
(ltba(lp3678
g3675
atbsg93
S'+='
p3679
sbatba(lp3680
g3665
atbsg93
g3530
sbag1
(g10
g3
NtRp3681
(dp3682
g13
g1
(g14
g3
NtRp3683
((lp3684
g17
(g18
(I0
tS'b'
tRp3685
((I1
(L1L
tg21
I00
(lp3686
S'Expr'
p3687
at(Nttba(lp3688
g17
(g25
(I0
tS'b'
tRp3689
(I1
(L1L
tg21
I00
(lp3690
g1
(g10
g3
NtRp3691
(dp3692
g13
g1
(g14
g3
NtRp3693
((lp3694
g17
(g18
(I0
tS'b'
tRp3695
((I1
(L1L
tg21
I00
(lp3696
S'Val'
p3697
at(Nttba(lp3698
g17
(g25
(I0
tS'b'
tRp3699
(I1
(L1L
tg21
I00
(lp3700
g1
(g10
g3
NtRp3701
(dp3702
g13
g1
(g14
g3
NtRp3703
((lp3704
g17
(g18
(I0
tS'b'
tRp3705
((I1
(L1L
tg21
I00
(lp3706
S'Number'
p3707
at(Nttba(lp3708
g17
(g25
(I0
tS'b'
tRp3709
(I1
(L1L
tg21
I00
(lp3710
g1
(g10
g3
NtRp3711
(dp3712
g13
g1
(g14
g3
NtRp3713
((lp3714
g17
(g18
(I0
tS'b'
tRp3715
((I1
(L1L
tg21
I00
(lp3716
S'Int'
p3717
at(Nttba(lp3718
g17
(g25
(I0
tS'b'
tRp3719
(I1
(L1L
tg21
I00
(lp3720
g1
(g10
g3
NtRp3721
(dp3722
g13
g1
(g14
g3
NtRp3723
((lp3724
g17
(g18
(I0
tS'b'
tRp3725
((I1
(L1L
tg21
I00
(lp3726
S'_1_'
p3727
at(Nttba(lp3728
g17
(g25
(I0
tS'b'
tRp3729
(I1
(L1L
tg21
I00
(lp3730
g1
(g10
g3
NtRp3731
(dp3732
g13
g1
(g14
g3
NtRp3733
((lp3734
g17
(g18
(I0
tS'b'
tRp3735
((I1
(L0L
tg21
I00
(lt(Nttba(lp3736
g17
(g25
(I0
tS'b'
tRp3737
(I1
(L0L
tg21
I00
(ltba(lp3738
g3735
atbsg93
S'1'
sbatba(lp3739
g3725
atbsg93
g3717
sbatba(lp3740
g3715
atbsg93
g3707
sbatba(lp3741
g3705
atbsg93
g3697
sbatba(lp3742
g17
(g18
(I0
tS'b'
tRp3743
((I1
(L1L
tg21
I00
(lp3744
g3697
at(Nttbatbsg93
S'Expr'
p3745
sbatba(lp3746
g3685
atbsg93
g3531
sbatba(lp3747
g3527
atbsg93
g3519
sbatba(lp3748
g3517
atbsg93
g3508
sbag1
(g10
g3
NtRp3749
(dp3750
g13
g1
(g14
g3
NtRp3751
((lp3752
g17
(g18
(I0
tS'b'
tRp3753
((I1
(L0L
tg21
I00
(lt(Nttba(lp3754
g17
(g25
(I0
tS'b'
tRp3755
(I1
(L0L
tg21
I00
(ltba(lp3756
g3753
atbsg93
S';'
sbatba(lp3757
g3506
atbsg93
g3498
sbatba(lp3758
g3496
atbsg93
g3488
sbatba(lp3759
g3486
atbsg93
g3457
sbag1
(g10
g3
NtRp3760
(dp3761
g13
g1
(g14
g3
NtRp3762
((lp3763
g17
(g18
(I0
tS'b'
tRp3764
((I1
(L1L
tg21
I00
(lp3765
S'_$blockend_'
p3766
at(Nttba(lp3767
g17
(g25
(I0
tS'b'
tRp3768
(I1
(L1L
tg21
I00
(lp3769
g1
(g10
g3
NtRp3770
(dp3771
g13
g1
(g14
g3
NtRp3772
((lp3773
g17
(g18
(I0
tS'b'
tRp3774
((I1
(L0L
tg21
I00
(lt(Nttba(lp3775
g17
(g25
(I0
tS'b'
tRp3776
(I1
(L0L
tg21
I00
(ltba(lp3777
g3774
atbsg93
S'$blockend'
p3778
sbatba(lp3779
g3764
atbsg93
g3458
sbatba(lp3780
g3454
atbsg93
S'Block'
p3781
sbatba(lp3782
g2686
atbsg93
g2678
sbatba(lp3783
g2676
atbsg93
g2668
sbatba(lp3784
g2666
atbsg93
g2658
sbatba(lp3785
g2656
atbsg93
g2627
sbag1
(g10
g3
NtRp3786
(dp3787
g13
g1
(g14
g3
NtRp3788
((lp3789
g17
(g18
(I0
tS'b'
tRp3790
((I1
(L1L
tg21
I00
(lp3791
S'_$blockend_'
p3792
at(Nttba(lp3793
g17
(g25
(I0
tS'b'
tRp3794
(I1
(L1L
tg21
I00
(lp3795
g1
(g10
g3
NtRp3796
(dp3797
g13
g1
(g14
g3
NtRp3798
((lp3799
g17
(g18
(I0
tS'b'
tRp3800
((I1
(L0L
tg21
I00
(lt(Nttba(lp3801
g17
(g25
(I0
tS'b'
tRp3802
(I1
(L0L
tg21
I00
(ltba(lp3803
g3800
atbsg93
S'$blockend'
p3804
sbatba(lp3805
g3790
atbsg93
g2628
sbatba(lp3806
g2624
atbsg93
g2182
sbatba(lp3807
g2179
atbsg93
g2171
sbatba(lp3808
g2169
atbsg93
S'Stmt'
p3809
sbag1
(g10
g3
NtRp3810
(dp3811
g13
g1
(g14
g3
NtRp3812
((lp3813
g17
(g18
(I0
tS'b'
tRp3814
((I1
(L1L
tg21
I00
(lp3815
S'Block_stmt'
p3816
at(Nttba(lp3817
g17
(g25
(I0
tS'b'
tRp3818
(I1
(L1L
tg21
I00
(lp3819
g1
(g10
g3
NtRp3820
(dp3821
g13
g1
(g14
g3
NtRp3822
((lp3823
g17
(g18
(I0
tS'b'
tRp3824
((I1
(L2L
tg21
I00
(lp3825
S'Block_head'
p3826
aS'Block'
p3827
at(Nttba(lp3828
g17
(g25
(I0
tS'b'
tRp3829
(I1
(L2L
tg21
I00
(lp3830
g1
(g10
g3
NtRp3831
(dp3832
g13
g1
(g14
g3
NtRp3833
((lp3834
g17
(g18
(I0
tS'b'
tRp3835
((I1
(L1L
tg21
I00
(lp3836
S'Loop'
p3837
at(Nttba(lp3838
g17
(g25
(I0
tS'b'
tRp3839
(I1
(L1L
tg21
I00
(lp3840
g1
(g10
g3
NtRp3841
(dp3842
g13
g1
(g14
g3
NtRp3843
((lp3844
g17
(g18
(I0
tS'b'
tRp3845
((I1
(L1L
tg21
I00
(lp3846
S'For'
p3847
at(Nttba(lp3848
g17
(g25
(I0
tS'b'
tRp3849
(I1
(L1L
tg21
I00
(lp3850
g1
(g10
g3
NtRp3851
(dp3852
g13
g1
(g14
g3
NtRp3853
((lp3854
g17
(g18
(I0
tS'b'
tRp3855
((I1
(L4L
tg21
I00
(lp3856
S'_for_'
p3857
aS'Varlist'
p3858
aS'_in_'
p3859
aS'Exprlist'
p3860
at(Nttba(lp3861
g17
(g25
(I0
tS'b'
tRp3862
(I1
(L4L
tg21
I00
(lp3863
g1
(g10
g3
NtRp3864
(dp3865
g13
g1
(g14
g3
NtRp3866
((lp3867
g17
(g18
(I0
tS'b'
tRp3868
((I1
(L0L
tg21
I00
(lt(Nttba(lp3869
g17
(g25
(I0
tS'b'
tRp3870
(I1
(L0L
tg21
I00
(ltba(lp3871
g3868
atbsg93
S'for'
p3872
sbag1
(g10
g3
NtRp3873
(dp3874
g13
g1
(g14
g3
NtRp3875
((lp3876
g17
(g18
(I0
tS'b'
tRp3877
((I1
(L1L
tg21
I00
(lp3878
S'Vartuple'
p3879
at(Nttba(lp3880
g17
(g25
(I0
tS'b'
tRp3881
(I1
(L1L
tg21
I00
(lp3882
g1
(g10
g3
NtRp3883
(dp3884
g13
g1
(g14
g3
NtRp3885
((lp3886
g17
(g18
(I0
tS'b'
tRp3887
((I1
(L1L
tg21
I00
(lp3888
S'Var'
p3889
at(Nttba(lp3890
g17
(g25
(I0
tS'b'
tRp3891
(I1
(L1L
tg21
I00
(lp3892
g1
(g10
g3
NtRp3893
(dp3894
g13
g1
(g14
g3
NtRp3895
((lp3896
g17
(g18
(I0
tS'b'
tRp3897
((I1
(L1L
tg21
I00
(lp3898
S'Id'
p3899
at(Nttba(lp3900
g17
(g25
(I0
tS'b'
tRp3901
(I1
(L1L
tg21
I00
(lp3902
g1
(g10
g3
NtRp3903
(dp3904
g13
g1
(g14
g3
NtRp3905
((lp3906
g17
(g18
(I0
tS'b'
tRp3907
((I1
(L1L
tg21
I00
(lp3908
S'_x_'
p3909
at(Nttba(lp3910
g17
(g25
(I0
tS'b'
tRp3911
(I1
(L1L
tg21
I00
(lp3912
g1
(g10
g3
NtRp3913
(dp3914
g13
g1
(g14
g3
NtRp3915
((lp3916
g17
(g18
(I0
tS'b'
tRp3917
((I1
(L0L
tg21
I00
(lt(Nttba(lp3918
g17
(g25
(I0
tS'b'
tRp3919
(I1
(L0L
tg21
I00
(ltba(lp3920
g3917
atbsg93
S'x'
sbatba(lp3921
g3907
atbsg93
g3899
sbatba(lp3922
g3897
atbsg93
g3889
sbatba(lp3923
g3887
atbsg93
g3879
sbatba(lp3924
g3877
atbsg93
g3858
sbag1
(g10
g3
NtRp3925
(dp3926
g13
g1
(g14
g3
NtRp3927
((lp3928
g17
(g18
(I0
tS'b'
tRp3929
((I1
(L0L
tg21
I00
(lt(Nttba(lp3930
g17
(g25
(I0
tS'b'
tRp3931
(I1
(L0L
tg21
I00
(ltba(lp3932
g3929
atbsg93
S'in'
p3933
sbag1
(g10
g3
NtRp3934
(dp3935
g13
g1
(g14
g3
NtRp3936
((lp3937
g17
(g18
(I0
tS'b'
tRp3938
((I1
(L1L
tg21
I00
(lp3939
S'Expr'
p3940
at(Nttba(lp3941
g17
(g25
(I0
tS'b'
tRp3942
(I1
(L1L
tg21
I00
(lp3943
g1
(g10
g3
NtRp3944
(dp3945
g13
g1
(g14
g3
NtRp3946
((lp3947
g17
(g18
(I0
tS'b'
tRp3948
((I1
(L1L
tg21
I00
(lp3949
S'Val'
p3950
at(Nttba(lp3951
g17
(g25
(I0
tS'b'
tRp3952
(I1
(L1L
tg21
I00
(lp3953
g1
(g10
g3
NtRp3954
(dp3955
g13
g1
(g14
g3
NtRp3956
((lp3957
g17
(g18
(I0
tS'b'
tRp3958
((I1
(L1L
tg21
I00
(lp3959
S'Var'
p3960
at(Nttba(lp3961
g17
(g25
(I0
tS'b'
tRp3962
(I1
(L1L
tg21
I00
(lp3963
g1
(g10
g3
NtRp3964
(dp3965
g13
g1
(g14
g3
NtRp3966
((lp3967
g17
(g18
(I0
tS'b'
tRp3968
((I1
(L1L
tg21
I00
(lp3969
S'Id'
p3970
at(Nttba(lp3971
g17
(g25
(I0
tS'b'
tRp3972
(I1
(L1L
tg21
I00
(lp3973
g1
(g10
g3
NtRp3974
(dp3975
g13
g1
(g14
g3
NtRp3976
((lp3977
g17
(g18
(I0
tS'b'
tRp3978
((I1
(L1L
tg21
I00
(lp3979
S'_L_'
p3980
at(Nttba(lp3981
g17
(g25
(I0
tS'b'
tRp3982
(I1
(L1L
tg21
I00
(lp3983
g1
(g10
g3
NtRp3984
(dp3985
g13
g1
(g14
g3
NtRp3986
((lp3987
g17
(g18
(I0
tS'b'
tRp3988
((I1
(L0L
tg21
I00
(lt(Nttba(lp3989
g17
(g25
(I0
tS'b'
tRp3990
(I1
(L0L
tg21
I00
(ltba(lp3991
g3988
atbsg93
S'L'
sbatba(lp3992
g3978
atbsg93
g3970
sbatba(lp3993
g3968
atbsg93
g3960
sbatba(lp3994
g3958
atbsg93
g3950
sbatba(lp3995
g17
(g18
(I0
tS'b'
tRp3996
((I1
(L1L
tg21
I00
(lp3997
g3950
at(Nttbatbsg93
S'Expr'
p3998
sbatba(lp3999
g3938
atbsg93
g3860
sbatba(lp4000
g3855
atbsg93
g3847
sbatba(lp4001
g3845
atbsg93
g3837
sbatba(lp4002
g3835
atbsg93
g3826
sbag1
(g10
g3
NtRp4003
(dp4004
g13
g1
(g14
g3
NtRp4005
((lp4006
g17
(g18
(I0
tS'b'
tRp4007
((I1
(L3L
tg21
I00
(lp4008
S'Blockbegin'
p4009
aS'Prog'
p4010
aS'Blockend'
p4011
at(Nttba(lp4012
g17
(g25
(I0
tS'b'
tRp4013
(I1
(L3L
tg21
I00
(lp4014
g1
(g10
g3
NtRp4015
(dp4016
g13
g1
(g14
g3
NtRp4017
((lp4018
g17
(g18
(I0
tS'b'
tRp4019
((I1
(L1L
tg21
I00
(lp4020
S'_:$blockbegin_'
p4021
at(Nttba(lp4022
g17
(g25
(I0
tS'b'
tRp4023
(I1
(L1L
tg21
I00
(lp4024
g1
(g10
g3
NtRp4025
(dp4026
g13
g1
(g14
g3
NtRp4027
((lp4028
g17
(g18
(I0
tS'b'
tRp4029
((I1
(L0L
tg21
I00
(lt(Nttba(lp4030
g17
(g25
(I0
tS'b'
tRp4031
(I1
(L0L
tg21
I00
(ltba(lp4032
g4029
atbsg93
S':$blockbegin'
p4033
sbatba(lp4034
g4019
atbsg93
g4009
sbag1
(g10
g3
NtRp4035
(dp4036
g13
g1
(g14
g3
NtRp4037
((lp4038
g17
(g18
(I0
tS'b'
tRp4039
((I1
(L1L
tg21
I00
(lp4040
S'Stmt'
p4041
at(Nttba(lp4042
g17
(g25
(I0
tS'b'
tRp4043
(I1
(L1L
tg21
I00
(lp4044
g1
(g10
g3
NtRp4045
(dp4046
g13
g1
(g14
g3
NtRp4047
((lp4048
g17
(g18
(I0
tS'b'
tRp4049
((I1
(L1L
tg21
I00
(lp4050
S'Single_stmt'
p4051
at(Nttba(lp4052
g17
(g25
(I0
tS'b'
tRp4053
(I1
(L1L
tg21
I00
(lp4054
g1
(g10
g3
NtRp4055
(dp4056
g13
g1
(g14
g3
NtRp4057
((lp4058
g17
(g18
(I0
tS'b'
tRp4059
((I1
(L2L
tg21
I00
(lp4060
S'Print_stmt'
p4061
aS'_;_'
p4062
at(Nttba(lp4063
g17
(g25
(I0
tS'b'
tRp4064
(I1
(L2L
tg21
I00
(lp4065
g1
(g10
g3
NtRp4066
(dp4067
g13
g1
(g14
g3
NtRp4068
((lp4069
g17
(g18
(I0
tS'b'
tRp4070
((I1
(L2L
tg21
I00
(lp4071
S'_print_'
p4072
aS'Exprlist'
p4073
at(Nttba(lp4074
g17
(g25
(I0
tS'b'
tRp4075
(I1
(L2L
tg21
I00
(lp4076
g1
(g10
g3
NtRp4077
(dp4078
g13
g1
(g14
g3
NtRp4079
((lp4080
g17
(g18
(I0
tS'b'
tRp4081
((I1
(L0L
tg21
I00
(lt(Nttba(lp4082
g17
(g25
(I0
tS'b'
tRp4083
(I1
(L0L
tg21
I00
(ltba(lp4084
g4081
atbsg93
S'print'
p4085
sbag1
(g10
g3
NtRp4086
(dp4087
g13
g1
(g14
g3
NtRp4088
((lp4089
g17
(g18
(I0
tS'b'
tRp4090
((I1
(L1L
tg21
I00
(lp4091
S'Expr'
p4092
at(Nttba(lp4093
g17
(g25
(I0
tS'b'
tRp4094
(I1
(L1L
tg21
I00
(lp4095
g1
(g10
g3
NtRp4096
(dp4097
g13
g1
(g14
g3
NtRp4098
((lp4099
g17
(g18
(I0
tS'b'
tRp4100
((I1
(L1L
tg21
I00
(lp4101
S'Val'
p4102
at(Nttba(lp4103
g17
(g25
(I0
tS'b'
tRp4104
(I1
(L1L
tg21
I00
(lp4105
g1
(g10
g3
NtRp4106
(dp4107
g13
g1
(g14
g3
NtRp4108
((lp4109
g17
(g18
(I0
tS'b'
tRp4110
((I1
(L1L
tg21
I00
(lp4111
S'Var'
p4112
at(Nttba(lp4113
g17
(g25
(I0
tS'b'
tRp4114
(I1
(L1L
tg21
I00
(lp4115
g1
(g10
g3
NtRp4116
(dp4117
g13
g1
(g14
g3
NtRp4118
((lp4119
g17
(g18
(I0
tS'b'
tRp4120
((I1
(L1L
tg21
I00
(lp4121
S'Id'
p4122
at(Nttba(lp4123
g17
(g25
(I0
tS'b'
tRp4124
(I1
(L1L
tg21
I00
(lp4125
g1
(g10
g3
NtRp4126
(dp4127
g13
g1
(g14
g3
NtRp4128
((lp4129
g17
(g18
(I0
tS'b'
tRp4130
((I1
(L1L
tg21
I00
(lp4131
S'_x_'
p4132
at(Nttba(lp4133
g17
(g25
(I0
tS'b'
tRp4134
(I1
(L1L
tg21
I00
(lp4135
g1
(g10
g3
NtRp4136
(dp4137
g13
g1
(g14
g3
NtRp4138
((lp4139
g17
(g18
(I0
tS'b'
tRp4140
((I1
(L0L
tg21
I00
(lt(Nttba(lp4141
g17
(g25
(I0
tS'b'
tRp4142
(I1
(L0L
tg21
I00
(ltba(lp4143
g4140
atbsg93
S'x'
sbatba(lp4144
g4130
atbsg93
g4122
sbatba(lp4145
g4120
atbsg93
g4112
sbatba(lp4146
g4110
atbsg93
g4102
sbatba(lp4147
g17
(g18
(I0
tS'b'
tRp4148
((I1
(L1L
tg21
I00
(lp4149
g4102
at(Nttbatbsg93
S'Expr'
p4150
sbatba(lp4151
g4090
atbsg93
g4073
sbatba(lp4152
g4070
atbsg93
g4061
sbag1
(g10
g3
NtRp4153
(dp4154
g13
g1
(g14
g3
NtRp4155
((lp4156
g17
(g18
(I0
tS'b'
tRp4157
((I1
(L0L
tg21
I00
(lt(Nttba(lp4158
g17
(g25
(I0
tS'b'
tRp4159
(I1
(L0L
tg21
I00
(ltba(lp4160
g4157
atbsg93
S';'
sbatba(lp4161
g4059
atbsg93
g4051
sbatba(lp4162
g4049
atbsg93
g4041
sbatba(lp4163
g4039
atbsg93
g4010
sbag1
(g10
g3
NtRp4164
(dp4165
g13
g1
(g14
g3
NtRp4166
((lp4167
g17
(g18
(I0
tS'b'
tRp4168
((I1
(L1L
tg21
I00
(lp4169
S'_$blockend_'
p4170
at(Nttba(lp4171
g17
(g25
(I0
tS'b'
tRp4172
(I1
(L1L
tg21
I00
(lp4173
g1
(g10
g3
NtRp4174
(dp4175
g13
g1
(g14
g3
NtRp4176
((lp4177
g17
(g18
(I0
tS'b'
tRp4178
((I1
(L0L
tg21
I00
(lt(Nttba(lp4179
g17
(g25
(I0
tS'b'
tRp4180
(I1
(L0L
tg21
I00
(ltba(lp4181
g4178
atbsg93
S'$blockend'
p4182
sbatba(lp4183
g4168
atbsg93
g4011
sbatba(lp4184
g4007
atbsg93
g3827
sbatba(lp4185
g3824
atbsg93
g3816
sbatba(lp4186
g3814
atbsg93
S'Stmt'
p4187
sbag1
(g10
g3
NtRp4188
(dp4189
g13
g1
(g14
g3
NtRp4190
((lp4191
g17
(g18
(I0
tS'b'
tRp4192
((I1
(L1L
tg21
I00
(lp4193
S'Single_stmt'
p4194
at(Nttba(lp4195
g17
(g25
(I0
tS'b'
tRp4196
(I1
(L1L
tg21
I00
(lp4197
g1
(g10
g3
NtRp4198
(dp4199
g13
g1
(g14
g3
NtRp4200
((lp4201
g17
(g18
(I0
tS'b'
tRp4202
((I1
(L2L
tg21
I00
(lp4203
S'Print_stmt'
p4204
aS'_;_'
p4205
at(Nttba(lp4206
g17
(g25
(I0
tS'b'
tRp4207
(I1
(L2L
tg21
I00
(lp4208
g1
(g10
g3
NtRp4209
(dp4210
g13
g1
(g14
g3
NtRp4211
((lp4212
g17
(g18
(I0
tS'b'
tRp4213
((I1
(L2L
tg21
I00
(lp4214
S'_print_'
p4215
aS'Exprlist'
p4216
at(Nttba(lp4217
g17
(g25
(I0
tS'b'
tRp4218
(I1
(L2L
tg21
I00
(lp4219
g1
(g10
g3
NtRp4220
(dp4221
g13
g1
(g14
g3
NtRp4222
((lp4223
g17
(g18
(I0
tS'b'
tRp4224
((I1
(L0L
tg21
I00
(lt(Nttba(lp4225
g17
(g25
(I0
tS'b'
tRp4226
(I1
(L0L
tg21
I00
(ltba(lp4227
g4224
atbsg93
S'print'
p4228
sbag1
(g10
g3
NtRp4229
(dp4230
g13
g1
(g14
g3
NtRp4231
((lp4232
g17
(g18
(I0
tS'b'
tRp4233
((I1
(L3L
tg21
I00
(lp4234
S'Expr1'
p4235
aS'_,_'
p4236
aS'Expr2'
p4237
at(Nttba(lp4238
g17
(g25
(I0
tS'b'
tRp4239
(I1
(L3L
tg21
I00
(lp4240
g1
(g10
g3
NtRp4241
(dp4242
g13
g1
(g14
g3
NtRp4243
((lp4244
g17
(g18
(I0
tS'b'
tRp4245
((I1
(L1L
tg21
I00
(lp4246
S'Val'
p4247
at(Nttba(lp4248
g17
(g25
(I0
tS'b'
tRp4249
(I1
(L1L
tg21
I00
(lp4250
g1
(g10
g3
NtRp4251
(dp4252
g13
g1
(g14
g3
NtRp4253
((lp4254
g17
(g18
(I0
tS'b'
tRp4255
((I1
(L1L
tg21
I00
(lp4256
S'String'
p4257
at(Nttba(lp4258
g17
(g25
(I0
tS'b'
tRp4259
(I1
(L1L
tg21
I00
(lp4260
g1
(g10
g3
NtRp4261
(dp4262
g13
g1
(g14
g3
NtRp4263
((lp4264
g17
(g18
(I0
tS'b'
tRp4265
((I1
(L1L
tg21
I00
(lp4266
S'Str_val'
p4267
at(Nttba(lp4268
g17
(g25
(I0
tS'b'
tRp4269
(I1
(L1L
tg21
I00
(lp4270
g1
(g10
g3
NtRp4271
(dp4272
g13
g1
(g14
g3
NtRp4273
((lp4274
g17
(g18
(I0
tS'b'
tRp4275
((I1
(L1L
tg21
I00
(lp4276
S'_"program"_'
p4277
at(Nttba(lp4278
g17
(g25
(I0
tS'b'
tRp4279
(I1
(L1L
tg21
I00
(lp4280
g1
(g10
g3
NtRp4281
(dp4282
g13
g1
(g14
g3
NtRp4283
((lp4284
g17
(g18
(I0
tS'b'
tRp4285
((I1
(L0L
tg21
I00
(lt(Nttba(lp4286
g17
(g25
(I0
tS'b'
tRp4287
(I1
(L0L
tg21
I00
(ltba(lp4288
g4285
atbsg93
S'"program"'
p4289
sbatba(lp4290
g4275
atbsg93
g4267
sbatba(lp4291
g4265
atbsg93
g4257
sbatba(lp4292
g4255
atbsg93
g4247
sbatba(lp4293
g17
(g18
(I0
tS'b'
tRp4294
((I1
(L1L
tg21
I00
(lp4295
g4247
at(Nttbatbsg93
S'Expr'
p4296
sbag1
(g10
g3
NtRp4297
(dp4298
g13
g1
(g14
g3
NtRp4299
((lp4300
g17
(g18
(I0
tS'b'
tRp4301
((I1
(L0L
tg21
I00
(lt(Nttba(lp4302
g17
(g25
(I0
tS'b'
tRp4303
(I1
(L0L
tg21
I00
(ltba(lp4304
g4301
atbsg93
S','
sbag1
(g10
g3
NtRp4305
(dp4306
g13
g1
(g14
g3
NtRp4307
((lp4308
g17
(g18
(I0
tS'b'
tRp4309
((I1
(L1L
tg21
I00
(lp4310
S'Val'
p4311
at(Nttba(lp4312
g17
(g25
(I0
tS'b'
tRp4313
(I1
(L1L
tg21
I00
(lp4314
g1
(g10
g3
NtRp4315
(dp4316
g13
g1
(g14
g3
NtRp4317
((lp4318
g17
(g18
(I0
tS'b'
tRp4319
((I1
(L1L
tg21
I00
(lp4320
S'String'
p4321
at(Nttba(lp4322
g17
(g25
(I0
tS'b'
tRp4323
(I1
(L1L
tg21
I00
(lp4324
g1
(g10
g3
NtRp4325
(dp4326
g13
g1
(g14
g3
NtRp4327
((lp4328
g17
(g18
(I0
tS'b'
tRp4329
((I1
(L1L
tg21
I00
(lp4330
S'Str_val'
p4331
at(Nttba(lp4332
g17
(g25
(I0
tS'b'
tRp4333
(I1
(L1L
tg21
I00
(lp4334
g1
(g10
g3
NtRp4335
(dp4336
g13
g1
(g14
g3
NtRp4337
((lp4338
g17
(g18
(I0
tS'b'
tRp4339
((I1
(L1L
tg21
I00
(lp4340
S'_"end"_'
p4341
at(Nttba(lp4342
g17
(g25
(I0
tS'b'
tRp4343
(I1
(L1L
tg21
I00
(lp4344
g1
(g10
g3
NtRp4345
(dp4346
g13
g1
(g14
g3
NtRp4347
((lp4348
g17
(g18
(I0
tS'b'
tRp4349
((I1
(L0L
tg21
I00
(lt(Nttba(lp4350
g17
(g25
(I0
tS'b'
tRp4351
(I1
(L0L
tg21
I00
(ltba(lp4352
g4349
atbsg93
S'"end"'
p4353
sbatba(lp4354
g4339
atbsg93
g4331
sbatba(lp4355
g4329
atbsg93
g4321
sbatba(lp4356
g4319
atbsg93
g4311
sbatba(lp4357
g17
(g18
(I0
tS'b'
tRp4358
((I1
(L1L
tg21
I00
(lp4359
g4311
at(Nttbatbsg93
S'Expr'
p4360
sbatba(lp4361
g4233
atbsg93
g4216
sbatba(lp4362
g4213
atbsg93
g4204
sbag1
(g10
g3
NtRp4363
(dp4364
g13
g1
(g14
g3
NtRp4365
((lp4366
g17
(g18
(I0
tS'b'
tRp4367
((I1
(L0L
tg21
I00
(lt(Nttba(lp4368
g17
(g25
(I0
tS'b'
tRp4369
(I1
(L0L
tg21
I00
(ltba(lp4370
g4367
atbsg93
S';'
sbatba(lp4371
g4202
atbsg93
g4194
sbatba(lp4372
g4192
atbsg93
S'Stmt'
p4373
sbatba(lp4374
g1820
atbsg93
g1791
sbag1
(g10
g3
NtRp4375
(dp4376
g13
g1
(g14
g3
NtRp4377
((lp4378
g17
(g18
(I0
tS'b'
tRp4379
((I1
(L1L
tg21
I00
(lp4380
S'_$blockend_'
p4381
at(Nttba(lp4382
g17
(g25
(I0
tS'b'
tRp4383
(I1
(L1L
tg21
I00
(lp4384
g1
(g10
g3
NtRp4385
(dp4386
g13
g1
(g14
g3
NtRp4387
((lp4388
g17
(g18
(I0
tS'b'
tRp4389
((I1
(L0L
tg21
I00
(lt(Nttba(lp4390
g17
(g25
(I0
tS'b'
tRp4391
(I1
(L0L
tg21
I00
(ltba(lp4392
g4389
atbsg93
S'$blockend'
p4393
sbatba(lp4394
g4379
atbsg93
g1792
sbatba(lp4395
g1788
atbsg93
g1602
sbatba(lp4396
g1599
atbsg93
g1591
sbatba(lp4397
g1589
atbsg93
g1581
sbatba(lp4398
g1579
atbsg93
S'Stmt'
p4399
sbatba(lp4400
g32
atbsg93
g23
sbatba(lp4401
g19
atbsg93
g9
sbsS'pos'
p4402
g11
sb.