ccopy_reg
_reconstructor
p1
(ctree
Tree
p2
c__builtin__
object
p3
NtRp4
(dp5
S'patterns'
p6
c__builtin__
set
p7
((ltRp8
sS'root'
p9
g1
(ctree
vertex
p10
g3
NtRp11
(dp12
S'_data'
p13
g1
(cpandas.core.internals
SingleBlockManager
p14
g3
NtRp15
((lp16
cnumpy.core.multiarray
_reconstruct
p17
(cpandas.core.index
Index
p18
(I0
tS'b'
tRp19
((I1
(L1L
tcnumpy
dtype
p20
(S'O8'
I0
I1
tRp21
(I3
S'|'
NNNI-1
I-1
I63
tbI00
(lp22
S'Prog'
p23
at(Nttba(lp24
g17
(cnumpy
ndarray
p25
(I0
tS'b'
tRp26
(I1
(L1L
tg21
I00
(lp27
g1
(g10
g3
NtRp28
(dp29
g13
g1
(g14
g3
NtRp30
((lp31
g17
(g18
(I0
tS'b'
tRp32
((I1
(L4L
tg21
I00
(lp33
S'Stmt1'
p34
aS'Stmt2'
p35
aS'Stmt3'
p36
aS'Stmt4'
p37
at(Nttba(lp38
g17
(g25
(I0
tS'b'
tRp39
(I1
(L4L
tg21
I00
(lp40
g1
(g10
g3
NtRp41
(dp42
g13
g1
(g14
g3
NtRp43
((lp44
g17
(g18
(I0
tS'b'
tRp45
((I1
(L1L
tg21
I00
(lp46
S'Block_stmt'
p47
at(Nttba(lp48
g17
(g25
(I0
tS'b'
tRp49
(I1
(L1L
tg21
I00
(lp50
g1
(g10
g3
NtRp51
(dp52
g13
g1
(g14
g3
NtRp53
((lp54
g17
(g18
(I0
tS'b'
tRp55
((I1
(L2L
tg21
I00
(lp56
S'Block_head'
p57
aS'Block'
p58
at(Nttba(lp59
g17
(g25
(I0
tS'b'
tRp60
(I1
(L2L
tg21
I00
(lp61
g1
(g10
g3
NtRp62
(dp63
g13
g1
(g14
g3
NtRp64
((lp65
g17
(g18
(I0
tS'b'
tRp66
((I1
(L1L
tg21
I00
(lp67
S'Func'
p68
at(Nttba(lp69
g17
(g25
(I0
tS'b'
tRp70
(I1
(L1L
tg21
I00
(lp71
g1
(g10
g3
NtRp72
(dp73
g13
g1
(g14
g3
NtRp74
((lp75
g17
(g18
(I0
tS'b'
tRp76
((I1
(L5L
tg21
I00
(lp77
S'_def_'
p78
aS'Id_var'
p79
aS'_(_'
p80
aS'Paramlist'
p81
aS'_)_'
p82
at(Nttba(lp83
g17
(g25
(I0
tS'b'
tRp84
(I1
(L5L
tg21
I00
(lp85
g1
(g10
g3
NtRp86
(dp87
g13
g1
(g14
g3
NtRp88
((lp89
g17
(g18
(I0
tS'b'
tRp90
((I1
(L0L
tg21
I00
(lt(Nttba(lp91
g17
(g25
(I0
tS'b'
tRp92
(I1
(L0L
tg21
I00
(ltba(lp93
g90
atbsS'name'
p94
S'def'
p95
sbag1
(g10
g3
NtRp96
(dp97
g13
g1
(g14
g3
NtRp98
((lp99
g17
(g18
(I0
tS'b'
tRp100
((I1
(L1L
tg21
I00
(lp101
S'_f_'
p102
at(Nttba(lp103
g17
(g25
(I0
tS'b'
tRp104
(I1
(L1L
tg21
I00
(lp105
g1
(g10
g3
NtRp106
(dp107
g13
g1
(g14
g3
NtRp108
((lp109
g17
(g18
(I0
tS'b'
tRp110
((I1
(L0L
tg21
I00
(lt(Nttba(lp111
g17
(g25
(I0
tS'b'
tRp112
(I1
(L0L
tg21
I00
(ltba(lp113
g110
atbsg94
S'f'
sbatba(lp114
g100
atbsg94
g79
sbag1
(g10
g3
NtRp115
(dp116
g13
g1
(g14
g3
NtRp117
((lp118
g17
(g18
(I0
tS'b'
tRp119
((I1
(L0L
tg21
I00
(lt(Nttba(lp120
g17
(g25
(I0
tS'b'
tRp121
(I1
(L0L
tg21
I00
(ltba(lp122
g119
atbsg94
S'('
sbag1
(g10
g3
NtRp123
(dp124
g13
g1
(g14
g3
NtRp125
((lp126
g17
(g18
(I0
tS'b'
tRp127
((I1
(L1L
tg21
I00
(lp128
S'Pos_paramlist'
p129
at(Nttba(lp130
g17
(g25
(I0
tS'b'
tRp131
(I1
(L1L
tg21
I00
(lp132
g1
(g10
g3
NtRp133
(dp134
g13
g1
(g14
g3
NtRp135
((lp136
g17
(g18
(I0
tS'b'
tRp137
((I1
(L1L
tg21
I00
(lp138
S'Pos_paramtuple'
p139
at(Nttba(lp140
g17
(g25
(I0
tS'b'
tRp141
(I1
(L1L
tg21
I00
(lp142
g1
(g10
g3
NtRp143
(dp144
g13
g1
(g14
g3
NtRp145
((lp146
g17
(g18
(I0
tS'b'
tRp147
((I1
(L1L
tg21
I00
(lp148
S'Simple_var'
p149
at(Nttba(lp150
g17
(g25
(I0
tS'b'
tRp151
(I1
(L1L
tg21
I00
(lp152
g1
(g10
g3
NtRp153
(dp154
g13
g1
(g14
g3
NtRp155
((lp156
g17
(g18
(I0
tS'b'
tRp157
((I1
(L1L
tg21
I00
(lp158
S'_x_'
p159
at(Nttba(lp160
g17
(g25
(I0
tS'b'
tRp161
(I1
(L1L
tg21
I00
(lp162
g1
(g10
g3
NtRp163
(dp164
g13
g1
(g14
g3
NtRp165
((lp166
g17
(g18
(I0
tS'b'
tRp167
((I1
(L0L
tg21
I00
(lt(Nttba(lp168
g17
(g25
(I0
tS'b'
tRp169
(I1
(L0L
tg21
I00
(ltba(lp170
g167
atbsg94
S'x'
sbatba(lp171
g157
atbsg94
g149
sbatba(lp172
g147
atbsg94
g139
sbatba(lp173
g137
atbsg94
g129
sbatba(lp174
g127
atbsg94
g81
sbag1
(g10
g3
NtRp175
(dp176
g13
g1
(g14
g3
NtRp177
((lp178
g17
(g18
(I0
tS'b'
tRp179
((I1
(L0L
tg21
I00
(lt(Nttba(lp180
g17
(g25
(I0
tS'b'
tRp181
(I1
(L0L
tg21
I00
(ltba(lp182
g179
atbsg94
S')'
sbatba(lp183
g76
atbsg94
g68
sbatba(lp184
g66
atbsg94
g57
sbag1
(g10
g3
NtRp185
(dp186
g13
g1
(g14
g3
NtRp187
((lp188
g17
(g18
(I0
tS'b'
tRp189
((I1
(L3L
tg21
I00
(lp190
S'Blockbegin'
p191
aS'Prog'
p192
aS'Blockend'
p193
at(Nttba(lp194
g17
(g25
(I0
tS'b'
tRp195
(I1
(L3L
tg21
I00
(lp196
g1
(g10
g3
NtRp197
(dp198
g13
g1
(g14
g3
NtRp199
((lp200
g17
(g18
(I0
tS'b'
tRp201
((I1
(L1L
tg21
I00
(lp202
S'_:$blockbegin_'
p203
at(Nttba(lp204
g17
(g25
(I0
tS'b'
tRp205
(I1
(L1L
tg21
I00
(lp206
g1
(g10
g3
NtRp207
(dp208
g13
g1
(g14
g3
NtRp209
((lp210
g17
(g18
(I0
tS'b'
tRp211
((I1
(L0L
tg21
I00
(lt(Nttba(lp212
g17
(g25
(I0
tS'b'
tRp213
(I1
(L0L
tg21
I00
(ltba(lp214
g211
atbsg94
S':$blockbegin'
p215
sbatba(lp216
g201
atbsg94
g191
sbag1
(g10
g3
NtRp217
(dp218
g13
g1
(g14
g3
NtRp219
((lp220
g17
(g18
(I0
tS'b'
tRp221
((I1
(L2L
tg21
I00
(lp222
S'Stmt1'
p223
aS'Stmt2'
p224
at(Nttba(lp225
g17
(g25
(I0
tS'b'
tRp226
(I1
(L2L
tg21
I00
(lp227
g1
(g10
g3
NtRp228
(dp229
g13
g1
(g14
g3
NtRp230
((lp231
g17
(g18
(I0
tS'b'
tRp232
((I1
(L1L
tg21
I00
(lp233
S'Single_stmt'
p234
at(Nttba(lp235
g17
(g25
(I0
tS'b'
tRp236
(I1
(L1L
tg21
I00
(lp237
g1
(g10
g3
NtRp238
(dp239
g13
g1
(g14
g3
NtRp240
((lp241
g17
(g18
(I0
tS'b'
tRp242
((I1
(L2L
tg21
I00
(lp243
S'Exprlist'
p244
aS'_;_'
p245
at(Nttba(lp246
g17
(g25
(I0
tS'b'
tRp247
(I1
(L2L
tg21
I00
(lp248
g1
(g10
g3
NtRp249
(dp250
g13
g1
(g14
g3
NtRp251
((lp252
g17
(g18
(I0
tS'b'
tRp253
((I1
(L1L
tg21
I00
(lp254
S'Expr'
p255
at(Nttba(lp256
g17
(g25
(I0
tS'b'
tRp257
(I1
(L1L
tg21
I00
(lp258
g1
(g10
g3
NtRp259
(dp260
g13
g1
(g14
g3
NtRp261
((lp262
g17
(g18
(I0
tS'b'
tRp263
((I1
(L1L
tg21
I00
(lp264
S'Val_label'
p265
at(Nttba(lp266
g17
(g25
(I0
tS'b'
tRp267
(I1
(L1L
tg21
I00
(lp268
g1
(g10
g3
NtRp269
(dp270
g13
g1
(g14
g3
NtRp271
((lp272
g17
(g18
(I0
tS'b'
tRp273
((I1
(L1L
tg21
I00
(lp274
S'Val'
p275
at(Nttba(lp276
g17
(g25
(I0
tS'b'
tRp277
(I1
(L1L
tg21
I00
(lp278
g1
(g10
g3
NtRp279
(dp280
g13
g1
(g14
g3
NtRp281
((lp282
g17
(g18
(I0
tS'b'
tRp283
((I1
(L1L
tg21
I00
(lp284
S'String'
p285
at(Nttba(lp286
g17
(g25
(I0
tS'b'
tRp287
(I1
(L1L
tg21
I00
(lp288
g1
(g10
g3
NtRp289
(dp290
g13
g1
(g14
g3
NtRp291
((lp292
g17
(g18
(I0
tS'b'
tRp293
((I1
(L1L
tg21
I00
(lp294
S'_"""rechnen"""_'
p295
at(Nttba(lp296
g17
(g25
(I0
tS'b'
tRp297
(I1
(L1L
tg21
I00
(lp298
g1
(g10
g3
NtRp299
(dp300
g13
g1
(g14
g3
NtRp301
((lp302
g17
(g18
(I0
tS'b'
tRp303
((I1
(L0L
tg21
I00
(lt(Nttba(lp304
g17
(g25
(I0
tS'b'
tRp305
(I1
(L0L
tg21
I00
(ltba(lp306
g303
atbsg94
S'"""rechnen"""'
p307
sbatba(lp308
g293
atbsg94
g285
sbatba(lp309
g283
atbsg94
g275
sbatba(lp310
g273
atbsg94
g265
sbatba(lp311
g263
atbsg94
g255
sbatba(lp312
g253
atbsg94
g244
sbag1
(g10
g3
NtRp313
(dp314
g13
g1
(g14
g3
NtRp315
((lp316
g17
(g18
(I0
tS'b'
tRp317
((I1
(L0L
tg21
I00
(lt(Nttba(lp318
g17
(g25
(I0
tS'b'
tRp319
(I1
(L0L
tg21
I00
(ltba(lp320
g317
atbsg94
S';'
sbatba(lp321
g242
atbsg94
g234
sbatba(lp322
g232
atbsg94
S'Stmt'
p323
sbag1
(g10
g3
NtRp324
(dp325
g13
g1
(g14
g3
NtRp326
((lp327
g17
(g18
(I0
tS'b'
tRp328
((I1
(L1L
tg21
I00
(lp329
S'Single_stmt'
p330
at(Nttba(lp331
g17
(g25
(I0
tS'b'
tRp332
(I1
(L1L
tg21
I00
(lp333
g1
(g10
g3
NtRp334
(dp335
g13
g1
(g14
g3
NtRp336
((lp337
g17
(g18
(I0
tS'b'
tRp338
((I1
(L2L
tg21
I00
(lp339
S'Func_stmt'
p340
aS'_;_'
p341
at(Nttba(lp342
g17
(g25
(I0
tS'b'
tRp343
(I1
(L2L
tg21
I00
(lp344
g1
(g10
g3
NtRp345
(dp346
g13
g1
(g14
g3
NtRp347
((lp348
g17
(g18
(I0
tS'b'
tRp349
((I1
(L2L
tg21
I00
(lp350
S'_return_'
p351
aS'Exprlist'
p352
at(Nttba(lp353
g17
(g25
(I0
tS'b'
tRp354
(I1
(L2L
tg21
I00
(lp355
g1
(g10
g3
NtRp356
(dp357
g13
g1
(g14
g3
NtRp358
((lp359
g17
(g18
(I0
tS'b'
tRp360
((I1
(L0L
tg21
I00
(lt(Nttba(lp361
g17
(g25
(I0
tS'b'
tRp362
(I1
(L0L
tg21
I00
(ltba(lp363
g360
atbsg94
S'return'
p364
sbag1
(g10
g3
NtRp365
(dp366
g13
g1
(g14
g3
NtRp367
((lp368
g17
(g18
(I0
tS'b'
tRp369
((I1
(L1L
tg21
I00
(lp370
S'Expr'
p371
at(Nttba(lp372
g17
(g25
(I0
tS'b'
tRp373
(I1
(L1L
tg21
I00
(lp374
g1
(g10
g3
NtRp375
(dp376
g13
g1
(g14
g3
NtRp377
((lp378
g17
(g18
(I0
tS'b'
tRp379
((I1
(L1L
tg21
I00
(lp380
S'Dash_calc'
p381
at(Nttba(lp382
g17
(g25
(I0
tS'b'
tRp383
(I1
(L1L
tg21
I00
(lp384
g1
(g10
g3
NtRp385
(dp386
g13
g1
(g14
g3
NtRp387
((lp388
g17
(g18
(I0
tS'b'
tRp389
((I1
(L3L
tg21
I00
(lp390
S'Dash_calc'
p391
aS'_+_'
p392
aS'Val_label'
p393
at(Nttba(lp394
g17
(g25
(I0
tS'b'
tRp395
(I1
(L3L
tg21
I00
(lp396
g1
(g10
g3
NtRp397
(dp398
g13
g1
(g14
g3
NtRp399
((lp400
g17
(g18
(I0
tS'b'
tRp401
((I1
(L3L
tg21
I00
(lp402
S'Dash_calc'
p403
aS'_+_'
p404
aS'Val_label'
p405
at(Nttba(lp406
g17
(g25
(I0
tS'b'
tRp407
(I1
(L3L
tg21
I00
(lp408
g1
(g10
g3
NtRp409
(dp410
g13
g1
(g14
g3
NtRp411
((lp412
g17
(g18
(I0
tS'b'
tRp413
((I1
(L3L
tg21
I00
(lp414
S'Dash_calc'
p415
aS'_-_'
p416
aS'Val_label'
p417
at(Nttba(lp418
g17
(g25
(I0
tS'b'
tRp419
(I1
(L3L
tg21
I00
(lp420
g1
(g10
g3
NtRp421
(dp422
g13
g1
(g14
g3
NtRp423
((lp424
g17
(g18
(I0
tS'b'
tRp425
((I1
(L3L
tg21
I00
(lp426
S'Dash_calc'
p427
aS'_-_'
p428
aS'Dot_calc'
p429
at(Nttba(lp430
g17
(g25
(I0
tS'b'
tRp431
(I1
(L3L
tg21
I00
(lp432
g1
(g10
g3
NtRp433
(dp434
g13
g1
(g14
g3
NtRp435
((lp436
g17
(g18
(I0
tS'b'
tRp437
((I1
(L3L
tg21
I00
(lp438
S'Exponentiation'
p439
aS'_+_'
p440
aS'Dot_calc'
p441
at(Nttba(lp442
g17
(g25
(I0
tS'b'
tRp443
(I1
(L3L
tg21
I00
(lp444
g1
(g10
g3
NtRp445
(dp446
g13
g1
(g14
g3
NtRp447
((lp448
g17
(g18
(I0
tS'b'
tRp449
((I1
(L3L
tg21
I00
(lp450
S'Val_label1'
p451
aS'_**_'
p452
aS'Val_label2'
p453
at(Nttba(lp454
g17
(g25
(I0
tS'b'
tRp455
(I1
(L3L
tg21
I00
(lp456
g1
(g10
g3
NtRp457
(dp458
g13
g1
(g14
g3
NtRp459
((lp460
g17
(g18
(I0
tS'b'
tRp461
((I1
(L1L
tg21
I00
(lp462
S'Val'
p463
at(Nttba(lp464
g17
(g25
(I0
tS'b'
tRp465
(I1
(L1L
tg21
I00
(lp466
g1
(g10
g3
NtRp467
(dp468
g13
g1
(g14
g3
NtRp469
((lp470
g17
(g18
(I0
tS'b'
tRp471
((I1
(L1L
tg21
I00
(lp472
S'Var'
p473
at(Nttba(lp474
g17
(g25
(I0
tS'b'
tRp475
(I1
(L1L
tg21
I00
(lp476
g1
(g10
g3
NtRp477
(dp478
g13
g1
(g14
g3
NtRp479
((lp480
g17
(g18
(I0
tS'b'
tRp481
((I1
(L1L
tg21
I00
(lp482
S'_x_'
p483
at(Nttba(lp484
g17
(g25
(I0
tS'b'
tRp485
(I1
(L1L
tg21
I00
(lp486
g1
(g10
g3
NtRp487
(dp488
g13
g1
(g14
g3
NtRp489
((lp490
g17
(g18
(I0
tS'b'
tRp491
((I1
(L0L
tg21
I00
(lt(Nttba(lp492
g17
(g25
(I0
tS'b'
tRp493
(I1
(L0L
tg21
I00
(ltba(lp494
g491
atbsg94
S'x'
sbatba(lp495
g481
atbsg94
g473
sbatba(lp496
g471
atbsg94
g463
sbatba(lp497
g461
atbsg94
S'Val_label'
p498
sbag1
(g10
g3
NtRp499
(dp500
g13
g1
(g14
g3
NtRp501
((lp502
g17
(g18
(I0
tS'b'
tRp503
((I1
(L0L
tg21
I00
(lt(Nttba(lp504
g17
(g25
(I0
tS'b'
tRp505
(I1
(L0L
tg21
I00
(ltba(lp506
g503
atbsg94
S'**'
p507
sbag1
(g10
g3
NtRp508
(dp509
g13
g1
(g14
g3
NtRp510
((lp511
g17
(g18
(I0
tS'b'
tRp512
((I1
(L1L
tg21
I00
(lp513
S'Val'
p514
at(Nttba(lp515
g17
(g25
(I0
tS'b'
tRp516
(I1
(L1L
tg21
I00
(lp517
g1
(g10
g3
NtRp518
(dp519
g13
g1
(g14
g3
NtRp520
((lp521
g17
(g18
(I0
tS'b'
tRp522
((I1
(L1L
tg21
I00
(lp523
S'Number'
p524
at(Nttba(lp525
g17
(g25
(I0
tS'b'
tRp526
(I1
(L1L
tg21
I00
(lp527
g1
(g10
g3
NtRp528
(dp529
g13
g1
(g14
g3
NtRp530
((lp531
g17
(g18
(I0
tS'b'
tRp532
((I1
(L1L
tg21
I00
(lp533
S'Int'
p534
at(Nttba(lp535
g17
(g25
(I0
tS'b'
tRp536
(I1
(L1L
tg21
I00
(lp537
g1
(g10
g3
NtRp538
(dp539
g13
g1
(g14
g3
NtRp540
((lp541
g17
(g18
(I0
tS'b'
tRp542
((I1
(L1L
tg21
I00
(lp543
S'_2_'
p544
at(Nttba(lp545
g17
(g25
(I0
tS'b'
tRp546
(I1
(L1L
tg21
I00
(lp547
g1
(g10
g3
NtRp548
(dp549
g13
g1
(g14
g3
NtRp550
((lp551
g17
(g18
(I0
tS'b'
tRp552
((I1
(L0L
tg21
I00
(lt(Nttba(lp553
g17
(g25
(I0
tS'b'
tRp554
(I1
(L0L
tg21
I00
(ltba(lp555
g552
atbsg94
S'2'
sbatba(lp556
g542
atbsg94
g534
sbatba(lp557
g532
atbsg94
g524
sbatba(lp558
g522
atbsg94
g514
sbatba(lp559
g512
atbsg94
S'Val_label'
p560
sbatba(lp561
g449
atbsg94
g439
sbag1
(g10
g3
NtRp562
(dp563
g13
g1
(g14
g3
NtRp564
((lp565
g17
(g18
(I0
tS'b'
tRp566
((I1
(L0L
tg21
I00
(lt(Nttba(lp567
g17
(g25
(I0
tS'b'
tRp568
(I1
(L0L
tg21
I00
(ltba(lp569
g566
atbsg94
S'+'
sbag1
(g10
g3
NtRp570
(dp571
g13
g1
(g14
g3
NtRp572
((lp573
g17
(g18
(I0
tS'b'
tRp574
((I1
(L3L
tg21
I00
(lp575
S'Val_label1'
p576
aS'_*_'
p577
aS'Val_label2'
p578
at(Nttba(lp579
g17
(g25
(I0
tS'b'
tRp580
(I1
(L3L
tg21
I00
(lp581
g1
(g10
g3
NtRp582
(dp583
g13
g1
(g14
g3
NtRp584
((lp585
g17
(g18
(I0
tS'b'
tRp586
((I1
(L1L
tg21
I00
(lp587
S'Val'
p588
at(Nttba(lp589
g17
(g25
(I0
tS'b'
tRp590
(I1
(L1L
tg21
I00
(lp591
g1
(g10
g3
NtRp592
(dp593
g13
g1
(g14
g3
NtRp594
((lp595
g17
(g18
(I0
tS'b'
tRp596
((I1
(L1L
tg21
I00
(lp597
S'Var'
p598
at(Nttba(lp599
g17
(g25
(I0
tS'b'
tRp600
(I1
(L1L
tg21
I00
(lp601
g1
(g10
g3
NtRp602
(dp603
g13
g1
(g14
g3
NtRp604
((lp605
g17
(g18
(I0
tS'b'
tRp606
((I1
(L1L
tg21
I00
(lp607
S'_x_'
p608
at(Nttba(lp609
g17
(g25
(I0
tS'b'
tRp610
(I1
(L1L
tg21
I00
(lp611
g1
(g10
g3
NtRp612
(dp613
g13
g1
(g14
g3
NtRp614
((lp615
g17
(g18
(I0
tS'b'
tRp616
((I1
(L0L
tg21
I00
(lt(Nttba(lp617
g17
(g25
(I0
tS'b'
tRp618
(I1
(L0L
tg21
I00
(ltba(lp619
g616
atbsg94
S'x'
sbatba(lp620
g606
atbsg94
g598
sbatba(lp621
g596
atbsg94
g588
sbatba(lp622
g586
atbsg94
S'Val_label'
p623
sbag1
(g10
g3
NtRp624
(dp625
g13
g1
(g14
g3
NtRp626
((lp627
g17
(g18
(I0
tS'b'
tRp628
((I1
(L0L
tg21
I00
(lt(Nttba(lp629
g17
(g25
(I0
tS'b'
tRp630
(I1
(L0L
tg21
I00
(ltba(lp631
g628
atbsg94
S'*'
sbag1
(g10
g3
NtRp632
(dp633
g13
g1
(g14
g3
NtRp634
((lp635
g17
(g18
(I0
tS'b'
tRp636
((I1
(L1L
tg21
I00
(lp637
S'Val'
p638
at(Nttba(lp639
g17
(g25
(I0
tS'b'
tRp640
(I1
(L1L
tg21
I00
(lp641
g1
(g10
g3
NtRp642
(dp643
g13
g1
(g14
g3
NtRp644
((lp645
g17
(g18
(I0
tS'b'
tRp646
((I1
(L1L
tg21
I00
(lp647
S'Number'
p648
at(Nttba(lp649
g17
(g25
(I0
tS'b'
tRp650
(I1
(L1L
tg21
I00
(lp651
g1
(g10
g3
NtRp652
(dp653
g13
g1
(g14
g3
NtRp654
((lp655
g17
(g18
(I0
tS'b'
tRp656
((I1
(L1L
tg21
I00
(lp657
S'Int'
p658
at(Nttba(lp659
g17
(g25
(I0
tS'b'
tRp660
(I1
(L1L
tg21
I00
(lp661
g1
(g10
g3
NtRp662
(dp663
g13
g1
(g14
g3
NtRp664
((lp665
g17
(g18
(I0
tS'b'
tRp666
((I1
(L1L
tg21
I00
(lp667
S'_4_'
p668
at(Nttba(lp669
g17
(g25
(I0
tS'b'
tRp670
(I1
(L1L
tg21
I00
(lp671
g1
(g10
g3
NtRp672
(dp673
g13
g1
(g14
g3
NtRp674
((lp675
g17
(g18
(I0
tS'b'
tRp676
((I1
(L0L
tg21
I00
(lt(Nttba(lp677
g17
(g25
(I0
tS'b'
tRp678
(I1
(L0L
tg21
I00
(ltba(lp679
g676
atbsg94
S'4'
sbatba(lp680
g666
atbsg94
g658
sbatba(lp681
g656
atbsg94
g648
sbatba(lp682
g646
atbsg94
g638
sbatba(lp683
g636
atbsg94
S'Val_label'
p684
sbatba(lp685
g574
atbsg94
g441
sbatba(lp686
g437
atbsg94
g427
sbag1
(g10
g3
NtRp687
(dp688
g13
g1
(g14
g3
NtRp689
((lp690
g17
(g18
(I0
tS'b'
tRp691
((I1
(L0L
tg21
I00
(lt(Nttba(lp692
g17
(g25
(I0
tS'b'
tRp693
(I1
(L0L
tg21
I00
(ltba(lp694
g691
atbsg94
S'-'
sbag1
(g10
g3
NtRp695
(dp696
g13
g1
(g14
g3
NtRp697
((lp698
g17
(g18
(I0
tS'b'
tRp699
((I1
(L3L
tg21
I00
(lp700
S'Brackets'
p701
aS'_/_'
p702
aS'Val_label'
p703
at(Nttba(lp704
g17
(g25
(I0
tS'b'
tRp705
(I1
(L3L
tg21
I00
(lp706
g1
(g10
g3
NtRp707
(dp708
g13
g1
(g14
g3
NtRp709
((lp710
g17
(g18
(I0
tS'b'
tRp711
((I1
(L3L
tg21
I00
(lp712
S'_(_'
p713
aS'Dash_calc'
p714
aS'_)_'
p715
at(Nttba(lp716
g17
(g25
(I0
tS'b'
tRp717
(I1
(L3L
tg21
I00
(lp718
g1
(g10
g3
NtRp719
(dp720
g13
g1
(g14
g3
NtRp721
((lp722
g17
(g18
(I0
tS'b'
tRp723
((I1
(L0L
tg21
I00
(lt(Nttba(lp724
g17
(g25
(I0
tS'b'
tRp725
(I1
(L0L
tg21
I00
(ltba(lp726
g723
atbsg94
S'('
sbag1
(g10
g3
NtRp727
(dp728
g13
g1
(g14
g3
NtRp729
((lp730
g17
(g18
(I0
tS'b'
tRp731
((I1
(L3L
tg21
I00
(lp732
S'Val_label1'
p733
aS'_-_'
p734
aS'Val_label2'
p735
at(Nttba(lp736
g17
(g25
(I0
tS'b'
tRp737
(I1
(L3L
tg21
I00
(lp738
g1
(g10
g3
NtRp739
(dp740
g13
g1
(g14
g3
NtRp741
((lp742
g17
(g18
(I0
tS'b'
tRp743
((I1
(L1L
tg21
I00
(lp744
S'Val'
p745
at(Nttba(lp746
g17
(g25
(I0
tS'b'
tRp747
(I1
(L1L
tg21
I00
(lp748
g1
(g10
g3
NtRp749
(dp750
g13
g1
(g14
g3
NtRp751
((lp752
g17
(g18
(I0
tS'b'
tRp753
((I1
(L1L
tg21
I00
(lp754
S'Var'
p755
at(Nttba(lp756
g17
(g25
(I0
tS'b'
tRp757
(I1
(L1L
tg21
I00
(lp758
g1
(g10
g3
NtRp759
(dp760
g13
g1
(g14
g3
NtRp761
((lp762
g17
(g18
(I0
tS'b'
tRp763
((I1
(L1L
tg21
I00
(lp764
S'_x_'
p765
at(Nttba(lp766
g17
(g25
(I0
tS'b'
tRp767
(I1
(L1L
tg21
I00
(lp768
g1
(g10
g3
NtRp769
(dp770
g13
g1
(g14
g3
NtRp771
((lp772
g17
(g18
(I0
tS'b'
tRp773
((I1
(L0L
tg21
I00
(lt(Nttba(lp774
g17
(g25
(I0
tS'b'
tRp775
(I1
(L0L
tg21
I00
(ltba(lp776
g773
atbsg94
S'x'
sbatba(lp777
g763
atbsg94
g755
sbatba(lp778
g753
atbsg94
g745
sbatba(lp779
g743
atbsg94
S'Val_label'
p780
sbag1
(g10
g3
NtRp781
(dp782
g13
g1
(g14
g3
NtRp783
((lp784
g17
(g18
(I0
tS'b'
tRp785
((I1
(L0L
tg21
I00
(lt(Nttba(lp786
g17
(g25
(I0
tS'b'
tRp787
(I1
(L0L
tg21
I00
(ltba(lp788
g785
atbsg94
S'-'
sbag1
(g10
g3
NtRp789
(dp790
g13
g1
(g14
g3
NtRp791
((lp792
g17
(g18
(I0
tS'b'
tRp793
((I1
(L1L
tg21
I00
(lp794
S'Val'
p795
at(Nttba(lp796
g17
(g25
(I0
tS'b'
tRp797
(I1
(L1L
tg21
I00
(lp798
g1
(g10
g3
NtRp799
(dp800
g13
g1
(g14
g3
NtRp801
((lp802
g17
(g18
(I0
tS'b'
tRp803
((I1
(L1L
tg21
I00
(lp804
S'Number'
p805
at(Nttba(lp806
g17
(g25
(I0
tS'b'
tRp807
(I1
(L1L
tg21
I00
(lp808
g1
(g10
g3
NtRp809
(dp810
g13
g1
(g14
g3
NtRp811
((lp812
g17
(g18
(I0
tS'b'
tRp813
((I1
(L1L
tg21
I00
(lp814
S'Int'
p815
at(Nttba(lp816
g17
(g25
(I0
tS'b'
tRp817
(I1
(L1L
tg21
I00
(lp818
g1
(g10
g3
NtRp819
(dp820
g13
g1
(g14
g3
NtRp821
((lp822
g17
(g18
(I0
tS'b'
tRp823
((I1
(L1L
tg21
I00
(lp824
S'_3_'
p825
at(Nttba(lp826
g17
(g25
(I0
tS'b'
tRp827
(I1
(L1L
tg21
I00
(lp828
g1
(g10
g3
NtRp829
(dp830
g13
g1
(g14
g3
NtRp831
((lp832
g17
(g18
(I0
tS'b'
tRp833
((I1
(L0L
tg21
I00
(lt(Nttba(lp834
g17
(g25
(I0
tS'b'
tRp835
(I1
(L0L
tg21
I00
(ltba(lp836
g833
atbsg94
S'3'
sbatba(lp837
g823
atbsg94
g815
sbatba(lp838
g813
atbsg94
g805
sbatba(lp839
g803
atbsg94
g795
sbatba(lp840
g793
atbsg94
S'Val_label'
p841
sbatba(lp842
g731
atbsg94
g714
sbag1
(g10
g3
NtRp843
(dp844
g13
g1
(g14
g3
NtRp845
((lp846
g17
(g18
(I0
tS'b'
tRp847
((I1
(L0L
tg21
I00
(lt(Nttba(lp848
g17
(g25
(I0
tS'b'
tRp849
(I1
(L0L
tg21
I00
(ltba(lp850
g847
atbsg94
S')'
sbatba(lp851
g711
atbsg94
g701
sbag1
(g10
g3
NtRp852
(dp853
g13
g1
(g14
g3
NtRp854
((lp855
g17
(g18
(I0
tS'b'
tRp856
((I1
(L0L
tg21
I00
(lt(Nttba(lp857
g17
(g25
(I0
tS'b'
tRp858
(I1
(L0L
tg21
I00
(ltba(lp859
g856
atbsg94
S'/'
sbag1
(g10
g3
NtRp860
(dp861
g13
g1
(g14
g3
NtRp862
((lp863
g17
(g18
(I0
tS'b'
tRp864
((I1
(L1L
tg21
I00
(lp865
S'Val'
p866
at(Nttba(lp867
g17
(g25
(I0
tS'b'
tRp868
(I1
(L1L
tg21
I00
(lp869
g1
(g10
g3
NtRp870
(dp871
g13
g1
(g14
g3
NtRp872
((lp873
g17
(g18
(I0
tS'b'
tRp874
((I1
(L1L
tg21
I00
(lp875
S'Var'
p876
at(Nttba(lp877
g17
(g25
(I0
tS'b'
tRp878
(I1
(L1L
tg21
I00
(lp879
g1
(g10
g3
NtRp880
(dp881
g13
g1
(g14
g3
NtRp882
((lp883
g17
(g18
(I0
tS'b'
tRp884
((I1
(L1L
tg21
I00
(lp885
S'_x_'
p886
at(Nttba(lp887
g17
(g25
(I0
tS'b'
tRp888
(I1
(L1L
tg21
I00
(lp889
g1
(g10
g3
NtRp890
(dp891
g13
g1
(g14
g3
NtRp892
((lp893
g17
(g18
(I0
tS'b'
tRp894
((I1
(L0L
tg21
I00
(lt(Nttba(lp895
g17
(g25
(I0
tS'b'
tRp896
(I1
(L0L
tg21
I00
(ltba(lp897
g894
atbsg94
S'x'
sbatba(lp898
g884
atbsg94
g876
sbatba(lp899
g874
atbsg94
g866
sbatba(lp900
g864
atbsg94
g703
sbatba(lp901
g699
atbsg94
g429
sbatba(lp902
g425
atbsg94
g415
sbag1
(g10
g3
NtRp903
(dp904
g13
g1
(g14
g3
NtRp905
((lp906
g17
(g18
(I0
tS'b'
tRp907
((I1
(L0L
tg21
I00
(lt(Nttba(lp908
g17
(g25
(I0
tS'b'
tRp909
(I1
(L0L
tg21
I00
(ltba(lp910
g907
atbsg94
S'-'
sbag1
(g10
g3
NtRp911
(dp912
g13
g1
(g14
g3
NtRp913
((lp914
g17
(g18
(I0
tS'b'
tRp915
((I1
(L1L
tg21
I00
(lp916
S'Val'
p917
at(Nttba(lp918
g17
(g25
(I0
tS'b'
tRp919
(I1
(L1L
tg21
I00
(lp920
g1
(g10
g3
NtRp921
(dp922
g13
g1
(g14
g3
NtRp923
((lp924
g17
(g18
(I0
tS'b'
tRp925
((I1
(L1L
tg21
I00
(lp926
S'Number'
p927
at(Nttba(lp928
g17
(g25
(I0
tS'b'
tRp929
(I1
(L1L
tg21
I00
(lp930
g1
(g10
g3
NtRp931
(dp932
g13
g1
(g14
g3
NtRp933
((lp934
g17
(g18
(I0
tS'b'
tRp935
((I1
(L1L
tg21
I00
(lp936
S'Float'
p937
at(Nttba(lp938
g17
(g25
(I0
tS'b'
tRp939
(I1
(L1L
tg21
I00
(lp940
g1
(g10
g3
NtRp941
(dp942
g13
g1
(g14
g3
NtRp943
((lp944
g17
(g18
(I0
tS'b'
tRp945
((I1
(L1L
tg21
I00
(lp946
S'_1.3e4_'
p947
at(Nttba(lp948
g17
(g25
(I0
tS'b'
tRp949
(I1
(L1L
tg21
I00
(lp950
g1
(g10
g3
NtRp951
(dp952
g13
g1
(g14
g3
NtRp953
((lp954
g17
(g18
(I0
tS'b'
tRp955
((I1
(L0L
tg21
I00
(lt(Nttba(lp956
g17
(g25
(I0
tS'b'
tRp957
(I1
(L0L
tg21
I00
(ltba(lp958
g955
atbsg94
S'1.3e4'
p959
sbatba(lp960
g945
atbsg94
g937
sbatba(lp961
g935
atbsg94
g927
sbatba(lp962
g925
atbsg94
g917
sbatba(lp963
g915
atbsg94
g417
sbatba(lp964
g413
atbsg94
g403
sbag1
(g10
g3
NtRp965
(dp966
g13
g1
(g14
g3
NtRp967
((lp968
g17
(g18
(I0
tS'b'
tRp969
((I1
(L0L
tg21
I00
(lt(Nttba(lp970
g17
(g25
(I0
tS'b'
tRp971
(I1
(L0L
tg21
I00
(ltba(lp972
g969
atbsg94
S'+'
sbag1
(g10
g3
NtRp973
(dp974
g13
g1
(g14
g3
NtRp975
((lp976
g17
(g18
(I0
tS'b'
tRp977
((I1
(L1L
tg21
I00
(lp978
S'Val'
p979
at(Nttba(lp980
g17
(g25
(I0
tS'b'
tRp981
(I1
(L1L
tg21
I00
(lp982
g1
(g10
g3
NtRp983
(dp984
g13
g1
(g14
g3
NtRp985
((lp986
g17
(g18
(I0
tS'b'
tRp987
((I1
(L1L
tg21
I00
(lp988
S'Number'
p989
at(Nttba(lp990
g17
(g25
(I0
tS'b'
tRp991
(I1
(L1L
tg21
I00
(lp992
g1
(g10
g3
NtRp993
(dp994
g13
g1
(g14
g3
NtRp995
((lp996
g17
(g18
(I0
tS'b'
tRp997
((I1
(L1L
tg21
I00
(lp998
S'Int'
p999
at(Nttba(lp1000
g17
(g25
(I0
tS'b'
tRp1001
(I1
(L1L
tg21
I00
(lp1002
g1
(g10
g3
NtRp1003
(dp1004
g13
g1
(g14
g3
NtRp1005
((lp1006
g17
(g18
(I0
tS'b'
tRp1007
((I1
(L1L
tg21
I00
(lp1008
S'_2_'
p1009
at(Nttba(lp1010
g17
(g25
(I0
tS'b'
tRp1011
(I1
(L1L
tg21
I00
(lp1012
g1
(g10
g3
NtRp1013
(dp1014
g13
g1
(g14
g3
NtRp1015
((lp1016
g17
(g18
(I0
tS'b'
tRp1017
((I1
(L0L
tg21
I00
(lt(Nttba(lp1018
g17
(g25
(I0
tS'b'
tRp1019
(I1
(L0L
tg21
I00
(ltba(lp1020
g1017
atbsg94
S'2'
sbatba(lp1021
g1007
atbsg94
g999
sbatba(lp1022
g997
atbsg94
g989
sbatba(lp1023
g987
atbsg94
g979
sbatba(lp1024
g977
atbsg94
g405
sbatba(lp1025
g401
atbsg94
g391
sbag1
(g10
g3
NtRp1026
(dp1027
g13
g1
(g14
g3
NtRp1028
((lp1029
g17
(g18
(I0
tS'b'
tRp1030
((I1
(L0L
tg21
I00
(lt(Nttba(lp1031
g17
(g25
(I0
tS'b'
tRp1032
(I1
(L0L
tg21
I00
(ltba(lp1033
g1030
atbsg94
S'+'
sbag1
(g10
g3
NtRp1034
(dp1035
g13
g1
(g14
g3
NtRp1036
((lp1037
g17
(g18
(I0
tS'b'
tRp1038
((I1
(L1L
tg21
I00
(lp1039
S'Val'
p1040
at(Nttba(lp1041
g17
(g25
(I0
tS'b'
tRp1042
(I1
(L1L
tg21
I00
(lp1043
g1
(g10
g3
NtRp1044
(dp1045
g13
g1
(g14
g3
NtRp1046
((lp1047
g17
(g18
(I0
tS'b'
tRp1048
((I1
(L1L
tg21
I00
(lp1049
S'Number'
p1050
at(Nttba(lp1051
g17
(g25
(I0
tS'b'
tRp1052
(I1
(L1L
tg21
I00
(lp1053
g1
(g10
g3
NtRp1054
(dp1055
g13
g1
(g14
g3
NtRp1056
((lp1057
g17
(g18
(I0
tS'b'
tRp1058
((I1
(L1L
tg21
I00
(lp1059
S'Int'
p1060
at(Nttba(lp1061
g17
(g25
(I0
tS'b'
tRp1062
(I1
(L1L
tg21
I00
(lp1063
g1
(g10
g3
NtRp1064
(dp1065
g13
g1
(g14
g3
NtRp1066
((lp1067
g17
(g18
(I0
tS'b'
tRp1068
((I1
(L1L
tg21
I00
(lp1069
S'_5_'
p1070
at(Nttba(lp1071
g17
(g25
(I0
tS'b'
tRp1072
(I1
(L1L
tg21
I00
(lp1073
g1
(g10
g3
NtRp1074
(dp1075
g13
g1
(g14
g3
NtRp1076
((lp1077
g17
(g18
(I0
tS'b'
tRp1078
((I1
(L0L
tg21
I00
(lt(Nttba(lp1079
g17
(g25
(I0
tS'b'
tRp1080
(I1
(L0L
tg21
I00
(ltba(lp1081
g1078
atbsg94
S'5'
sbatba(lp1082
g1068
atbsg94
g1060
sbatba(lp1083
g1058
atbsg94
g1050
sbatba(lp1084
g1048
atbsg94
g1040
sbatba(lp1085
g1038
atbsg94
g393
sbatba(lp1086
g389
atbsg94
g381
sbatba(lp1087
g379
atbsg94
g371
sbatba(lp1088
g369
atbsg94
g352
sbatba(lp1089
g349
atbsg94
g340
sbag1
(g10
g3
NtRp1090
(dp1091
g13
g1
(g14
g3
NtRp1092
((lp1093
g17
(g18
(I0
tS'b'
tRp1094
((I1
(L0L
tg21
I00
(lt(Nttba(lp1095
g17
(g25
(I0
tS'b'
tRp1096
(I1
(L0L
tg21
I00
(ltba(lp1097
g1094
atbsg94
S';'
sbatba(lp1098
g338
atbsg94
g330
sbatba(lp1099
g328
atbsg94
S'Stmt'
p1100
sbatba(lp1101
g221
atbsg94
g192
sbag1
(g10
g3
NtRp1102
(dp1103
g13
g1
(g14
g3
NtRp1104
((lp1105
g17
(g18
(I0
tS'b'
tRp1106
((I1
(L1L
tg21
I00
(lp1107
S'_$blockend_'
p1108
at(Nttba(lp1109
g17
(g25
(I0
tS'b'
tRp1110
(I1
(L1L
tg21
I00
(lp1111
g1
(g10
g3
NtRp1112
(dp1113
g13
g1
(g14
g3
NtRp1114
((lp1115
g17
(g18
(I0
tS'b'
tRp1116
((I1
(L0L
tg21
I00
(lt(Nttba(lp1117
g17
(g25
(I0
tS'b'
tRp1118
(I1
(L0L
tg21
I00
(ltba(lp1119
g1116
atbsg94
S'$blockend'
p1120
sbatba(lp1121
g1106
atbsg94
g193
sbatba(lp1122
g189
atbsg94
g58
sbatba(lp1123
g55
atbsg94
g47
sbatba(lp1124
g45
atbsg94
S'Stmt'
p1125
sbag1
(g10
g3
NtRp1126
(dp1127
g13
g1
(g14
g3
NtRp1128
((lp1129
g17
(g18
(I0
tS'b'
tRp1130
((I1
(L1L
tg21
I00
(lp1131
S'Single_stmt'
p1132
at(Nttba(lp1133
g17
(g25
(I0
tS'b'
tRp1134
(I1
(L1L
tg21
I00
(lp1135
g1
(g10
g3
NtRp1136
(dp1137
g13
g1
(g14
g3
NtRp1138
((lp1139
g17
(g18
(I0
tS'b'
tRp1140
((I1
(L2L
tg21
I00
(lp1141
S'Assign_stmt'
p1142
aS'_;_'
p1143
at(Nttba(lp1144
g17
(g25
(I0
tS'b'
tRp1145
(I1
(L2L
tg21
I00
(lp1146
g1
(g10
g3
NtRp1147
(dp1148
g13
g1
(g14
g3
NtRp1149
((lp1150
g17
(g18
(I0
tS'b'
tRp1151
((I1
(L1L
tg21
I00
(lp1152
S'Assign'
p1153
at(Nttba(lp1154
g17
(g25
(I0
tS'b'
tRp1155
(I1
(L1L
tg21
I00
(lp1156
g1
(g10
g3
NtRp1157
(dp1158
g13
g1
(g14
g3
NtRp1159
((lp1160
g17
(g18
(I0
tS'b'
tRp1161
((I1
(L3L
tg21
I00
(lp1162
S'Varlist'
p1163
aS'_=_'
p1164
aS'Exprlist'
p1165
at(Nttba(lp1166
g17
(g25
(I0
tS'b'
tRp1167
(I1
(L3L
tg21
I00
(lp1168
g1
(g10
g3
NtRp1169
(dp1170
g13
g1
(g14
g3
NtRp1171
((lp1172
g17
(g18
(I0
tS'b'
tRp1173
((I1
(L1L
tg21
I00
(lp1174
S'Vartuple'
p1175
at(Nttba(lp1176
g17
(g25
(I0
tS'b'
tRp1177
(I1
(L1L
tg21
I00
(lp1178
g1
(g10
g3
NtRp1179
(dp1180
g13
g1
(g14
g3
NtRp1181
((lp1182
g17
(g18
(I0
tS'b'
tRp1183
((I1
(L1L
tg21
I00
(lp1184
S'Var'
p1185
at(Nttba(lp1186
g17
(g25
(I0
tS'b'
tRp1187
(I1
(L1L
tg21
I00
(lp1188
g1
(g10
g3
NtRp1189
(dp1190
g13
g1
(g14
g3
NtRp1191
((lp1192
g17
(g18
(I0
tS'b'
tRp1193
((I1
(L1L
tg21
I00
(lp1194
S'_L_'
p1195
at(Nttba(lp1196
g17
(g25
(I0
tS'b'
tRp1197
(I1
(L1L
tg21
I00
(lp1198
g1
(g10
g3
NtRp1199
(dp1200
g13
g1
(g14
g3
NtRp1201
((lp1202
g17
(g18
(I0
tS'b'
tRp1203
((I1
(L0L
tg21
I00
(lt(Nttba(lp1204
g17
(g25
(I0
tS'b'
tRp1205
(I1
(L0L
tg21
I00
(ltba(lp1206
g1203
atbsg94
S'L'
sbatba(lp1207
g1193
atbsg94
g1185
sbatba(lp1208
g1183
atbsg94
g1175
sbatba(lp1209
g1173
atbsg94
g1163
sbag1
(g10
g3
NtRp1210
(dp1211
g13
g1
(g14
g3
NtRp1212
((lp1213
g17
(g18
(I0
tS'b'
tRp1214
((I1
(L0L
tg21
I00
(lt(Nttba(lp1215
g17
(g25
(I0
tS'b'
tRp1216
(I1
(L0L
tg21
I00
(ltba(lp1217
g1214
atbsg94
S'='
sbag1
(g10
g3
NtRp1218
(dp1219
g13
g1
(g14
g3
NtRp1220
((lp1221
g17
(g18
(I0
tS'b'
tRp1222
((I1
(L1L
tg21
I00
(lp1223
S'Expr'
p1224
at(Nttba(lp1225
g17
(g25
(I0
tS'b'
tRp1226
(I1
(L1L
tg21
I00
(lp1227
g1
(g10
g3
NtRp1228
(dp1229
g13
g1
(g14
g3
NtRp1230
((lp1231
g17
(g18
(I0
tS'b'
tRp1232
((I1
(L1L
tg21
I00
(lp1233
S'Dot_calc'
p1234
at(Nttba(lp1235
g17
(g25
(I0
tS'b'
tRp1236
(I1
(L1L
tg21
I00
(lp1237
g1
(g10
g3
NtRp1238
(dp1239
g13
g1
(g14
g3
NtRp1240
((lp1241
g17
(g18
(I0
tS'b'
tRp1242
((I1
(L3L
tg21
I00
(lp1243
S'Val_label1'
p1244
aS'_*_'
p1245
aS'Val_label2'
p1246
at(Nttba(lp1247
g17
(g25
(I0
tS'b'
tRp1248
(I1
(L3L
tg21
I00
(lp1249
g1
(g10
g3
NtRp1250
(dp1251
g13
g1
(g14
g3
NtRp1252
((lp1253
g17
(g18
(I0
tS'b'
tRp1254
((I1
(L1L
tg21
I00
(lp1255
S'Val'
p1256
at(Nttba(lp1257
g17
(g25
(I0
tS'b'
tRp1258
(I1
(L1L
tg21
I00
(lp1259
g1
(g10
g3
NtRp1260
(dp1261
g13
g1
(g14
g3
NtRp1262
((lp1263
g17
(g18
(I0
tS'b'
tRp1264
((I1
(L1L
tg21
I00
(lp1265
S'List'
p1266
at(Nttba(lp1267
g17
(g25
(I0
tS'b'
tRp1268
(I1
(L1L
tg21
I00
(lp1269
g1
(g10
g3
NtRp1270
(dp1271
g13
g1
(g14
g3
NtRp1272
((lp1273
g17
(g18
(I0
tS'b'
tRp1274
((I1
(L3L
tg21
I00
(lp1275
S'_[_'
p1276
aS'Exprlist'
p1277
aS'_]_'
p1278
at(Nttba(lp1279
g17
(g25
(I0
tS'b'
tRp1280
(I1
(L3L
tg21
I00
(lp1281
g1
(g10
g3
NtRp1282
(dp1283
g13
g1
(g14
g3
NtRp1284
((lp1285
g17
(g18
(I0
tS'b'
tRp1286
((I1
(L0L
tg21
I00
(lt(Nttba(lp1287
g17
(g25
(I0
tS'b'
tRp1288
(I1
(L0L
tg21
I00
(ltba(lp1289
g1286
atbsg94
S'['
sbag1
(g10
g3
NtRp1290
(dp1291
g13
g1
(g14
g3
NtRp1292
((lp1293
g17
(g18
(I0
tS'b'
tRp1294
((I1
(L1L
tg21
I00
(lp1295
S'Expr'
p1296
at(Nttba(lp1297
g17
(g25
(I0
tS'b'
tRp1298
(I1
(L1L
tg21
I00
(lp1299
g1
(g10
g3
NtRp1300
(dp1301
g13
g1
(g14
g3
NtRp1302
((lp1303
g17
(g18
(I0
tS'b'
tRp1304
((I1
(L1L
tg21
I00
(lp1305
S'Val_label'
p1306
at(Nttba(lp1307
g17
(g25
(I0
tS'b'
tRp1308
(I1
(L1L
tg21
I00
(lp1309
g1
(g10
g3
NtRp1310
(dp1311
g13
g1
(g14
g3
NtRp1312
((lp1313
g17
(g18
(I0
tS'b'
tRp1314
((I1
(L1L
tg21
I00
(lp1315
S'Val'
p1316
at(Nttba(lp1317
g17
(g25
(I0
tS'b'
tRp1318
(I1
(L1L
tg21
I00
(lp1319
g1
(g10
g3
NtRp1320
(dp1321
g13
g1
(g14
g3
NtRp1322
((lp1323
g17
(g18
(I0
tS'b'
tRp1324
((I1
(L1L
tg21
I00
(lp1325
S'Number'
p1326
at(Nttba(lp1327
g17
(g25
(I0
tS'b'
tRp1328
(I1
(L1L
tg21
I00
(lp1329
g1
(g10
g3
NtRp1330
(dp1331
g13
g1
(g14
g3
NtRp1332
((lp1333
g17
(g18
(I0
tS'b'
tRp1334
((I1
(L1L
tg21
I00
(lp1335
S'Int'
p1336
at(Nttba(lp1337
g17
(g25
(I0
tS'b'
tRp1338
(I1
(L1L
tg21
I00
(lp1339
g1
(g10
g3
NtRp1340
(dp1341
g13
g1
(g14
g3
NtRp1342
((lp1343
g17
(g18
(I0
tS'b'
tRp1344
((I1
(L1L
tg21
I00
(lp1345
S'_0_'
p1346
at(Nttba(lp1347
g17
(g25
(I0
tS'b'
tRp1348
(I1
(L1L
tg21
I00
(lp1349
g1
(g10
g3
NtRp1350
(dp1351
g13
g1
(g14
g3
NtRp1352
((lp1353
g17
(g18
(I0
tS'b'
tRp1354
((I1
(L0L
tg21
I00
(lt(Nttba(lp1355
g17
(g25
(I0
tS'b'
tRp1356
(I1
(L0L
tg21
I00
(ltba(lp1357
g1354
atbsg94
S'0'
sbatba(lp1358
g1344
atbsg94
g1336
sbatba(lp1359
g1334
atbsg94
g1326
sbatba(lp1360
g1324
atbsg94
g1316
sbatba(lp1361
g1314
atbsg94
g1306
sbatba(lp1362
g1304
atbsg94
g1296
sbatba(lp1363
g1294
atbsg94
g1277
sbag1
(g10
g3
NtRp1364
(dp1365
g13
g1
(g14
g3
NtRp1366
((lp1367
g17
(g18
(I0
tS'b'
tRp1368
((I1
(L0L
tg21
I00
(lt(Nttba(lp1369
g17
(g25
(I0
tS'b'
tRp1370
(I1
(L0L
tg21
I00
(ltba(lp1371
g1368
atbsg94
S']'
sbatba(lp1372
g1274
atbsg94
g1266
sbatba(lp1373
g1264
atbsg94
g1256
sbatba(lp1374
g1254
atbsg94
S'Val_label'
p1375
sbag1
(g10
g3
NtRp1376
(dp1377
g13
g1
(g14
g3
NtRp1378
((lp1379
g17
(g18
(I0
tS'b'
tRp1380
((I1
(L0L
tg21
I00
(lt(Nttba(lp1381
g17
(g25
(I0
tS'b'
tRp1382
(I1
(L0L
tg21
I00
(ltba(lp1383
g1380
atbsg94
S'*'
sbag1
(g10
g3
NtRp1384
(dp1385
g13
g1
(g14
g3
NtRp1386
((lp1387
g17
(g18
(I0
tS'b'
tRp1388
((I1
(L1L
tg21
I00
(lp1389
S'Val'
p1390
at(Nttba(lp1391
g17
(g25
(I0
tS'b'
tRp1392
(I1
(L1L
tg21
I00
(lp1393
g1
(g10
g3
NtRp1394
(dp1395
g13
g1
(g14
g3
NtRp1396
((lp1397
g17
(g18
(I0
tS'b'
tRp1398
((I1
(L1L
tg21
I00
(lp1399
S'Number'
p1400
at(Nttba(lp1401
g17
(g25
(I0
tS'b'
tRp1402
(I1
(L1L
tg21
I00
(lp1403
g1
(g10
g3
NtRp1404
(dp1405
g13
g1
(g14
g3
NtRp1406
((lp1407
g17
(g18
(I0
tS'b'
tRp1408
((I1
(L1L
tg21
I00
(lp1409
S'Int'
p1410
at(Nttba(lp1411
g17
(g25
(I0
tS'b'
tRp1412
(I1
(L1L
tg21
I00
(lp1413
g1
(g10
g3
NtRp1414
(dp1415
g13
g1
(g14
g3
NtRp1416
((lp1417
g17
(g18
(I0
tS'b'
tRp1418
((I1
(L1L
tg21
I00
(lp1419
S'_10_'
p1420
at(Nttba(lp1421
g17
(g25
(I0
tS'b'
tRp1422
(I1
(L1L
tg21
I00
(lp1423
g1
(g10
g3
NtRp1424
(dp1425
g13
g1
(g14
g3
NtRp1426
((lp1427
g17
(g18
(I0
tS'b'
tRp1428
((I1
(L0L
tg21
I00
(lt(Nttba(lp1429
g17
(g25
(I0
tS'b'
tRp1430
(I1
(L0L
tg21
I00
(ltba(lp1431
g1428
atbsg94
S'10'
p1432
sbatba(lp1433
g1418
atbsg94
g1410
sbatba(lp1434
g1408
atbsg94
g1400
sbatba(lp1435
g1398
atbsg94
g1390
sbatba(lp1436
g1388
atbsg94
S'Val_label'
p1437
sbatba(lp1438
g1242
atbsg94
g1234
sbatba(lp1439
g1232
atbsg94
g1224
sbatba(lp1440
g1222
atbsg94
g1165
sbatba(lp1441
g1161
atbsg94
g1153
sbatba(lp1442
g1151
atbsg94
g1142
sbag1
(g10
g3
NtRp1443
(dp1444
g13
g1
(g14
g3
NtRp1445
((lp1446
g17
(g18
(I0
tS'b'
tRp1447
((I1
(L0L
tg21
I00
(lt(Nttba(lp1448
g17
(g25
(I0
tS'b'
tRp1449
(I1
(L0L
tg21
I00
(ltba(lp1450
g1447
atbsg94
S';'
sbatba(lp1451
g1140
atbsg94
g1132
sbatba(lp1452
g1130
atbsg94
S'Stmt'
p1453
sbag1
(g10
g3
NtRp1454
(dp1455
g13
g1
(g14
g3
NtRp1456
((lp1457
g17
(g18
(I0
tS'b'
tRp1458
((I1
(L1L
tg21
I00
(lp1459
S'Block_stmt'
p1460
at(Nttba(lp1461
g17
(g25
(I0
tS'b'
tRp1462
(I1
(L1L
tg21
I00
(lp1463
g1
(g10
g3
NtRp1464
(dp1465
g13
g1
(g14
g3
NtRp1466
((lp1467
g17
(g18
(I0
tS'b'
tRp1468
((I1
(L2L
tg21
I00
(lp1469
S'Block_head'
p1470
aS'Block'
p1471
at(Nttba(lp1472
g17
(g25
(I0
tS'b'
tRp1473
(I1
(L2L
tg21
I00
(lp1474
g1
(g10
g3
NtRp1475
(dp1476
g13
g1
(g14
g3
NtRp1477
((lp1478
g17
(g18
(I0
tS'b'
tRp1479
((I1
(L1L
tg21
I00
(lp1480
S'Loop'
p1481
at(Nttba(lp1482
g17
(g25
(I0
tS'b'
tRp1483
(I1
(L1L
tg21
I00
(lp1484
g1
(g10
g3
NtRp1485
(dp1486
g13
g1
(g14
g3
NtRp1487
((lp1488
g17
(g18
(I0
tS'b'
tRp1489
((I1
(L1L
tg21
I00
(lp1490
S'For'
p1491
at(Nttba(lp1492
g17
(g25
(I0
tS'b'
tRp1493
(I1
(L1L
tg21
I00
(lp1494
g1
(g10
g3
NtRp1495
(dp1496
g13
g1
(g14
g3
NtRp1497
((lp1498
g17
(g18
(I0
tS'b'
tRp1499
((I1
(L4L
tg21
I00
(lp1500
S'_for_'
p1501
aS'Varlist'
p1502
aS'_in_'
p1503
aS'Exprlist'
p1504
at(Nttba(lp1505
g17
(g25
(I0
tS'b'
tRp1506
(I1
(L4L
tg21
I00
(lp1507
g1
(g10
g3
NtRp1508
(dp1509
g13
g1
(g14
g3
NtRp1510
((lp1511
g17
(g18
(I0
tS'b'
tRp1512
((I1
(L0L
tg21
I00
(lt(Nttba(lp1513
g17
(g25
(I0
tS'b'
tRp1514
(I1
(L0L
tg21
I00
(ltba(lp1515
g1512
atbsg94
S'for'
p1516
sbag1
(g10
g3
NtRp1517
(dp1518
g13
g1
(g14
g3
NtRp1519
((lp1520
g17
(g18
(I0
tS'b'
tRp1521
((I1
(L1L
tg21
I00
(lp1522
S'Vartuple'
p1523
at(Nttba(lp1524
g17
(g25
(I0
tS'b'
tRp1525
(I1
(L1L
tg21
I00
(lp1526
g1
(g10
g3
NtRp1527
(dp1528
g13
g1
(g14
g3
NtRp1529
((lp1530
g17
(g18
(I0
tS'b'
tRp1531
((I1
(L1L
tg21
I00
(lp1532
S'Var'
p1533
at(Nttba(lp1534
g17
(g25
(I0
tS'b'
tRp1535
(I1
(L1L
tg21
I00
(lp1536
g1
(g10
g3
NtRp1537
(dp1538
g13
g1
(g14
g3
NtRp1539
((lp1540
g17
(g18
(I0
tS'b'
tRp1541
((I1
(L1L
tg21
I00
(lp1542
S'_i_'
p1543
at(Nttba(lp1544
g17
(g25
(I0
tS'b'
tRp1545
(I1
(L1L
tg21
I00
(lp1546
g1
(g10
g3
NtRp1547
(dp1548
g13
g1
(g14
g3
NtRp1549
((lp1550
g17
(g18
(I0
tS'b'
tRp1551
((I1
(L0L
tg21
I00
(lt(Nttba(lp1552
g17
(g25
(I0
tS'b'
tRp1553
(I1
(L0L
tg21
I00
(ltba(lp1554
g1551
atbsg94
S'i'
sbatba(lp1555
g1541
atbsg94
g1533
sbatba(lp1556
g1531
atbsg94
g1523
sbatba(lp1557
g1521
atbsg94
g1502
sbag1
(g10
g3
NtRp1558
(dp1559
g13
g1
(g14
g3
NtRp1560
((lp1561
g17
(g18
(I0
tS'b'
tRp1562
((I1
(L0L
tg21
I00
(lt(Nttba(lp1563
g17
(g25
(I0
tS'b'
tRp1564
(I1
(L0L
tg21
I00
(ltba(lp1565
g1562
atbsg94
S'in'
p1566
sbag1
(g10
g3
NtRp1567
(dp1568
g13
g1
(g14
g3
NtRp1569
((lp1570
g17
(g18
(I0
tS'b'
tRp1571
((I1
(L1L
tg21
I00
(lp1572
S'Expr'
p1573
at(Nttba(lp1574
g17
(g25
(I0
tS'b'
tRp1575
(I1
(L1L
tg21
I00
(lp1576
g1
(g10
g3
NtRp1577
(dp1578
g13
g1
(g14
g3
NtRp1579
((lp1580
g17
(g18
(I0
tS'b'
tRp1581
((I1
(L1L
tg21
I00
(lp1582
S'Funccall'
p1583
at(Nttba(lp1584
g17
(g25
(I0
tS'b'
tRp1585
(I1
(L1L
tg21
I00
(lp1586
g1
(g10
g3
NtRp1587
(dp1588
g13
g1
(g14
g3
NtRp1589
((lp1590
g17
(g18
(I0
tS'b'
tRp1591
((I1
(L4L
tg21
I00
(lp1592
S'Val_label'
p1593
aS'_(_'
p1594
aS'Arglist'
p1595
aS'_)_'
p1596
at(Nttba(lp1597
g17
(g25
(I0
tS'b'
tRp1598
(I1
(L4L
tg21
I00
(lp1599
g1
(g10
g3
NtRp1600
(dp1601
g13
g1
(g14
g3
NtRp1602
((lp1603
g17
(g18
(I0
tS'b'
tRp1604
((I1
(L1L
tg21
I00
(lp1605
S'Val'
p1606
at(Nttba(lp1607
g17
(g25
(I0
tS'b'
tRp1608
(I1
(L1L
tg21
I00
(lp1609
g1
(g10
g3
NtRp1610
(dp1611
g13
g1
(g14
g3
NtRp1612
((lp1613
g17
(g18
(I0
tS'b'
tRp1614
((I1
(L1L
tg21
I00
(lp1615
S'Var'
p1616
at(Nttba(lp1617
g17
(g25
(I0
tS'b'
tRp1618
(I1
(L1L
tg21
I00
(lp1619
g1
(g10
g3
NtRp1620
(dp1621
g13
g1
(g14
g3
NtRp1622
((lp1623
g17
(g18
(I0
tS'b'
tRp1624
((I1
(L1L
tg21
I00
(lp1625
S'_range_'
p1626
at(Nttba(lp1627
g17
(g25
(I0
tS'b'
tRp1628
(I1
(L1L
tg21
I00
(lp1629
g1
(g10
g3
NtRp1630
(dp1631
g13
g1
(g14
g3
NtRp1632
((lp1633
g17
(g18
(I0
tS'b'
tRp1634
((I1
(L0L
tg21
I00
(lt(Nttba(lp1635
g17
(g25
(I0
tS'b'
tRp1636
(I1
(L0L
tg21
I00
(ltba(lp1637
g1634
atbsg94
S'range'
p1638
sbatba(lp1639
g1624
atbsg94
g1616
sbatba(lp1640
g1614
atbsg94
g1606
sbatba(lp1641
g1604
atbsg94
g1593
sbag1
(g10
g3
NtRp1642
(dp1643
g13
g1
(g14
g3
NtRp1644
((lp1645
g17
(g18
(I0
tS'b'
tRp1646
((I1
(L0L
tg21
I00
(lt(Nttba(lp1647
g17
(g25
(I0
tS'b'
tRp1648
(I1
(L0L
tg21
I00
(ltba(lp1649
g1646
atbsg94
S'('
sbag1
(g10
g3
NtRp1650
(dp1651
g13
g1
(g14
g3
NtRp1652
((lp1653
g17
(g18
(I0
tS'b'
tRp1654
((I1
(L1L
tg21
I00
(lp1655
S'Pos_arglist'
p1656
at(Nttba(lp1657
g17
(g25
(I0
tS'b'
tRp1658
(I1
(L1L
tg21
I00
(lp1659
g1
(g10
g3
NtRp1660
(dp1661
g13
g1
(g14
g3
NtRp1662
((lp1663
g17
(g18
(I0
tS'b'
tRp1664
((I1
(L1L
tg21
I00
(lp1665
S'Pos_arg'
p1666
at(Nttba(lp1667
g17
(g25
(I0
tS'b'
tRp1668
(I1
(L1L
tg21
I00
(lp1669
g1
(g10
g3
NtRp1670
(dp1671
g13
g1
(g14
g3
NtRp1672
((lp1673
g17
(g18
(I0
tS'b'
tRp1674
((I1
(L1L
tg21
I00
(lp1675
S'Expr'
p1676
at(Nttba(lp1677
g17
(g25
(I0
tS'b'
tRp1678
(I1
(L1L
tg21
I00
(lp1679
g1
(g10
g3
NtRp1680
(dp1681
g13
g1
(g14
g3
NtRp1682
((lp1683
g17
(g18
(I0
tS'b'
tRp1684
((I1
(L1L
tg21
I00
(lp1685
S'Funccall'
p1686
at(Nttba(lp1687
g17
(g25
(I0
tS'b'
tRp1688
(I1
(L1L
tg21
I00
(lp1689
g1
(g10
g3
NtRp1690
(dp1691
g13
g1
(g14
g3
NtRp1692
((lp1693
g17
(g18
(I0
tS'b'
tRp1694
((I1
(L4L
tg21
I00
(lp1695
S'Val_label'
p1696
aS'_(_'
p1697
aS'Arglist'
p1698
aS'_)_'
p1699
at(Nttba(lp1700
g17
(g25
(I0
tS'b'
tRp1701
(I1
(L4L
tg21
I00
(lp1702
g1
(g10
g3
NtRp1703
(dp1704
g13
g1
(g14
g3
NtRp1705
((lp1706
g17
(g18
(I0
tS'b'
tRp1707
((I1
(L1L
tg21
I00
(lp1708
S'Val'
p1709
at(Nttba(lp1710
g17
(g25
(I0
tS'b'
tRp1711
(I1
(L1L
tg21
I00
(lp1712
g1
(g10
g3
NtRp1713
(dp1714
g13
g1
(g14
g3
NtRp1715
((lp1716
g17
(g18
(I0
tS'b'
tRp1717
((I1
(L1L
tg21
I00
(lp1718
S'Var'
p1719
at(Nttba(lp1720
g17
(g25
(I0
tS'b'
tRp1721
(I1
(L1L
tg21
I00
(lp1722
g1
(g10
g3
NtRp1723
(dp1724
g13
g1
(g14
g3
NtRp1725
((lp1726
g17
(g18
(I0
tS'b'
tRp1727
((I1
(L1L
tg21
I00
(lp1728
S'_len_'
p1729
at(Nttba(lp1730
g17
(g25
(I0
tS'b'
tRp1731
(I1
(L1L
tg21
I00
(lp1732
g1
(g10
g3
NtRp1733
(dp1734
g13
g1
(g14
g3
NtRp1735
((lp1736
g17
(g18
(I0
tS'b'
tRp1737
((I1
(L0L
tg21
I00
(lt(Nttba(lp1738
g17
(g25
(I0
tS'b'
tRp1739
(I1
(L0L
tg21
I00
(ltba(lp1740
g1737
atbsg94
S'len'
p1741
sbatba(lp1742
g1727
atbsg94
g1719
sbatba(lp1743
g1717
atbsg94
g1709
sbatba(lp1744
g1707
atbsg94
g1696
sbag1
(g10
g3
NtRp1745
(dp1746
g13
g1
(g14
g3
NtRp1747
((lp1748
g17
(g18
(I0
tS'b'
tRp1749
((I1
(L0L
tg21
I00
(lt(Nttba(lp1750
g17
(g25
(I0
tS'b'
tRp1751
(I1
(L0L
tg21
I00
(ltba(lp1752
g1749
atbsg94
S'('
sbag1
(g10
g3
NtRp1753
(dp1754
g13
g1
(g14
g3
NtRp1755
((lp1756
g17
(g18
(I0
tS'b'
tRp1757
((I1
(L1L
tg21
I00
(lp1758
S'Pos_arglist'
p1759
at(Nttba(lp1760
g17
(g25
(I0
tS'b'
tRp1761
(I1
(L1L
tg21
I00
(lp1762
g1
(g10
g3
NtRp1763
(dp1764
g13
g1
(g14
g3
NtRp1765
((lp1766
g17
(g18
(I0
tS'b'
tRp1767
((I1
(L1L
tg21
I00
(lp1768
S'Pos_arg'
p1769
at(Nttba(lp1770
g17
(g25
(I0
tS'b'
tRp1771
(I1
(L1L
tg21
I00
(lp1772
g1
(g10
g3
NtRp1773
(dp1774
g13
g1
(g14
g3
NtRp1775
((lp1776
g17
(g18
(I0
tS'b'
tRp1777
((I1
(L1L
tg21
I00
(lp1778
S'Expr'
p1779
at(Nttba(lp1780
g17
(g25
(I0
tS'b'
tRp1781
(I1
(L1L
tg21
I00
(lp1782
g1
(g10
g3
NtRp1783
(dp1784
g13
g1
(g14
g3
NtRp1785
((lp1786
g17
(g18
(I0
tS'b'
tRp1787
((I1
(L1L
tg21
I00
(lp1788
S'Val_label'
p1789
at(Nttba(lp1790
g17
(g25
(I0
tS'b'
tRp1791
(I1
(L1L
tg21
I00
(lp1792
g1
(g10
g3
NtRp1793
(dp1794
g13
g1
(g14
g3
NtRp1795
((lp1796
g17
(g18
(I0
tS'b'
tRp1797
((I1
(L1L
tg21
I00
(lp1798
S'Val'
p1799
at(Nttba(lp1800
g17
(g25
(I0
tS'b'
tRp1801
(I1
(L1L
tg21
I00
(lp1802
g1
(g10
g3
NtRp1803
(dp1804
g13
g1
(g14
g3
NtRp1805
((lp1806
g17
(g18
(I0
tS'b'
tRp1807
((I1
(L1L
tg21
I00
(lp1808
S'Var'
p1809
at(Nttba(lp1810
g17
(g25
(I0
tS'b'
tRp1811
(I1
(L1L
tg21
I00
(lp1812
g1
(g10
g3
NtRp1813
(dp1814
g13
g1
(g14
g3
NtRp1815
((lp1816
g17
(g18
(I0
tS'b'
tRp1817
((I1
(L1L
tg21
I00
(lp1818
S'_L_'
p1819
at(Nttba(lp1820
g17
(g25
(I0
tS'b'
tRp1821
(I1
(L1L
tg21
I00
(lp1822
g1
(g10
g3
NtRp1823
(dp1824
g13
g1
(g14
g3
NtRp1825
((lp1826
g17
(g18
(I0
tS'b'
tRp1827
((I1
(L0L
tg21
I00
(lt(Nttba(lp1828
g17
(g25
(I0
tS'b'
tRp1829
(I1
(L0L
tg21
I00
(ltba(lp1830
g1827
atbsg94
S'L'
sbatba(lp1831
g1817
atbsg94
g1809
sbatba(lp1832
g1807
atbsg94
g1799
sbatba(lp1833
g1797
atbsg94
g1789
sbatba(lp1834
g1787
atbsg94
g1779
sbatba(lp1835
g1777
atbsg94
g1769
sbatba(lp1836
g1767
atbsg94
g1759
sbatba(lp1837
g1757
atbsg94
g1698
sbag1
(g10
g3
NtRp1838
(dp1839
g13
g1
(g14
g3
NtRp1840
((lp1841
g17
(g18
(I0
tS'b'
tRp1842
((I1
(L0L
tg21
I00
(lt(Nttba(lp1843
g17
(g25
(I0
tS'b'
tRp1844
(I1
(L0L
tg21
I00
(ltba(lp1845
g1842
atbsg94
S')'
sbatba(lp1846
g1694
atbsg94
g1686
sbatba(lp1847
g1684
atbsg94
g1676
sbatba(lp1848
g1674
atbsg94
g1666
sbatba(lp1849
g1664
atbsg94
g1656
sbatba(lp1850
g1654
atbsg94
g1595
sbag1
(g10
g3
NtRp1851
(dp1852
g13
g1
(g14
g3
NtRp1853
((lp1854
g17
(g18
(I0
tS'b'
tRp1855
((I1
(L0L
tg21
I00
(lt(Nttba(lp1856
g17
(g25
(I0
tS'b'
tRp1857
(I1
(L0L
tg21
I00
(ltba(lp1858
g1855
atbsg94
S')'
sbatba(lp1859
g1591
atbsg94
g1583
sbatba(lp1860
g1581
atbsg94
g1573
sbatba(lp1861
g1571
atbsg94
g1504
sbatba(lp1862
g1499
atbsg94
g1491
sbatba(lp1863
g1489
atbsg94
g1481
sbatba(lp1864
g1479
atbsg94
g1470
sbag1
(g10
g3
NtRp1865
(dp1866
g13
g1
(g14
g3
NtRp1867
((lp1868
g17
(g18
(I0
tS'b'
tRp1869
((I1
(L3L
tg21
I00
(lp1870
S'Blockbegin'
p1871
aS'Prog'
p1872
aS'Blockend'
p1873
at(Nttba(lp1874
g17
(g25
(I0
tS'b'
tRp1875
(I1
(L3L
tg21
I00
(lp1876
g1
(g10
g3
NtRp1877
(dp1878
g13
g1
(g14
g3
NtRp1879
((lp1880
g17
(g18
(I0
tS'b'
tRp1881
((I1
(L1L
tg21
I00
(lp1882
S'_:$blockbegin_'
p1883
at(Nttba(lp1884
g17
(g25
(I0
tS'b'
tRp1885
(I1
(L1L
tg21
I00
(lp1886
g1
(g10
g3
NtRp1887
(dp1888
g13
g1
(g14
g3
NtRp1889
((lp1890
g17
(g18
(I0
tS'b'
tRp1891
((I1
(L0L
tg21
I00
(lt(Nttba(lp1892
g17
(g25
(I0
tS'b'
tRp1893
(I1
(L0L
tg21
I00
(ltba(lp1894
g1891
atbsg94
S':$blockbegin'
p1895
sbatba(lp1896
g1881
atbsg94
g1871
sbag1
(g10
g3
NtRp1897
(dp1898
g13
g1
(g14
g3
NtRp1899
((lp1900
g17
(g18
(I0
tS'b'
tRp1901
((I1
(L1L
tg21
I00
(lp1902
S'Stmt'
p1903
at(Nttba(lp1904
g17
(g25
(I0
tS'b'
tRp1905
(I1
(L1L
tg21
I00
(lp1906
g1
(g10
g3
NtRp1907
(dp1908
g13
g1
(g14
g3
NtRp1909
((lp1910
g17
(g18
(I0
tS'b'
tRp1911
((I1
(L1L
tg21
I00
(lp1912
S'Block_stmt'
p1913
at(Nttba(lp1914
g17
(g25
(I0
tS'b'
tRp1915
(I1
(L1L
tg21
I00
(lp1916
g1
(g10
g3
NtRp1917
(dp1918
g13
g1
(g14
g3
NtRp1919
((lp1920
g17
(g18
(I0
tS'b'
tRp1921
((I1
(L1L
tg21
I00
(lp1922
S'Ifelse'
p1923
at(Nttba(lp1924
g17
(g25
(I0
tS'b'
tRp1925
(I1
(L1L
tg21
I00
(lp1926
g1
(g10
g3
NtRp1927
(dp1928
g13
g1
(g14
g3
NtRp1929
((lp1930
g17
(g18
(I0
tS'b'
tRp1931
((I1
(L4L
tg21
I00
(lp1932
S'If'
p1933
aS'Block1'
p1934
aS'Else'
p1935
aS'Block2'
p1936
at(Nttba(lp1937
g17
(g25
(I0
tS'b'
tRp1938
(I1
(L4L
tg21
I00
(lp1939
g1
(g10
g3
NtRp1940
(dp1941
g13
g1
(g14
g3
NtRp1942
((lp1943
g17
(g18
(I0
tS'b'
tRp1944
((I1
(L2L
tg21
I00
(lp1945
S'_if_'
p1946
aS'Expr'
p1947
at(Nttba(lp1948
g17
(g25
(I0
tS'b'
tRp1949
(I1
(L2L
tg21
I00
(lp1950
g1
(g10
g3
NtRp1951
(dp1952
g13
g1
(g14
g3
NtRp1953
((lp1954
g17
(g18
(I0
tS'b'
tRp1955
((I1
(L0L
tg21
I00
(lt(Nttba(lp1956
g17
(g25
(I0
tS'b'
tRp1957
(I1
(L0L
tg21
I00
(ltba(lp1958
g1955
atbsg94
S'if'
p1959
sbag1
(g10
g3
NtRp1960
(dp1961
g13
g1
(g14
g3
NtRp1962
((lp1963
g17
(g18
(I0
tS'b'
tRp1964
((I1
(L1L
tg21
I00
(lp1965
S'Comparison'
p1966
at(Nttba(lp1967
g17
(g25
(I0
tS'b'
tRp1968
(I1
(L1L
tg21
I00
(lp1969
g1
(g10
g3
NtRp1970
(dp1971
g13
g1
(g14
g3
NtRp1972
((lp1973
g17
(g18
(I0
tS'b'
tRp1974
((I1
(L3L
tg21
I00
(lp1975
S'Val_label1'
p1976
aS'Op_cmp'
p1977
aS'Val_label2'
p1978
at(Nttba(lp1979
g17
(g25
(I0
tS'b'
tRp1980
(I1
(L3L
tg21
I00
(lp1981
g1
(g10
g3
NtRp1982
(dp1983
g13
g1
(g14
g3
NtRp1984
((lp1985
g17
(g18
(I0
tS'b'
tRp1986
((I1
(L1L
tg21
I00
(lp1987
S'Val'
p1988
at(Nttba(lp1989
g17
(g25
(I0
tS'b'
tRp1990
(I1
(L1L
tg21
I00
(lp1991
g1
(g10
g3
NtRp1992
(dp1993
g13
g1
(g14
g3
NtRp1994
((lp1995
g17
(g18
(I0
tS'b'
tRp1996
((I1
(L1L
tg21
I00
(lp1997
S'Var'
p1998
at(Nttba(lp1999
g17
(g25
(I0
tS'b'
tRp2000
(I1
(L1L
tg21
I00
(lp2001
g1
(g10
g3
NtRp2002
(dp2003
g13
g1
(g14
g3
NtRp2004
((lp2005
g17
(g18
(I0
tS'b'
tRp2006
((I1
(L1L
tg21
I00
(lp2007
S'_i_'
p2008
at(Nttba(lp2009
g17
(g25
(I0
tS'b'
tRp2010
(I1
(L1L
tg21
I00
(lp2011
g1
(g10
g3
NtRp2012
(dp2013
g13
g1
(g14
g3
NtRp2014
((lp2015
g17
(g18
(I0
tS'b'
tRp2016
((I1
(L0L
tg21
I00
(lt(Nttba(lp2017
g17
(g25
(I0
tS'b'
tRp2018
(I1
(L0L
tg21
I00
(ltba(lp2019
g2016
atbsg94
S'i'
sbatba(lp2020
g2006
atbsg94
g1998
sbatba(lp2021
g1996
atbsg94
g1988
sbatba(lp2022
g1986
atbsg94
S'Val_label'
p2023
sbag1
(g10
g3
NtRp2024
(dp2025
g13
g1
(g14
g3
NtRp2026
((lp2027
g17
(g18
(I0
tS'b'
tRp2028
((I1
(L1L
tg21
I00
(lp2029
S'_>_'
p2030
at(Nttba(lp2031
g17
(g25
(I0
tS'b'
tRp2032
(I1
(L1L
tg21
I00
(lp2033
g1
(g10
g3
NtRp2034
(dp2035
g13
g1
(g14
g3
NtRp2036
((lp2037
g17
(g18
(I0
tS'b'
tRp2038
((I1
(L0L
tg21
I00
(lt(Nttba(lp2039
g17
(g25
(I0
tS'b'
tRp2040
(I1
(L0L
tg21
I00
(ltba(lp2041
g2038
atbsg94
S'>'
sbatba(lp2042
g2028
atbsg94
g1977
sbag1
(g10
g3
NtRp2043
(dp2044
g13
g1
(g14
g3
NtRp2045
((lp2046
g17
(g18
(I0
tS'b'
tRp2047
((I1
(L1L
tg21
I00
(lp2048
S'Val'
p2049
at(Nttba(lp2050
g17
(g25
(I0
tS'b'
tRp2051
(I1
(L1L
tg21
I00
(lp2052
g1
(g10
g3
NtRp2053
(dp2054
g13
g1
(g14
g3
NtRp2055
((lp2056
g17
(g18
(I0
tS'b'
tRp2057
((I1
(L1L
tg21
I00
(lp2058
S'Number'
p2059
at(Nttba(lp2060
g17
(g25
(I0
tS'b'
tRp2061
(I1
(L1L
tg21
I00
(lp2062
g1
(g10
g3
NtRp2063
(dp2064
g13
g1
(g14
g3
NtRp2065
((lp2066
g17
(g18
(I0
tS'b'
tRp2067
((I1
(L1L
tg21
I00
(lp2068
S'Int'
p2069
at(Nttba(lp2070
g17
(g25
(I0
tS'b'
tRp2071
(I1
(L1L
tg21
I00
(lp2072
g1
(g10
g3
NtRp2073
(dp2074
g13
g1
(g14
g3
NtRp2075
((lp2076
g17
(g18
(I0
tS'b'
tRp2077
((I1
(L1L
tg21
I00
(lp2078
S'_3_'
p2079
at(Nttba(lp2080
g17
(g25
(I0
tS'b'
tRp2081
(I1
(L1L
tg21
I00
(lp2082
g1
(g10
g3
NtRp2083
(dp2084
g13
g1
(g14
g3
NtRp2085
((lp2086
g17
(g18
(I0
tS'b'
tRp2087
((I1
(L0L
tg21
I00
(lt(Nttba(lp2088
g17
(g25
(I0
tS'b'
tRp2089
(I1
(L0L
tg21
I00
(ltba(lp2090
g2087
atbsg94
S'3'
sbatba(lp2091
g2077
atbsg94
g2069
sbatba(lp2092
g2067
atbsg94
g2059
sbatba(lp2093
g2057
atbsg94
g2049
sbatba(lp2094
g2047
atbsg94
S'Val_label'
p2095
sbatba(lp2096
g1974
atbsg94
g1966
sbatba(lp2097
g1964
atbsg94
g1947
sbatba(lp2098
g1944
atbsg94
g1933
sbag1
(g10
g3
NtRp2099
(dp2100
g13
g1
(g14
g3
NtRp2101
((lp2102
g17
(g18
(I0
tS'b'
tRp2103
((I1
(L3L
tg21
I00
(lp2104
S'Blockbegin'
p2105
aS'Prog'
p2106
aS'Blockend'
p2107
at(Nttba(lp2108
g17
(g25
(I0
tS'b'
tRp2109
(I1
(L3L
tg21
I00
(lp2110
g1
(g10
g3
NtRp2111
(dp2112
g13
g1
(g14
g3
NtRp2113
((lp2114
g17
(g18
(I0
tS'b'
tRp2115
((I1
(L1L
tg21
I00
(lp2116
S'_:$blockbegin_'
p2117
at(Nttba(lp2118
g17
(g25
(I0
tS'b'
tRp2119
(I1
(L1L
tg21
I00
(lp2120
g1
(g10
g3
NtRp2121
(dp2122
g13
g1
(g14
g3
NtRp2123
((lp2124
g17
(g18
(I0
tS'b'
tRp2125
((I1
(L0L
tg21
I00
(lt(Nttba(lp2126
g17
(g25
(I0
tS'b'
tRp2127
(I1
(L0L
tg21
I00
(ltba(lp2128
g2125
atbsg94
S':$blockbegin'
p2129
sbatba(lp2130
g2115
atbsg94
g2105
sbag1
(g10
g3
NtRp2131
(dp2132
g13
g1
(g14
g3
NtRp2133
((lp2134
g17
(g18
(I0
tS'b'
tRp2135
((I1
(L1L
tg21
I00
(lp2136
S'Stmt'
p2137
at(Nttba(lp2138
g17
(g25
(I0
tS'b'
tRp2139
(I1
(L1L
tg21
I00
(lp2140
g1
(g10
g3
NtRp2141
(dp2142
g13
g1
(g14
g3
NtRp2143
((lp2144
g17
(g18
(I0
tS'b'
tRp2145
((I1
(L1L
tg21
I00
(lp2146
S'Single_stmt'
p2147
at(Nttba(lp2148
g17
(g25
(I0
tS'b'
tRp2149
(I1
(L1L
tg21
I00
(lp2150
g1
(g10
g3
NtRp2151
(dp2152
g13
g1
(g14
g3
NtRp2153
((lp2154
g17
(g18
(I0
tS'b'
tRp2155
((I1
(L2L
tg21
I00
(lp2156
S'Assign_stmt'
p2157
aS'_;_'
p2158
at(Nttba(lp2159
g17
(g25
(I0
tS'b'
tRp2160
(I1
(L2L
tg21
I00
(lp2161
g1
(g10
g3
NtRp2162
(dp2163
g13
g1
(g14
g3
NtRp2164
((lp2165
g17
(g18
(I0
tS'b'
tRp2166
((I1
(L1L
tg21
I00
(lp2167
S'Assign'
p2168
at(Nttba(lp2169
g17
(g25
(I0
tS'b'
tRp2170
(I1
(L1L
tg21
I00
(lp2171
g1
(g10
g3
NtRp2172
(dp2173
g13
g1
(g14
g3
NtRp2174
((lp2175
g17
(g18
(I0
tS'b'
tRp2176
((I1
(L3L
tg21
I00
(lp2177
S'Varlist'
p2178
aS'_=_'
p2179
aS'Exprlist'
p2180
at(Nttba(lp2181
g17
(g25
(I0
tS'b'
tRp2182
(I1
(L3L
tg21
I00
(lp2183
g1
(g10
g3
NtRp2184
(dp2185
g13
g1
(g14
g3
NtRp2186
((lp2187
g17
(g18
(I0
tS'b'
tRp2188
((I1
(L1L
tg21
I00
(lp2189
S'Vartuple'
p2190
at(Nttba(lp2191
g17
(g25
(I0
tS'b'
tRp2192
(I1
(L1L
tg21
I00
(lp2193
g1
(g10
g3
NtRp2194
(dp2195
g13
g1
(g14
g3
NtRp2196
((lp2197
g17
(g18
(I0
tS'b'
tRp2198
((I1
(L1L
tg21
I00
(lp2199
S'Var'
p2200
at(Nttba(lp2201
g17
(g25
(I0
tS'b'
tRp2202
(I1
(L1L
tg21
I00
(lp2203
g1
(g10
g3
NtRp2204
(dp2205
g13
g1
(g14
g3
NtRp2206
((lp2207
g17
(g18
(I0
tS'b'
tRp2208
((I1
(L4L
tg21
I00
(lp2209
S'Var'
p2210
aS'_[_'
p2211
aS'Slice'
p2212
aS'_]_'
p2213
at(Nttba(lp2214
g17
(g25
(I0
tS'b'
tRp2215
(I1
(L4L
tg21
I00
(lp2216
g1
(g10
g3
NtRp2217
(dp2218
g13
g1
(g14
g3
NtRp2219
((lp2220
g17
(g18
(I0
tS'b'
tRp2221
((I1
(L1L
tg21
I00
(lp2222
S'_L_'
p2223
at(Nttba(lp2224
g17
(g25
(I0
tS'b'
tRp2225
(I1
(L1L
tg21
I00
(lp2226
g1
(g10
g3
NtRp2227
(dp2228
g13
g1
(g14
g3
NtRp2229
((lp2230
g17
(g18
(I0
tS'b'
tRp2231
((I1
(L0L
tg21
I00
(lt(Nttba(lp2232
g17
(g25
(I0
tS'b'
tRp2233
(I1
(L0L
tg21
I00
(ltba(lp2234
g2231
atbsg94
S'L'
sbatba(lp2235
g2221
atbsg94
g2210
sbag1
(g10
g3
NtRp2236
(dp2237
g13
g1
(g14
g3
NtRp2238
((lp2239
g17
(g18
(I0
tS'b'
tRp2240
((I1
(L0L
tg21
I00
(lt(Nttba(lp2241
g17
(g25
(I0
tS'b'
tRp2242
(I1
(L0L
tg21
I00
(ltba(lp2243
g2240
atbsg94
S'['
sbag1
(g10
g3
NtRp2244
(dp2245
g13
g1
(g14
g3
NtRp2246
((lp2247
g17
(g18
(I0
tS'b'
tRp2248
((I1
(L1L
tg21
I00
(lp2249
S'Expr'
p2250
at(Nttba(lp2251
g17
(g25
(I0
tS'b'
tRp2252
(I1
(L1L
tg21
I00
(lp2253
g1
(g10
g3
NtRp2254
(dp2255
g13
g1
(g14
g3
NtRp2256
((lp2257
g17
(g18
(I0
tS'b'
tRp2258
((I1
(L1L
tg21
I00
(lp2259
S'Val_label'
p2260
at(Nttba(lp2261
g17
(g25
(I0
tS'b'
tRp2262
(I1
(L1L
tg21
I00
(lp2263
g1
(g10
g3
NtRp2264
(dp2265
g13
g1
(g14
g3
NtRp2266
((lp2267
g17
(g18
(I0
tS'b'
tRp2268
((I1
(L1L
tg21
I00
(lp2269
S'Val'
p2270
at(Nttba(lp2271
g17
(g25
(I0
tS'b'
tRp2272
(I1
(L1L
tg21
I00
(lp2273
g1
(g10
g3
NtRp2274
(dp2275
g13
g1
(g14
g3
NtRp2276
((lp2277
g17
(g18
(I0
tS'b'
tRp2278
((I1
(L1L
tg21
I00
(lp2279
S'Var'
p2280
at(Nttba(lp2281
g17
(g25
(I0
tS'b'
tRp2282
(I1
(L1L
tg21
I00
(lp2283
g1
(g10
g3
NtRp2284
(dp2285
g13
g1
(g14
g3
NtRp2286
((lp2287
g17
(g18
(I0
tS'b'
tRp2288
((I1
(L1L
tg21
I00
(lp2289
S'_i_'
p2290
at(Nttba(lp2291
g17
(g25
(I0
tS'b'
tRp2292
(I1
(L1L
tg21
I00
(lp2293
g1
(g10
g3
NtRp2294
(dp2295
g13
g1
(g14
g3
NtRp2296
((lp2297
g17
(g18
(I0
tS'b'
tRp2298
((I1
(L0L
tg21
I00
(lt(Nttba(lp2299
g17
(g25
(I0
tS'b'
tRp2300
(I1
(L0L
tg21
I00
(ltba(lp2301
g2298
atbsg94
S'i'
sbatba(lp2302
g2288
atbsg94
g2280
sbatba(lp2303
g2278
atbsg94
g2270
sbatba(lp2304
g2268
atbsg94
g2260
sbatba(lp2305
g2258
atbsg94
g2250
sbatba(lp2306
g2248
atbsg94
g2212
sbag1
(g10
g3
NtRp2307
(dp2308
g13
g1
(g14
g3
NtRp2309
((lp2310
g17
(g18
(I0
tS'b'
tRp2311
((I1
(L0L
tg21
I00
(lt(Nttba(lp2312
g17
(g25
(I0
tS'b'
tRp2313
(I1
(L0L
tg21
I00
(ltba(lp2314
g2311
atbsg94
S']'
sbatba(lp2315
g2208
atbsg94
g2200
sbatba(lp2316
g2198
atbsg94
g2190
sbatba(lp2317
g2188
atbsg94
g2178
sbag1
(g10
g3
NtRp2318
(dp2319
g13
g1
(g14
g3
NtRp2320
((lp2321
g17
(g18
(I0
tS'b'
tRp2322
((I1
(L0L
tg21
I00
(lt(Nttba(lp2323
g17
(g25
(I0
tS'b'
tRp2324
(I1
(L0L
tg21
I00
(ltba(lp2325
g2322
atbsg94
S'='
sbag1
(g10
g3
NtRp2326
(dp2327
g13
g1
(g14
g3
NtRp2328
((lp2329
g17
(g18
(I0
tS'b'
tRp2330
((I1
(L1L
tg21
I00
(lp2331
S'Expr'
p2332
at(Nttba(lp2333
g17
(g25
(I0
tS'b'
tRp2334
(I1
(L1L
tg21
I00
(lp2335
g1
(g10
g3
NtRp2336
(dp2337
g13
g1
(g14
g3
NtRp2338
((lp2339
g17
(g18
(I0
tS'b'
tRp2340
((I1
(L1L
tg21
I00
(lp2341
S'Funccall'
p2342
at(Nttba(lp2343
g17
(g25
(I0
tS'b'
tRp2344
(I1
(L1L
tg21
I00
(lp2345
g1
(g10
g3
NtRp2346
(dp2347
g13
g1
(g14
g3
NtRp2348
((lp2349
g17
(g18
(I0
tS'b'
tRp2350
((I1
(L4L
tg21
I00
(lp2351
S'Val_label'
p2352
aS'_(_'
p2353
aS'Arglist'
p2354
aS'_)_'
p2355
at(Nttba(lp2356
g17
(g25
(I0
tS'b'
tRp2357
(I1
(L4L
tg21
I00
(lp2358
g1
(g10
g3
NtRp2359
(dp2360
g13
g1
(g14
g3
NtRp2361
((lp2362
g17
(g18
(I0
tS'b'
tRp2363
((I1
(L1L
tg21
I00
(lp2364
S'Val'
p2365
at(Nttba(lp2366
g17
(g25
(I0
tS'b'
tRp2367
(I1
(L1L
tg21
I00
(lp2368
g1
(g10
g3
NtRp2369
(dp2370
g13
g1
(g14
g3
NtRp2371
((lp2372
g17
(g18
(I0
tS'b'
tRp2373
((I1
(L1L
tg21
I00
(lp2374
S'Var'
p2375
at(Nttba(lp2376
g17
(g25
(I0
tS'b'
tRp2377
(I1
(L1L
tg21
I00
(lp2378
g1
(g10
g3
NtRp2379
(dp2380
g13
g1
(g14
g3
NtRp2381
((lp2382
g17
(g18
(I0
tS'b'
tRp2383
((I1
(L1L
tg21
I00
(lp2384
S'_f_'
p2385
at(Nttba(lp2386
g17
(g25
(I0
tS'b'
tRp2387
(I1
(L1L
tg21
I00
(lp2388
g1
(g10
g3
NtRp2389
(dp2390
g13
g1
(g14
g3
NtRp2391
((lp2392
g17
(g18
(I0
tS'b'
tRp2393
((I1
(L0L
tg21
I00
(lt(Nttba(lp2394
g17
(g25
(I0
tS'b'
tRp2395
(I1
(L0L
tg21
I00
(ltba(lp2396
g2393
atbsg94
S'f'
sbatba(lp2397
g2383
atbsg94
g2375
sbatba(lp2398
g2373
atbsg94
g2365
sbatba(lp2399
g2363
atbsg94
g2352
sbag1
(g10
g3
NtRp2400
(dp2401
g13
g1
(g14
g3
NtRp2402
((lp2403
g17
(g18
(I0
tS'b'
tRp2404
((I1
(L0L
tg21
I00
(lt(Nttba(lp2405
g17
(g25
(I0
tS'b'
tRp2406
(I1
(L0L
tg21
I00
(ltba(lp2407
g2404
atbsg94
S'('
sbag1
(g10
g3
NtRp2408
(dp2409
g13
g1
(g14
g3
NtRp2410
((lp2411
g17
(g18
(I0
tS'b'
tRp2412
((I1
(L1L
tg21
I00
(lp2413
S'Pos_arglist'
p2414
at(Nttba(lp2415
g17
(g25
(I0
tS'b'
tRp2416
(I1
(L1L
tg21
I00
(lp2417
g1
(g10
g3
NtRp2418
(dp2419
g13
g1
(g14
g3
NtRp2420
((lp2421
g17
(g18
(I0
tS'b'
tRp2422
((I1
(L1L
tg21
I00
(lp2423
S'Pos_arg'
p2424
at(Nttba(lp2425
g17
(g25
(I0
tS'b'
tRp2426
(I1
(L1L
tg21
I00
(lp2427
g1
(g10
g3
NtRp2428
(dp2429
g13
g1
(g14
g3
NtRp2430
((lp2431
g17
(g18
(I0
tS'b'
tRp2432
((I1
(L1L
tg21
I00
(lp2433
S'Expr'
p2434
at(Nttba(lp2435
g17
(g25
(I0
tS'b'
tRp2436
(I1
(L1L
tg21
I00
(lp2437
g1
(g10
g3
NtRp2438
(dp2439
g13
g1
(g14
g3
NtRp2440
((lp2441
g17
(g18
(I0
tS'b'
tRp2442
((I1
(L1L
tg21
I00
(lp2443
S'Dash_calc'
p2444
at(Nttba(lp2445
g17
(g25
(I0
tS'b'
tRp2446
(I1
(L1L
tg21
I00
(lp2447
g1
(g10
g3
NtRp2448
(dp2449
g13
g1
(g14
g3
NtRp2450
((lp2451
g17
(g18
(I0
tS'b'
tRp2452
((I1
(L3L
tg21
I00
(lp2453
S'Val_label1'
p2454
aS'_+_'
p2455
aS'Val_label2'
p2456
at(Nttba(lp2457
g17
(g25
(I0
tS'b'
tRp2458
(I1
(L3L
tg21
I00
(lp2459
g1
(g10
g3
NtRp2460
(dp2461
g13
g1
(g14
g3
NtRp2462
((lp2463
g17
(g18
(I0
tS'b'
tRp2464
((I1
(L1L
tg21
I00
(lp2465
S'Val'
p2466
at(Nttba(lp2467
g17
(g25
(I0
tS'b'
tRp2468
(I1
(L1L
tg21
I00
(lp2469
g1
(g10
g3
NtRp2470
(dp2471
g13
g1
(g14
g3
NtRp2472
((lp2473
g17
(g18
(I0
tS'b'
tRp2474
((I1
(L1L
tg21
I00
(lp2475
S'Var'
p2476
at(Nttba(lp2477
g17
(g25
(I0
tS'b'
tRp2478
(I1
(L1L
tg21
I00
(lp2479
g1
(g10
g3
NtRp2480
(dp2481
g13
g1
(g14
g3
NtRp2482
((lp2483
g17
(g18
(I0
tS'b'
tRp2484
((I1
(L1L
tg21
I00
(lp2485
S'_i_'
p2486
at(Nttba(lp2487
g17
(g25
(I0
tS'b'
tRp2488
(I1
(L1L
tg21
I00
(lp2489
g1
(g10
g3
NtRp2490
(dp2491
g13
g1
(g14
g3
NtRp2492
((lp2493
g17
(g18
(I0
tS'b'
tRp2494
((I1
(L0L
tg21
I00
(lt(Nttba(lp2495
g17
(g25
(I0
tS'b'
tRp2496
(I1
(L0L
tg21
I00
(ltba(lp2497
g2494
atbsg94
S'i'
sbatba(lp2498
g2484
atbsg94
g2476
sbatba(lp2499
g2474
atbsg94
g2466
sbatba(lp2500
g2464
atbsg94
S'Val_label'
p2501
sbag1
(g10
g3
NtRp2502
(dp2503
g13
g1
(g14
g3
NtRp2504
((lp2505
g17
(g18
(I0
tS'b'
tRp2506
((I1
(L0L
tg21
I00
(lt(Nttba(lp2507
g17
(g25
(I0
tS'b'
tRp2508
(I1
(L0L
tg21
I00
(ltba(lp2509
g2506
atbsg94
S'+'
sbag1
(g10
g3
NtRp2510
(dp2511
g13
g1
(g14
g3
NtRp2512
((lp2513
g17
(g18
(I0
tS'b'
tRp2514
((I1
(L1L
tg21
I00
(lp2515
S'Val'
p2516
at(Nttba(lp2517
g17
(g25
(I0
tS'b'
tRp2518
(I1
(L1L
tg21
I00
(lp2519
g1
(g10
g3
NtRp2520
(dp2521
g13
g1
(g14
g3
NtRp2522
((lp2523
g17
(g18
(I0
tS'b'
tRp2524
((I1
(L1L
tg21
I00
(lp2525
S'Number'
p2526
at(Nttba(lp2527
g17
(g25
(I0
tS'b'
tRp2528
(I1
(L1L
tg21
I00
(lp2529
g1
(g10
g3
NtRp2530
(dp2531
g13
g1
(g14
g3
NtRp2532
((lp2533
g17
(g18
(I0
tS'b'
tRp2534
((I1
(L1L
tg21
I00
(lp2535
S'Int'
p2536
at(Nttba(lp2537
g17
(g25
(I0
tS'b'
tRp2538
(I1
(L1L
tg21
I00
(lp2539
g1
(g10
g3
NtRp2540
(dp2541
g13
g1
(g14
g3
NtRp2542
((lp2543
g17
(g18
(I0
tS'b'
tRp2544
((I1
(L1L
tg21
I00
(lp2545
S'_1_'
p2546
at(Nttba(lp2547
g17
(g25
(I0
tS'b'
tRp2548
(I1
(L1L
tg21
I00
(lp2549
g1
(g10
g3
NtRp2550
(dp2551
g13
g1
(g14
g3
NtRp2552
((lp2553
g17
(g18
(I0
tS'b'
tRp2554
((I1
(L0L
tg21
I00
(lt(Nttba(lp2555
g17
(g25
(I0
tS'b'
tRp2556
(I1
(L0L
tg21
I00
(ltba(lp2557
g2554
atbsg94
S'1'
sbatba(lp2558
g2544
atbsg94
g2536
sbatba(lp2559
g2534
atbsg94
g2526
sbatba(lp2560
g2524
atbsg94
g2516
sbatba(lp2561
g2514
atbsg94
S'Val_label'
p2562
sbatba(lp2563
g2452
atbsg94
g2444
sbatba(lp2564
g2442
atbsg94
g2434
sbatba(lp2565
g2432
atbsg94
g2424
sbatba(lp2566
g2422
atbsg94
g2414
sbatba(lp2567
g2412
atbsg94
g2354
sbag1
(g10
g3
NtRp2568
(dp2569
g13
g1
(g14
g3
NtRp2570
((lp2571
g17
(g18
(I0
tS'b'
tRp2572
((I1
(L0L
tg21
I00
(lt(Nttba(lp2573
g17
(g25
(I0
tS'b'
tRp2574
(I1
(L0L
tg21
I00
(ltba(lp2575
g2572
atbsg94
S')'
sbatba(lp2576
g2350
atbsg94
g2342
sbatba(lp2577
g2340
atbsg94
g2332
sbatba(lp2578
g2330
atbsg94
g2180
sbatba(lp2579
g2176
atbsg94
g2168
sbatba(lp2580
g2166
atbsg94
g2157
sbag1
(g10
g3
NtRp2581
(dp2582
g13
g1
(g14
g3
NtRp2583
((lp2584
g17
(g18
(I0
tS'b'
tRp2585
((I1
(L0L
tg21
I00
(lt(Nttba(lp2586
g17
(g25
(I0
tS'b'
tRp2587
(I1
(L0L
tg21
I00
(ltba(lp2588
g2585
atbsg94
S';'
sbatba(lp2589
g2155
atbsg94
g2147
sbatba(lp2590
g2145
atbsg94
g2137
sbatba(lp2591
g2135
atbsg94
g2106
sbag1
(g10
g3
NtRp2592
(dp2593
g13
g1
(g14
g3
NtRp2594
((lp2595
g17
(g18
(I0
tS'b'
tRp2596
((I1
(L1L
tg21
I00
(lp2597
S'_$blockend_'
p2598
at(Nttba(lp2599
g17
(g25
(I0
tS'b'
tRp2600
(I1
(L1L
tg21
I00
(lp2601
g1
(g10
g3
NtRp2602
(dp2603
g13
g1
(g14
g3
NtRp2604
((lp2605
g17
(g18
(I0
tS'b'
tRp2606
((I1
(L0L
tg21
I00
(lt(Nttba(lp2607
g17
(g25
(I0
tS'b'
tRp2608
(I1
(L0L
tg21
I00
(ltba(lp2609
g2606
atbsg94
S'$blockend'
p2610
sbatba(lp2611
g2596
atbsg94
g2107
sbatba(lp2612
g2103
atbsg94
S'Block'
p2613
sbag1
(g10
g3
NtRp2614
(dp2615
g13
g1
(g14
g3
NtRp2616
((lp2617
g17
(g18
(I0
tS'b'
tRp2618
((I1
(L1L
tg21
I00
(lp2619
S'_else_'
p2620
at(Nttba(lp2621
g17
(g25
(I0
tS'b'
tRp2622
(I1
(L1L
tg21
I00
(lp2623
g1
(g10
g3
NtRp2624
(dp2625
g13
g1
(g14
g3
NtRp2626
((lp2627
g17
(g18
(I0
tS'b'
tRp2628
((I1
(L0L
tg21
I00
(lt(Nttba(lp2629
g17
(g25
(I0
tS'b'
tRp2630
(I1
(L0L
tg21
I00
(ltba(lp2631
g2628
atbsg94
S'else'
p2632
sbatba(lp2633
g2618
atbsg94
g1935
sbag1
(g10
g3
NtRp2634
(dp2635
g13
g1
(g14
g3
NtRp2636
((lp2637
g17
(g18
(I0
tS'b'
tRp2638
((I1
(L3L
tg21
I00
(lp2639
S'Blockbegin'
p2640
aS'Prog'
p2641
aS'Blockend'
p2642
at(Nttba(lp2643
g17
(g25
(I0
tS'b'
tRp2644
(I1
(L3L
tg21
I00
(lp2645
g1
(g10
g3
NtRp2646
(dp2647
g13
g1
(g14
g3
NtRp2648
((lp2649
g17
(g18
(I0
tS'b'
tRp2650
((I1
(L1L
tg21
I00
(lp2651
S'_:$blockbegin_'
p2652
at(Nttba(lp2653
g17
(g25
(I0
tS'b'
tRp2654
(I1
(L1L
tg21
I00
(lp2655
g1
(g10
g3
NtRp2656
(dp2657
g13
g1
(g14
g3
NtRp2658
((lp2659
g17
(g18
(I0
tS'b'
tRp2660
((I1
(L0L
tg21
I00
(lt(Nttba(lp2661
g17
(g25
(I0
tS'b'
tRp2662
(I1
(L0L
tg21
I00
(ltba(lp2663
g2660
atbsg94
S':$blockbegin'
p2664
sbatba(lp2665
g2650
atbsg94
g2640
sbag1
(g10
g3
NtRp2666
(dp2667
g13
g1
(g14
g3
NtRp2668
((lp2669
g17
(g18
(I0
tS'b'
tRp2670
((I1
(L1L
tg21
I00
(lp2671
S'Stmt'
p2672
at(Nttba(lp2673
g17
(g25
(I0
tS'b'
tRp2674
(I1
(L1L
tg21
I00
(lp2675
g1
(g10
g3
NtRp2676
(dp2677
g13
g1
(g14
g3
NtRp2678
((lp2679
g17
(g18
(I0
tS'b'
tRp2680
((I1
(L1L
tg21
I00
(lp2681
S'Single_stmt'
p2682
at(Nttba(lp2683
g17
(g25
(I0
tS'b'
tRp2684
(I1
(L1L
tg21
I00
(lp2685
g1
(g10
g3
NtRp2686
(dp2687
g13
g1
(g14
g3
NtRp2688
((lp2689
g17
(g18
(I0
tS'b'
tRp2690
((I1
(L2L
tg21
I00
(lp2691
S'Pass_stmt'
p2692
aS'_;_'
p2693
at(Nttba(lp2694
g17
(g25
(I0
tS'b'
tRp2695
(I1
(L2L
tg21
I00
(lp2696
g1
(g10
g3
NtRp2697
(dp2698
g13
g1
(g14
g3
NtRp2699
((lp2700
g17
(g18
(I0
tS'b'
tRp2701
((I1
(L1L
tg21
I00
(lp2702
S'_pass_'
p2703
at(Nttba(lp2704
g17
(g25
(I0
tS'b'
tRp2705
(I1
(L1L
tg21
I00
(lp2706
g1
(g10
g3
NtRp2707
(dp2708
g13
g1
(g14
g3
NtRp2709
((lp2710
g17
(g18
(I0
tS'b'
tRp2711
((I1
(L0L
tg21
I00
(lt(Nttba(lp2712
g17
(g25
(I0
tS'b'
tRp2713
(I1
(L0L
tg21
I00
(ltba(lp2714
g2711
atbsg94
S'pass'
p2715
sbatba(lp2716
g2701
atbsg94
g2692
sbag1
(g10
g3
NtRp2717
(dp2718
g13
g1
(g14
g3
NtRp2719
((lp2720
g17
(g18
(I0
tS'b'
tRp2721
((I1
(L0L
tg21
I00
(lt(Nttba(lp2722
g17
(g25
(I0
tS'b'
tRp2723
(I1
(L0L
tg21
I00
(ltba(lp2724
g2721
atbsg94
S';'
sbatba(lp2725
g2690
atbsg94
g2682
sbatba(lp2726
g2680
atbsg94
g2672
sbatba(lp2727
g2670
atbsg94
g2641
sbag1
(g10
g3
NtRp2728
(dp2729
g13
g1
(g14
g3
NtRp2730
((lp2731
g17
(g18
(I0
tS'b'
tRp2732
((I1
(L1L
tg21
I00
(lp2733
S'_$blockend_'
p2734
at(Nttba(lp2735
g17
(g25
(I0
tS'b'
tRp2736
(I1
(L1L
tg21
I00
(lp2737
g1
(g10
g3
NtRp2738
(dp2739
g13
g1
(g14
g3
NtRp2740
((lp2741
g17
(g18
(I0
tS'b'
tRp2742
((I1
(L0L
tg21
I00
(lt(Nttba(lp2743
g17
(g25
(I0
tS'b'
tRp2744
(I1
(L0L
tg21
I00
(ltba(lp2745
g2742
atbsg94
S'$blockend'
p2746
sbatba(lp2747
g2732
atbsg94
g2642
sbatba(lp2748
g2638
atbsg94
S'Block'
p2749
sbatba(lp2750
g1931
atbsg94
g1923
sbatba(lp2751
g1921
atbsg94
g1913
sbatba(lp2752
g1911
atbsg94
g1903
sbatba(lp2753
g1901
atbsg94
g1872
sbag1
(g10
g3
NtRp2754
(dp2755
g13
g1
(g14
g3
NtRp2756
((lp2757
g17
(g18
(I0
tS'b'
tRp2758
((I1
(L1L
tg21
I00
(lp2759
S'_$blockend_'
p2760
at(Nttba(lp2761
g17
(g25
(I0
tS'b'
tRp2762
(I1
(L1L
tg21
I00
(lp2763
g1
(g10
g3
NtRp2764
(dp2765
g13
g1
(g14
g3
NtRp2766
((lp2767
g17
(g18
(I0
tS'b'
tRp2768
((I1
(L0L
tg21
I00
(lt(Nttba(lp2769
g17
(g25
(I0
tS'b'
tRp2770
(I1
(L0L
tg21
I00
(ltba(lp2771
g2768
atbsg94
S'$blockend'
p2772
sbatba(lp2773
g2758
atbsg94
g1873
sbatba(lp2774
g1869
atbsg94
g1471
sbatba(lp2775
g1468
atbsg94
g1460
sbatba(lp2776
g1458
atbsg94
S'Stmt'
p2777
sbag1
(g10
g3
NtRp2778
(dp2779
g13
g1
(g14
g3
NtRp2780
((lp2781
g17
(g18
(I0
tS'b'
tRp2782
((I1
(L1L
tg21
I00
(lp2783
S'Single_stmt'
p2784
at(Nttba(lp2785
g17
(g25
(I0
tS'b'
tRp2786
(I1
(L1L
tg21
I00
(lp2787
g1
(g10
g3
NtRp2788
(dp2789
g13
g1
(g14
g3
NtRp2790
((lp2791
g17
(g18
(I0
tS'b'
tRp2792
((I1
(L2L
tg21
I00
(lp2793
S'Print_stmt'
p2794
aS'_;_'
p2795
at(Nttba(lp2796
g17
(g25
(I0
tS'b'
tRp2797
(I1
(L2L
tg21
I00
(lp2798
g1
(g10
g3
NtRp2799
(dp2800
g13
g1
(g14
g3
NtRp2801
((lp2802
g17
(g18
(I0
tS'b'
tRp2803
((I1
(L2L
tg21
I00
(lp2804
S'_print_'
p2805
aS'Exprlist'
p2806
at(Nttba(lp2807
g17
(g25
(I0
tS'b'
tRp2808
(I1
(L2L
tg21
I00
(lp2809
g1
(g10
g3
NtRp2810
(dp2811
g13
g1
(g14
g3
NtRp2812
((lp2813
g17
(g18
(I0
tS'b'
tRp2814
((I1
(L0L
tg21
I00
(lt(Nttba(lp2815
g17
(g25
(I0
tS'b'
tRp2816
(I1
(L0L
tg21
I00
(ltba(lp2817
g2814
atbsg94
S'print'
p2818
sbag1
(g10
g3
NtRp2819
(dp2820
g13
g1
(g14
g3
NtRp2821
((lp2822
g17
(g18
(I0
tS'b'
tRp2823
((I1
(L1L
tg21
I00
(lp2824
S'Expr'
p2825
at(Nttba(lp2826
g17
(g25
(I0
tS'b'
tRp2827
(I1
(L1L
tg21
I00
(lp2828
g1
(g10
g3
NtRp2829
(dp2830
g13
g1
(g14
g3
NtRp2831
((lp2832
g17
(g18
(I0
tS'b'
tRp2833
((I1
(L1L
tg21
I00
(lp2834
S'Val_label'
p2835
at(Nttba(lp2836
g17
(g25
(I0
tS'b'
tRp2837
(I1
(L1L
tg21
I00
(lp2838
g1
(g10
g3
NtRp2839
(dp2840
g13
g1
(g14
g3
NtRp2841
((lp2842
g17
(g18
(I0
tS'b'
tRp2843
((I1
(L1L
tg21
I00
(lp2844
S'Val'
p2845
at(Nttba(lp2846
g17
(g25
(I0
tS'b'
tRp2847
(I1
(L1L
tg21
I00
(lp2848
g1
(g10
g3
NtRp2849
(dp2850
g13
g1
(g14
g3
NtRp2851
((lp2852
g17
(g18
(I0
tS'b'
tRp2853
((I1
(L1L
tg21
I00
(lp2854
S'Var'
p2855
at(Nttba(lp2856
g17
(g25
(I0
tS'b'
tRp2857
(I1
(L1L
tg21
I00
(lp2858
g1
(g10
g3
NtRp2859
(dp2860
g13
g1
(g14
g3
NtRp2861
((lp2862
g17
(g18
(I0
tS'b'
tRp2863
((I1
(L1L
tg21
I00
(lp2864
S'_L_'
p2865
at(Nttba(lp2866
g17
(g25
(I0
tS'b'
tRp2867
(I1
(L1L
tg21
I00
(lp2868
g1
(g10
g3
NtRp2869
(dp2870
g13
g1
(g14
g3
NtRp2871
((lp2872
g17
(g18
(I0
tS'b'
tRp2873
((I1
(L0L
tg21
I00
(lt(Nttba(lp2874
g17
(g25
(I0
tS'b'
tRp2875
(I1
(L0L
tg21
I00
(ltba(lp2876
g2873
atbsg94
S'L'
sbatba(lp2877
g2863
atbsg94
g2855
sbatba(lp2878
g2853
atbsg94
g2845
sbatba(lp2879
g2843
atbsg94
g2835
sbatba(lp2880
g2833
atbsg94
g2825
sbatba(lp2881
g2823
atbsg94
g2806
sbatba(lp2882
g2803
atbsg94
g2794
sbag1
(g10
g3
NtRp2883
(dp2884
g13
g1
(g14
g3
NtRp2885
((lp2886
g17
(g18
(I0
tS'b'
tRp2887
((I1
(L0L
tg21
I00
(lt(Nttba(lp2888
g17
(g25
(I0
tS'b'
tRp2889
(I1
(L0L
tg21
I00
(ltba(lp2890
g2887
atbsg94
S';'
sbatba(lp2891
g2792
atbsg94
g2784
sbatba(lp2892
g2782
atbsg94
S'Stmt'
p2893
sbatba(lp2894
g32
atbsg94
g23
sbatba(lp2895
g19
atbsg94
g9
sbsS'pos'
p2896
g11
sb.