ccopy_reg
_reconstructor
p1
(ctree
Tree
p2
c__builtin__
object
p3
NtRp4
(dp5
S'patterns'
p6
c__builtin__
set
p7
((lp8
S'List_'
p9
aS'Val'
p10
aS'Id_var'
p11
aS'Stmts'
p12
aS'Prog'
p13
aS'Float_'
p14
aS'Blockbegin'
p15
aS'Single_stmt'
p16
aS'Var'
p17
aS'Ifelse'
p18
aS'Else_'
p19
aS'String'
p20
aS'Stmt'
p21
aS'Varlist'
p22
aS'Loop'
p23
aS'Func'
p24
aS'Blockend'
p25
aS'Paramlist'
p26
aS'Exprlist'
p27
aS'Pos_paramlist'
p28
aS'Block_head'
p29
aS'Expr'
p30
aS'Slice_'
p31
aS'Block_stmt'
p32
aS'Assign_stmt'
p33
aS'Simple_var'
p34
aS'Int_'
p35
aS'Assign'
p36
aS'Block'
p37
aS'Pos_paramtuple'
p38
aS'Op_cmp'
p39
aS'Pos_arglist'
p40
aS'If_'
p41
aS'Number'
p42
aS'Vartuple'
p43
aS'For_'
p44
aS'Pos_arg'
p45
aS'Arglist'
p46
atRp47
sS'root'
p48
g1
(ctree
vertex
p49
g3
NtRp50
(dp51
S'_data'
p52
g1
(cpandas.core.internals
SingleBlockManager
p53
g3
NtRp54
((lp55
cnumpy.core.multiarray
_reconstruct
p56
(cpandas.core.index
Index
p57
(I0
tS'b'
tRp58
((I1
(L1L
tcnumpy
dtype
p59
(S'O8'
I0
I1
tRp60
(I3
S'|'
NNNI-1
I-1
I63
tbI00
(lp61
S'Prog'
p62
at(Nttba(lp63
g56
(cnumpy
ndarray
p64
(I0
tS'b'
tRp65
(I1
(L1L
tg60
I00
(lp66
g1
(g49
g3
NtRp67
(dp68
g52
g1
(g53
g3
NtRp69
((lp70
g56
(g57
(I0
tS'b'
tRp71
((I1
(L4L
tg60
I00
(lp72
S'Stmt1'
p73
aS'Stmt2'
p74
aS'Stmt3'
p75
aS'Stmt4'
p76
at(Nttba(lp77
g56
(g64
(I0
tS'b'
tRp78
(I1
(L4L
tg60
I00
(lp79
g1
(g49
g3
NtRp80
(dp81
g52
g1
(g53
g3
NtRp82
((lp83
g56
(g57
(I0
tS'b'
tRp84
((I1
(L1L
tg60
I00
(lp85
S'Block_stmt'
p86
at(Nttba(lp87
g56
(g64
(I0
tS'b'
tRp88
(I1
(L1L
tg60
I00
(lp89
g1
(g49
g3
NtRp90
(dp91
g52
g1
(g53
g3
NtRp92
((lp93
g56
(g57
(I0
tS'b'
tRp94
((I1
(L2L
tg60
I00
(lp95
S'Block_head'
p96
aS'Block'
p97
at(Nttba(lp98
g56
(g64
(I0
tS'b'
tRp99
(I1
(L2L
tg60
I00
(lp100
g1
(g49
g3
NtRp101
(dp102
g52
g1
(g53
g3
NtRp103
((lp104
g56
(g57
(I0
tS'b'
tRp105
((I1
(L1L
tg60
I00
(lp106
S'Func'
p107
at(Nttba(lp108
g56
(g64
(I0
tS'b'
tRp109
(I1
(L1L
tg60
I00
(lp110
g1
(g49
g3
NtRp111
(dp112
g52
g1
(g53
g3
NtRp113
((lp114
g56
(g57
(I0
tS'b'
tRp115
((I1
(L5L
tg60
I00
(lp116
S'_def_'
p117
aS'Id_var'
p118
aS'_(_'
p119
aS'Paramlist'
p120
aS'_)_'
p121
at(Nttba(lp122
g56
(g64
(I0
tS'b'
tRp123
(I1
(L5L
tg60
I00
(lp124
g1
(g49
g3
NtRp125
(dp126
g52
g1
(g53
g3
NtRp127
((lp128
g56
(g57
(I0
tS'b'
tRp129
((I1
(L0L
tg60
I00
(lt(Nttba(lp130
g56
(g64
(I0
tS'b'
tRp131
(I1
(L0L
tg60
I00
(ltba(lp132
g129
atbsS'name'
p133
S'def'
p134
sbag1
(g49
g3
NtRp135
(dp136
g52
g1
(g53
g3
NtRp137
((lp138
g56
(g57
(I0
tS'b'
tRp139
((I1
(L1L
tg60
I00
(lp140
S'_f_'
p141
at(Nttba(lp142
g56
(g64
(I0
tS'b'
tRp143
(I1
(L1L
tg60
I00
(lp144
g1
(g49
g3
NtRp145
(dp146
g52
g1
(g53
g3
NtRp147
((lp148
g56
(g57
(I0
tS'b'
tRp149
((I1
(L0L
tg60
I00
(lt(Nttba(lp150
g56
(g64
(I0
tS'b'
tRp151
(I1
(L0L
tg60
I00
(ltba(lp152
g149
atbsg133
S'f'
sbatba(lp153
g139
atbsg133
g118
sbag1
(g49
g3
NtRp154
(dp155
g52
g1
(g53
g3
NtRp156
((lp157
g56
(g57
(I0
tS'b'
tRp158
((I1
(L0L
tg60
I00
(lt(Nttba(lp159
g56
(g64
(I0
tS'b'
tRp160
(I1
(L0L
tg60
I00
(ltba(lp161
g158
atbsg133
S'('
sbag1
(g49
g3
NtRp162
(dp163
g52
g1
(g53
g3
NtRp164
((lp165
g56
(g57
(I0
tS'b'
tRp166
((I1
(L1L
tg60
I00
(lp167
S'Pos_paramlist'
p168
at(Nttba(lp169
g56
(g64
(I0
tS'b'
tRp170
(I1
(L1L
tg60
I00
(lp171
g1
(g49
g3
NtRp172
(dp173
g52
g1
(g53
g3
NtRp174
((lp175
g56
(g57
(I0
tS'b'
tRp176
((I1
(L1L
tg60
I00
(lp177
S'Pos_paramtuple'
p178
at(Nttba(lp179
g56
(g64
(I0
tS'b'
tRp180
(I1
(L1L
tg60
I00
(lp181
g1
(g49
g3
NtRp182
(dp183
g52
g1
(g53
g3
NtRp184
((lp185
g56
(g57
(I0
tS'b'
tRp186
((I1
(L1L
tg60
I00
(lp187
S'Simple_var'
p188
at(Nttba(lp189
g56
(g64
(I0
tS'b'
tRp190
(I1
(L1L
tg60
I00
(lp191
g1
(g49
g3
NtRp192
(dp193
g52
g1
(g53
g3
NtRp194
((lp195
g56
(g57
(I0
tS'b'
tRp196
((I1
(L1L
tg60
I00
(lp197
S'_x_'
p198
at(Nttba(lp199
g56
(g64
(I0
tS'b'
tRp200
(I1
(L1L
tg60
I00
(lp201
g1
(g49
g3
NtRp202
(dp203
g52
g1
(g53
g3
NtRp204
((lp205
g56
(g57
(I0
tS'b'
tRp206
((I1
(L0L
tg60
I00
(lt(Nttba(lp207
g56
(g64
(I0
tS'b'
tRp208
(I1
(L0L
tg60
I00
(ltba(lp209
g206
atbsg133
S'x'
sbatba(lp210
g196
atbsg133
g188
sbatba(lp211
g186
atbsg133
g178
sbatba(lp212
g176
atbsg133
g168
sbatba(lp213
g166
atbsg133
g120
sbag1
(g49
g3
NtRp214
(dp215
g52
g1
(g53
g3
NtRp216
((lp217
g56
(g57
(I0
tS'b'
tRp218
((I1
(L0L
tg60
I00
(lt(Nttba(lp219
g56
(g64
(I0
tS'b'
tRp220
(I1
(L0L
tg60
I00
(ltba(lp221
g218
atbsg133
S')'
sbatba(lp222
g115
atbsg133
g107
sbatba(lp223
g105
atbsg133
g96
sbag1
(g49
g3
NtRp224
(dp225
g52
g1
(g53
g3
NtRp226
((lp227
g56
(g57
(I0
tS'b'
tRp228
((I1
(L3L
tg60
I00
(lp229
S'Blockbegin'
p230
aS'Prog'
p231
aS'Blockend'
p232
at(Nttba(lp233
g56
(g64
(I0
tS'b'
tRp234
(I1
(L3L
tg60
I00
(lp235
g1
(g49
g3
NtRp236
(dp237
g52
g1
(g53
g3
NtRp238
((lp239
g56
(g57
(I0
tS'b'
tRp240
((I1
(L1L
tg60
I00
(lp241
S'_:$blockbegin_'
p242
at(Nttba(lp243
g56
(g64
(I0
tS'b'
tRp244
(I1
(L1L
tg60
I00
(lp245
g1
(g49
g3
NtRp246
(dp247
g52
g1
(g53
g3
NtRp248
((lp249
g56
(g57
(I0
tS'b'
tRp250
((I1
(L0L
tg60
I00
(lt(Nttba(lp251
g56
(g64
(I0
tS'b'
tRp252
(I1
(L0L
tg60
I00
(ltba(lp253
g250
atbsg133
S':$blockbegin'
p254
sbatba(lp255
g240
atbsg133
g230
sbag1
(g49
g3
NtRp256
(dp257
g52
g1
(g53
g3
NtRp258
((lp259
g56
(g57
(I0
tS'b'
tRp260
((I1
(L2L
tg60
I00
(lp261
S'Stmt1'
p262
aS'Stmt2'
p263
at(Nttba(lp264
g56
(g64
(I0
tS'b'
tRp265
(I1
(L2L
tg60
I00
(lp266
g1
(g49
g3
NtRp267
(dp268
g52
g1
(g53
g3
NtRp269
((lp270
g56
(g57
(I0
tS'b'
tRp271
((I1
(L1L
tg60
I00
(lp272
S'Single_stmt'
p273
at(Nttba(lp274
g56
(g64
(I0
tS'b'
tRp275
(I1
(L1L
tg60
I00
(lp276
g1
(g49
g3
NtRp277
(dp278
g52
g1
(g53
g3
NtRp279
((lp280
g56
(g57
(I0
tS'b'
tRp281
((I1
(L2L
tg60
I00
(lp282
S'Exprlist'
p283
aS'_;_'
p284
at(Nttba(lp285
g56
(g64
(I0
tS'b'
tRp286
(I1
(L2L
tg60
I00
(lp287
g1
(g49
g3
NtRp288
(dp289
g52
g1
(g53
g3
NtRp290
((lp291
g56
(g57
(I0
tS'b'
tRp292
((I1
(L1L
tg60
I00
(lp293
S'Expr'
p294
at(Nttba(lp295
g56
(g64
(I0
tS'b'
tRp296
(I1
(L1L
tg60
I00
(lp297
g1
(g49
g3
NtRp298
(dp299
g52
g1
(g53
g3
NtRp300
((lp301
g56
(g57
(I0
tS'b'
tRp302
((I1
(L1L
tg60
I00
(lp303
S'Val'
p304
at(Nttba(lp305
g56
(g64
(I0
tS'b'
tRp306
(I1
(L1L
tg60
I00
(lp307
g1
(g49
g3
NtRp308
(dp309
g52
g1
(g53
g3
NtRp310
((lp311
g56
(g57
(I0
tS'b'
tRp312
((I1
(L1L
tg60
I00
(lp313
S'String'
p314
at(Nttba(lp315
g56
(g64
(I0
tS'b'
tRp316
(I1
(L1L
tg60
I00
(lp317
g1
(g49
g3
NtRp318
(dp319
g52
g1
(g53
g3
NtRp320
((lp321
g56
(g57
(I0
tS'b'
tRp322
((I1
(L1L
tg60
I00
(lp323
S'_"""rechnen"""_'
p324
at(Nttba(lp325
g56
(g64
(I0
tS'b'
tRp326
(I1
(L1L
tg60
I00
(lp327
g1
(g49
g3
NtRp328
(dp329
g52
g1
(g53
g3
NtRp330
((lp331
g56
(g57
(I0
tS'b'
tRp332
((I1
(L0L
tg60
I00
(lt(Nttba(lp333
g56
(g64
(I0
tS'b'
tRp334
(I1
(L0L
tg60
I00
(ltba(lp335
g332
atbsg133
S'"""rechnen"""'
p336
sbatba(lp337
g322
atbsg133
g314
sbatba(lp338
g312
atbsg133
g304
sbatba(lp339
g302
atbsg133
g294
sbatba(lp340
g292
atbsg133
g283
sbag1
(g49
g3
NtRp341
(dp342
g52
g1
(g53
g3
NtRp343
((lp344
g56
(g57
(I0
tS'b'
tRp345
((I1
(L0L
tg60
I00
(lt(Nttba(lp346
g56
(g64
(I0
tS'b'
tRp347
(I1
(L0L
tg60
I00
(ltba(lp348
g345
atbsg133
S';'
sbatba(lp349
g281
atbsg133
g273
sbatba(lp350
g271
atbsg133
S'Stmt'
p351
sbag1
(g49
g3
NtRp352
(dp353
g52
g1
(g53
g3
NtRp354
((lp355
g56
(g57
(I0
tS'b'
tRp356
((I1
(L1L
tg60
I00
(lp357
S'Single_stmt'
p358
at(Nttba(lp359
g56
(g64
(I0
tS'b'
tRp360
(I1
(L1L
tg60
I00
(lp361
g1
(g49
g3
NtRp362
(dp363
g52
g1
(g53
g3
NtRp364
((lp365
g56
(g57
(I0
tS'b'
tRp366
((I1
(L2L
tg60
I00
(lp367
S'Stmts'
p368
aS'_;_'
p369
at(Nttba(lp370
g56
(g64
(I0
tS'b'
tRp371
(I1
(L2L
tg60
I00
(lp372
g1
(g49
g3
NtRp373
(dp374
g52
g1
(g53
g3
NtRp375
((lp376
g56
(g57
(I0
tS'b'
tRp377
((I1
(L2L
tg60
I00
(lp378
S'_return_'
p379
aS'Exprlist'
p380
at(Nttba(lp381
g56
(g64
(I0
tS'b'
tRp382
(I1
(L2L
tg60
I00
(lp383
g1
(g49
g3
NtRp384
(dp385
g52
g1
(g53
g3
NtRp386
((lp387
g56
(g57
(I0
tS'b'
tRp388
((I1
(L0L
tg60
I00
(lt(Nttba(lp389
g56
(g64
(I0
tS'b'
tRp390
(I1
(L0L
tg60
I00
(ltba(lp391
g388
atbsg133
S'return'
p392
sbag1
(g49
g3
NtRp393
(dp394
g52
g1
(g53
g3
NtRp395
((lp396
g56
(g57
(I0
tS'b'
tRp397
((I1
(L1L
tg60
I00
(lp398
S'Expr'
p399
at(Nttba(lp400
g56
(g64
(I0
tS'b'
tRp401
(I1
(L1L
tg60
I00
(lp402
g1
(g49
g3
NtRp403
(dp404
g52
g1
(g53
g3
NtRp405
((lp406
g56
(g57
(I0
tS'b'
tRp407
((I1
(L3L
tg60
I00
(lp408
S'Expr1'
p409
aS'_+_'
p410
aS'Expr2'
p411
at(Nttba(lp412
g56
(g64
(I0
tS'b'
tRp413
(I1
(L3L
tg60
I00
(lp414
g1
(g49
g3
NtRp415
(dp416
g52
g1
(g53
g3
NtRp417
((lp418
g56
(g57
(I0
tS'b'
tRp419
((I1
(L3L
tg60
I00
(lp420
S'Expr1'
p421
aS'_+_'
p422
aS'Expr2'
p423
at(Nttba(lp424
g56
(g64
(I0
tS'b'
tRp425
(I1
(L3L
tg60
I00
(lp426
g1
(g49
g3
NtRp427
(dp428
g52
g1
(g53
g3
NtRp429
((lp430
g56
(g57
(I0
tS'b'
tRp431
((I1
(L3L
tg60
I00
(lp432
S'Expr1'
p433
aS'_+_'
p434
aS'Expr2'
p435
at(Nttba(lp436
g56
(g64
(I0
tS'b'
tRp437
(I1
(L3L
tg60
I00
(lp438
g1
(g49
g3
NtRp439
(dp440
g52
g1
(g53
g3
NtRp441
((lp442
g56
(g57
(I0
tS'b'
tRp443
((I1
(L3L
tg60
I00
(lp444
S'Expr1'
p445
aS'_**_'
p446
aS'Expr2'
p447
at(Nttba(lp448
g56
(g64
(I0
tS'b'
tRp449
(I1
(L3L
tg60
I00
(lp450
g1
(g49
g3
NtRp451
(dp452
g52
g1
(g53
g3
NtRp453
((lp454
g56
(g57
(I0
tS'b'
tRp455
((I1
(L1L
tg60
I00
(lp456
S'Val'
p457
at(Nttba(lp458
g56
(g64
(I0
tS'b'
tRp459
(I1
(L1L
tg60
I00
(lp460
g1
(g49
g3
NtRp461
(dp462
g52
g1
(g53
g3
NtRp463
((lp464
g56
(g57
(I0
tS'b'
tRp465
((I1
(L1L
tg60
I00
(lp466
S'Var'
p467
at(Nttba(lp468
g56
(g64
(I0
tS'b'
tRp469
(I1
(L1L
tg60
I00
(lp470
g1
(g49
g3
NtRp471
(dp472
g52
g1
(g53
g3
NtRp473
((lp474
g56
(g57
(I0
tS'b'
tRp475
((I1
(L1L
tg60
I00
(lp476
S'_x_'
p477
at(Nttba(lp478
g56
(g64
(I0
tS'b'
tRp479
(I1
(L1L
tg60
I00
(lp480
g1
(g49
g3
NtRp481
(dp482
g52
g1
(g53
g3
NtRp483
((lp484
g56
(g57
(I0
tS'b'
tRp485
((I1
(L0L
tg60
I00
(lt(Nttba(lp486
g56
(g64
(I0
tS'b'
tRp487
(I1
(L0L
tg60
I00
(ltba(lp488
g485
atbsg133
S'x'
sbatba(lp489
g475
atbsg133
g467
sbatba(lp490
g465
atbsg133
g457
sbatba(lp491
g455
atbsg133
S'Expr'
p492
sbag1
(g49
g3
NtRp493
(dp494
g52
g1
(g53
g3
NtRp495
((lp496
g56
(g57
(I0
tS'b'
tRp497
((I1
(L0L
tg60
I00
(lt(Nttba(lp498
g56
(g64
(I0
tS'b'
tRp499
(I1
(L0L
tg60
I00
(ltba(lp500
g497
atbsg133
S'**'
p501
sbag1
(g49
g3
NtRp502
(dp503
g52
g1
(g53
g3
NtRp504
((lp505
g56
(g57
(I0
tS'b'
tRp506
((I1
(L1L
tg60
I00
(lp507
S'Val'
p508
at(Nttba(lp509
g56
(g64
(I0
tS'b'
tRp510
(I1
(L1L
tg60
I00
(lp511
g1
(g49
g3
NtRp512
(dp513
g52
g1
(g53
g3
NtRp514
((lp515
g56
(g57
(I0
tS'b'
tRp516
((I1
(L1L
tg60
I00
(lp517
S'Number'
p518
at(Nttba(lp519
g56
(g64
(I0
tS'b'
tRp520
(I1
(L1L
tg60
I00
(lp521
g1
(g49
g3
NtRp522
(dp523
g52
g1
(g53
g3
NtRp524
((lp525
g56
(g57
(I0
tS'b'
tRp526
((I1
(L1L
tg60
I00
(lp527
S'Int'
p528
at(Nttba(lp529
g56
(g64
(I0
tS'b'
tRp530
(I1
(L1L
tg60
I00
(lp531
g1
(g49
g3
NtRp532
(dp533
g52
g1
(g53
g3
NtRp534
((lp535
g56
(g57
(I0
tS'b'
tRp536
((I1
(L1L
tg60
I00
(lp537
S'_2_'
p538
at(Nttba(lp539
g56
(g64
(I0
tS'b'
tRp540
(I1
(L1L
tg60
I00
(lp541
g1
(g49
g3
NtRp542
(dp543
g52
g1
(g53
g3
NtRp544
((lp545
g56
(g57
(I0
tS'b'
tRp546
((I1
(L0L
tg60
I00
(lt(Nttba(lp547
g56
(g64
(I0
tS'b'
tRp548
(I1
(L0L
tg60
I00
(ltba(lp549
g546
atbsg133
S'2'
sbatba(lp550
g536
atbsg133
g528
sbatba(lp551
g526
atbsg133
g518
sbatba(lp552
g516
atbsg133
g508
sbatba(lp553
g506
atbsg133
S'Expr'
p554
sbatba(lp555
g443
atbsg133
S'Expr'
p556
sbag1
(g49
g3
NtRp557
(dp558
g52
g1
(g53
g3
NtRp559
((lp560
g56
(g57
(I0
tS'b'
tRp561
((I1
(L0L
tg60
I00
(lt(Nttba(lp562
g56
(g64
(I0
tS'b'
tRp563
(I1
(L0L
tg60
I00
(ltba(lp564
g561
atbsg133
S'+'
sbag1
(g49
g3
NtRp565
(dp566
g52
g1
(g53
g3
NtRp567
((lp568
g56
(g57
(I0
tS'b'
tRp569
((I1
(L3L
tg60
I00
(lp570
S'Expr1'
p571
aS'_-_'
p572
aS'Expr2'
p573
at(Nttba(lp574
g56
(g64
(I0
tS'b'
tRp575
(I1
(L3L
tg60
I00
(lp576
g1
(g49
g3
NtRp577
(dp578
g52
g1
(g53
g3
NtRp579
((lp580
g56
(g57
(I0
tS'b'
tRp581
((I1
(L3L
tg60
I00
(lp582
S'Expr1'
p583
aS'_-_'
p584
aS'Expr2'
p585
at(Nttba(lp586
g56
(g64
(I0
tS'b'
tRp587
(I1
(L3L
tg60
I00
(lp588
g1
(g49
g3
NtRp589
(dp590
g52
g1
(g53
g3
NtRp591
((lp592
g56
(g57
(I0
tS'b'
tRp593
((I1
(L3L
tg60
I00
(lp594
S'Expr1'
p595
aS'_*_'
p596
aS'Expr2'
p597
at(Nttba(lp598
g56
(g64
(I0
tS'b'
tRp599
(I1
(L3L
tg60
I00
(lp600
g1
(g49
g3
NtRp601
(dp602
g52
g1
(g53
g3
NtRp603
((lp604
g56
(g57
(I0
tS'b'
tRp605
((I1
(L1L
tg60
I00
(lp606
S'Val'
p607
at(Nttba(lp608
g56
(g64
(I0
tS'b'
tRp609
(I1
(L1L
tg60
I00
(lp610
g1
(g49
g3
NtRp611
(dp612
g52
g1
(g53
g3
NtRp613
((lp614
g56
(g57
(I0
tS'b'
tRp615
((I1
(L1L
tg60
I00
(lp616
S'Var'
p617
at(Nttba(lp618
g56
(g64
(I0
tS'b'
tRp619
(I1
(L1L
tg60
I00
(lp620
g1
(g49
g3
NtRp621
(dp622
g52
g1
(g53
g3
NtRp623
((lp624
g56
(g57
(I0
tS'b'
tRp625
((I1
(L1L
tg60
I00
(lp626
S'_x_'
p627
at(Nttba(lp628
g56
(g64
(I0
tS'b'
tRp629
(I1
(L1L
tg60
I00
(lp630
g1
(g49
g3
NtRp631
(dp632
g52
g1
(g53
g3
NtRp633
((lp634
g56
(g57
(I0
tS'b'
tRp635
((I1
(L0L
tg60
I00
(lt(Nttba(lp636
g56
(g64
(I0
tS'b'
tRp637
(I1
(L0L
tg60
I00
(ltba(lp638
g635
atbsg133
S'x'
sbatba(lp639
g625
atbsg133
g617
sbatba(lp640
g615
atbsg133
g607
sbatba(lp641
g605
atbsg133
S'Expr'
p642
sbag1
(g49
g3
NtRp643
(dp644
g52
g1
(g53
g3
NtRp645
((lp646
g56
(g57
(I0
tS'b'
tRp647
((I1
(L0L
tg60
I00
(lt(Nttba(lp648
g56
(g64
(I0
tS'b'
tRp649
(I1
(L0L
tg60
I00
(ltba(lp650
g647
atbsg133
S'*'
sbag1
(g49
g3
NtRp651
(dp652
g52
g1
(g53
g3
NtRp653
((lp654
g56
(g57
(I0
tS'b'
tRp655
((I1
(L1L
tg60
I00
(lp656
S'Val'
p657
at(Nttba(lp658
g56
(g64
(I0
tS'b'
tRp659
(I1
(L1L
tg60
I00
(lp660
g1
(g49
g3
NtRp661
(dp662
g52
g1
(g53
g3
NtRp663
((lp664
g56
(g57
(I0
tS'b'
tRp665
((I1
(L1L
tg60
I00
(lp666
S'Number'
p667
at(Nttba(lp668
g56
(g64
(I0
tS'b'
tRp669
(I1
(L1L
tg60
I00
(lp670
g1
(g49
g3
NtRp671
(dp672
g52
g1
(g53
g3
NtRp673
((lp674
g56
(g57
(I0
tS'b'
tRp675
((I1
(L1L
tg60
I00
(lp676
S'Int'
p677
at(Nttba(lp678
g56
(g64
(I0
tS'b'
tRp679
(I1
(L1L
tg60
I00
(lp680
g1
(g49
g3
NtRp681
(dp682
g52
g1
(g53
g3
NtRp683
((lp684
g56
(g57
(I0
tS'b'
tRp685
((I1
(L1L
tg60
I00
(lp686
S'_4_'
p687
at(Nttba(lp688
g56
(g64
(I0
tS'b'
tRp689
(I1
(L1L
tg60
I00
(lp690
g1
(g49
g3
NtRp691
(dp692
g52
g1
(g53
g3
NtRp693
((lp694
g56
(g57
(I0
tS'b'
tRp695
((I1
(L0L
tg60
I00
(lt(Nttba(lp696
g56
(g64
(I0
tS'b'
tRp697
(I1
(L0L
tg60
I00
(ltba(lp698
g695
atbsg133
S'4'
sbatba(lp699
g685
atbsg133
g677
sbatba(lp700
g675
atbsg133
g667
sbatba(lp701
g665
atbsg133
g657
sbatba(lp702
g655
atbsg133
S'Expr'
p703
sbatba(lp704
g593
atbsg133
S'Expr'
p705
sbag1
(g49
g3
NtRp706
(dp707
g52
g1
(g53
g3
NtRp708
((lp709
g56
(g57
(I0
tS'b'
tRp710
((I1
(L0L
tg60
I00
(lt(Nttba(lp711
g56
(g64
(I0
tS'b'
tRp712
(I1
(L0L
tg60
I00
(ltba(lp713
g710
atbsg133
S'-'
sbag1
(g49
g3
NtRp714
(dp715
g52
g1
(g53
g3
NtRp716
((lp717
g56
(g57
(I0
tS'b'
tRp718
((I1
(L3L
tg60
I00
(lp719
S'Expr1'
p720
aS'_/_'
p721
aS'Expr2'
p722
at(Nttba(lp723
g56
(g64
(I0
tS'b'
tRp724
(I1
(L3L
tg60
I00
(lp725
g1
(g49
g3
NtRp726
(dp727
g52
g1
(g53
g3
NtRp728
((lp729
g56
(g57
(I0
tS'b'
tRp730
((I1
(L3L
tg60
I00
(lp731
S'_(_'
p732
aS'Expr'
p733
aS'_)_'
p734
at(Nttba(lp735
g56
(g64
(I0
tS'b'
tRp736
(I1
(L3L
tg60
I00
(lp737
g1
(g49
g3
NtRp738
(dp739
g52
g1
(g53
g3
NtRp740
((lp741
g56
(g57
(I0
tS'b'
tRp742
((I1
(L0L
tg60
I00
(lt(Nttba(lp743
g56
(g64
(I0
tS'b'
tRp744
(I1
(L0L
tg60
I00
(ltba(lp745
g742
atbsg133
S'('
sbag1
(g49
g3
NtRp746
(dp747
g52
g1
(g53
g3
NtRp748
((lp749
g56
(g57
(I0
tS'b'
tRp750
((I1
(L3L
tg60
I00
(lp751
S'Expr1'
p752
aS'_-_'
p753
aS'Expr2'
p754
at(Nttba(lp755
g56
(g64
(I0
tS'b'
tRp756
(I1
(L3L
tg60
I00
(lp757
g1
(g49
g3
NtRp758
(dp759
g52
g1
(g53
g3
NtRp760
((lp761
g56
(g57
(I0
tS'b'
tRp762
((I1
(L1L
tg60
I00
(lp763
S'Val'
p764
at(Nttba(lp765
g56
(g64
(I0
tS'b'
tRp766
(I1
(L1L
tg60
I00
(lp767
g1
(g49
g3
NtRp768
(dp769
g52
g1
(g53
g3
NtRp770
((lp771
g56
(g57
(I0
tS'b'
tRp772
((I1
(L1L
tg60
I00
(lp773
S'Var'
p774
at(Nttba(lp775
g56
(g64
(I0
tS'b'
tRp776
(I1
(L1L
tg60
I00
(lp777
g1
(g49
g3
NtRp778
(dp779
g52
g1
(g53
g3
NtRp780
((lp781
g56
(g57
(I0
tS'b'
tRp782
((I1
(L1L
tg60
I00
(lp783
S'_x_'
p784
at(Nttba(lp785
g56
(g64
(I0
tS'b'
tRp786
(I1
(L1L
tg60
I00
(lp787
g1
(g49
g3
NtRp788
(dp789
g52
g1
(g53
g3
NtRp790
((lp791
g56
(g57
(I0
tS'b'
tRp792
((I1
(L0L
tg60
I00
(lt(Nttba(lp793
g56
(g64
(I0
tS'b'
tRp794
(I1
(L0L
tg60
I00
(ltba(lp795
g792
atbsg133
S'x'
sbatba(lp796
g782
atbsg133
g774
sbatba(lp797
g772
atbsg133
g764
sbatba(lp798
g762
atbsg133
S'Expr'
p799
sbag1
(g49
g3
NtRp800
(dp801
g52
g1
(g53
g3
NtRp802
((lp803
g56
(g57
(I0
tS'b'
tRp804
((I1
(L0L
tg60
I00
(lt(Nttba(lp805
g56
(g64
(I0
tS'b'
tRp806
(I1
(L0L
tg60
I00
(ltba(lp807
g804
atbsg133
S'-'
sbag1
(g49
g3
NtRp808
(dp809
g52
g1
(g53
g3
NtRp810
((lp811
g56
(g57
(I0
tS'b'
tRp812
((I1
(L1L
tg60
I00
(lp813
S'Val'
p814
at(Nttba(lp815
g56
(g64
(I0
tS'b'
tRp816
(I1
(L1L
tg60
I00
(lp817
g1
(g49
g3
NtRp818
(dp819
g52
g1
(g53
g3
NtRp820
((lp821
g56
(g57
(I0
tS'b'
tRp822
((I1
(L1L
tg60
I00
(lp823
S'Number'
p824
at(Nttba(lp825
g56
(g64
(I0
tS'b'
tRp826
(I1
(L1L
tg60
I00
(lp827
g1
(g49
g3
NtRp828
(dp829
g52
g1
(g53
g3
NtRp830
((lp831
g56
(g57
(I0
tS'b'
tRp832
((I1
(L1L
tg60
I00
(lp833
S'Int'
p834
at(Nttba(lp835
g56
(g64
(I0
tS'b'
tRp836
(I1
(L1L
tg60
I00
(lp837
g1
(g49
g3
NtRp838
(dp839
g52
g1
(g53
g3
NtRp840
((lp841
g56
(g57
(I0
tS'b'
tRp842
((I1
(L1L
tg60
I00
(lp843
S'_3_'
p844
at(Nttba(lp845
g56
(g64
(I0
tS'b'
tRp846
(I1
(L1L
tg60
I00
(lp847
g1
(g49
g3
NtRp848
(dp849
g52
g1
(g53
g3
NtRp850
((lp851
g56
(g57
(I0
tS'b'
tRp852
((I1
(L0L
tg60
I00
(lt(Nttba(lp853
g56
(g64
(I0
tS'b'
tRp854
(I1
(L0L
tg60
I00
(ltba(lp855
g852
atbsg133
S'3'
sbatba(lp856
g842
atbsg133
g834
sbatba(lp857
g832
atbsg133
g824
sbatba(lp858
g822
atbsg133
g814
sbatba(lp859
g812
atbsg133
S'Expr'
p860
sbatba(lp861
g750
atbsg133
g733
sbag1
(g49
g3
NtRp862
(dp863
g52
g1
(g53
g3
NtRp864
((lp865
g56
(g57
(I0
tS'b'
tRp866
((I1
(L0L
tg60
I00
(lt(Nttba(lp867
g56
(g64
(I0
tS'b'
tRp868
(I1
(L0L
tg60
I00
(ltba(lp869
g866
atbsg133
S')'
sbatba(lp870
g730
atbsg133
S'Expr'
p871
sbag1
(g49
g3
NtRp872
(dp873
g52
g1
(g53
g3
NtRp874
((lp875
g56
(g57
(I0
tS'b'
tRp876
((I1
(L0L
tg60
I00
(lt(Nttba(lp877
g56
(g64
(I0
tS'b'
tRp878
(I1
(L0L
tg60
I00
(ltba(lp879
g876
atbsg133
S'/'
sbag1
(g49
g3
NtRp880
(dp881
g52
g1
(g53
g3
NtRp882
((lp883
g56
(g57
(I0
tS'b'
tRp884
((I1
(L1L
tg60
I00
(lp885
S'Val'
p886
at(Nttba(lp887
g56
(g64
(I0
tS'b'
tRp888
(I1
(L1L
tg60
I00
(lp889
g1
(g49
g3
NtRp890
(dp891
g52
g1
(g53
g3
NtRp892
((lp893
g56
(g57
(I0
tS'b'
tRp894
((I1
(L1L
tg60
I00
(lp895
S'Var'
p896
at(Nttba(lp897
g56
(g64
(I0
tS'b'
tRp898
(I1
(L1L
tg60
I00
(lp899
g1
(g49
g3
NtRp900
(dp901
g52
g1
(g53
g3
NtRp902
((lp903
g56
(g57
(I0
tS'b'
tRp904
((I1
(L1L
tg60
I00
(lp905
S'_x_'
p906
at(Nttba(lp907
g56
(g64
(I0
tS'b'
tRp908
(I1
(L1L
tg60
I00
(lp909
g1
(g49
g3
NtRp910
(dp911
g52
g1
(g53
g3
NtRp912
((lp913
g56
(g57
(I0
tS'b'
tRp914
((I1
(L0L
tg60
I00
(lt(Nttba(lp915
g56
(g64
(I0
tS'b'
tRp916
(I1
(L0L
tg60
I00
(ltba(lp917
g914
atbsg133
S'x'
sbatba(lp918
g904
atbsg133
g896
sbatba(lp919
g894
atbsg133
g886
sbatba(lp920
g884
atbsg133
S'Expr'
p921
sbatba(lp922
g718
atbsg133
S'Expr'
p923
sbatba(lp924
g581
atbsg133
S'Expr'
p925
sbag1
(g49
g3
NtRp926
(dp927
g52
g1
(g53
g3
NtRp928
((lp929
g56
(g57
(I0
tS'b'
tRp930
((I1
(L0L
tg60
I00
(lt(Nttba(lp931
g56
(g64
(I0
tS'b'
tRp932
(I1
(L0L
tg60
I00
(ltba(lp933
g930
atbsg133
S'-'
sbag1
(g49
g3
NtRp934
(dp935
g52
g1
(g53
g3
NtRp936
((lp937
g56
(g57
(I0
tS'b'
tRp938
((I1
(L1L
tg60
I00
(lp939
S'Val'
p940
at(Nttba(lp941
g56
(g64
(I0
tS'b'
tRp942
(I1
(L1L
tg60
I00
(lp943
g1
(g49
g3
NtRp944
(dp945
g52
g1
(g53
g3
NtRp946
((lp947
g56
(g57
(I0
tS'b'
tRp948
((I1
(L1L
tg60
I00
(lp949
S'Number'
p950
at(Nttba(lp951
g56
(g64
(I0
tS'b'
tRp952
(I1
(L1L
tg60
I00
(lp953
g1
(g49
g3
NtRp954
(dp955
g52
g1
(g53
g3
NtRp956
((lp957
g56
(g57
(I0
tS'b'
tRp958
((I1
(L1L
tg60
I00
(lp959
S'Float'
p960
at(Nttba(lp961
g56
(g64
(I0
tS'b'
tRp962
(I1
(L1L
tg60
I00
(lp963
g1
(g49
g3
NtRp964
(dp965
g52
g1
(g53
g3
NtRp966
((lp967
g56
(g57
(I0
tS'b'
tRp968
((I1
(L1L
tg60
I00
(lp969
S'_1.3e4_'
p970
at(Nttba(lp971
g56
(g64
(I0
tS'b'
tRp972
(I1
(L1L
tg60
I00
(lp973
g1
(g49
g3
NtRp974
(dp975
g52
g1
(g53
g3
NtRp976
((lp977
g56
(g57
(I0
tS'b'
tRp978
((I1
(L0L
tg60
I00
(lt(Nttba(lp979
g56
(g64
(I0
tS'b'
tRp980
(I1
(L0L
tg60
I00
(ltba(lp981
g978
atbsg133
S'1.3e4'
p982
sbatba(lp983
g968
atbsg133
g960
sbatba(lp984
g958
atbsg133
g950
sbatba(lp985
g948
atbsg133
g940
sbatba(lp986
g938
atbsg133
S'Expr'
p987
sbatba(lp988
g569
atbsg133
S'Expr'
p989
sbatba(lp990
g431
atbsg133
S'Expr'
p991
sbag1
(g49
g3
NtRp992
(dp993
g52
g1
(g53
g3
NtRp994
((lp995
g56
(g57
(I0
tS'b'
tRp996
((I1
(L0L
tg60
I00
(lt(Nttba(lp997
g56
(g64
(I0
tS'b'
tRp998
(I1
(L0L
tg60
I00
(ltba(lp999
g996
atbsg133
S'+'
sbag1
(g49
g3
NtRp1000
(dp1001
g52
g1
(g53
g3
NtRp1002
((lp1003
g56
(g57
(I0
tS'b'
tRp1004
((I1
(L1L
tg60
I00
(lp1005
S'Val'
p1006
at(Nttba(lp1007
g56
(g64
(I0
tS'b'
tRp1008
(I1
(L1L
tg60
I00
(lp1009
g1
(g49
g3
NtRp1010
(dp1011
g52
g1
(g53
g3
NtRp1012
((lp1013
g56
(g57
(I0
tS'b'
tRp1014
((I1
(L1L
tg60
I00
(lp1015
S'Number'
p1016
at(Nttba(lp1017
g56
(g64
(I0
tS'b'
tRp1018
(I1
(L1L
tg60
I00
(lp1019
g1
(g49
g3
NtRp1020
(dp1021
g52
g1
(g53
g3
NtRp1022
((lp1023
g56
(g57
(I0
tS'b'
tRp1024
((I1
(L1L
tg60
I00
(lp1025
S'Int'
p1026
at(Nttba(lp1027
g56
(g64
(I0
tS'b'
tRp1028
(I1
(L1L
tg60
I00
(lp1029
g1
(g49
g3
NtRp1030
(dp1031
g52
g1
(g53
g3
NtRp1032
((lp1033
g56
(g57
(I0
tS'b'
tRp1034
((I1
(L1L
tg60
I00
(lp1035
S'_2_'
p1036
at(Nttba(lp1037
g56
(g64
(I0
tS'b'
tRp1038
(I1
(L1L
tg60
I00
(lp1039
g1
(g49
g3
NtRp1040
(dp1041
g52
g1
(g53
g3
NtRp1042
((lp1043
g56
(g57
(I0
tS'b'
tRp1044
((I1
(L0L
tg60
I00
(lt(Nttba(lp1045
g56
(g64
(I0
tS'b'
tRp1046
(I1
(L0L
tg60
I00
(ltba(lp1047
g1044
atbsg133
S'2'
sbatba(lp1048
g1034
atbsg133
g1026
sbatba(lp1049
g1024
atbsg133
g1016
sbatba(lp1050
g1014
atbsg133
g1006
sbatba(lp1051
g1004
atbsg133
S'Expr'
p1052
sbatba(lp1053
g419
atbsg133
S'Expr'
p1054
sbag1
(g49
g3
NtRp1055
(dp1056
g52
g1
(g53
g3
NtRp1057
((lp1058
g56
(g57
(I0
tS'b'
tRp1059
((I1
(L0L
tg60
I00
(lt(Nttba(lp1060
g56
(g64
(I0
tS'b'
tRp1061
(I1
(L0L
tg60
I00
(ltba(lp1062
g1059
atbsg133
S'+'
sbag1
(g49
g3
NtRp1063
(dp1064
g52
g1
(g53
g3
NtRp1065
((lp1066
g56
(g57
(I0
tS'b'
tRp1067
((I1
(L1L
tg60
I00
(lp1068
S'Val'
p1069
at(Nttba(lp1070
g56
(g64
(I0
tS'b'
tRp1071
(I1
(L1L
tg60
I00
(lp1072
g1
(g49
g3
NtRp1073
(dp1074
g52
g1
(g53
g3
NtRp1075
((lp1076
g56
(g57
(I0
tS'b'
tRp1077
((I1
(L1L
tg60
I00
(lp1078
S'Number'
p1079
at(Nttba(lp1080
g56
(g64
(I0
tS'b'
tRp1081
(I1
(L1L
tg60
I00
(lp1082
g1
(g49
g3
NtRp1083
(dp1084
g52
g1
(g53
g3
NtRp1085
((lp1086
g56
(g57
(I0
tS'b'
tRp1087
((I1
(L1L
tg60
I00
(lp1088
S'Int'
p1089
at(Nttba(lp1090
g56
(g64
(I0
tS'b'
tRp1091
(I1
(L1L
tg60
I00
(lp1092
g1
(g49
g3
NtRp1093
(dp1094
g52
g1
(g53
g3
NtRp1095
((lp1096
g56
(g57
(I0
tS'b'
tRp1097
((I1
(L1L
tg60
I00
(lp1098
S'_5_'
p1099
at(Nttba(lp1100
g56
(g64
(I0
tS'b'
tRp1101
(I1
(L1L
tg60
I00
(lp1102
g1
(g49
g3
NtRp1103
(dp1104
g52
g1
(g53
g3
NtRp1105
((lp1106
g56
(g57
(I0
tS'b'
tRp1107
((I1
(L0L
tg60
I00
(lt(Nttba(lp1108
g56
(g64
(I0
tS'b'
tRp1109
(I1
(L0L
tg60
I00
(ltba(lp1110
g1107
atbsg133
S'5'
sbatba(lp1111
g1097
atbsg133
g1089
sbatba(lp1112
g1087
atbsg133
g1079
sbatba(lp1113
g1077
atbsg133
g1069
sbatba(lp1114
g1067
atbsg133
S'Expr'
p1115
sbatba(lp1116
g407
atbsg133
g399
sbatba(lp1117
g397
atbsg133
g380
sbatba(lp1118
g377
atbsg133
g368
sbag1
(g49
g3
NtRp1119
(dp1120
g52
g1
(g53
g3
NtRp1121
((lp1122
g56
(g57
(I0
tS'b'
tRp1123
((I1
(L0L
tg60
I00
(lt(Nttba(lp1124
g56
(g64
(I0
tS'b'
tRp1125
(I1
(L0L
tg60
I00
(ltba(lp1126
g1123
atbsg133
S';'
sbatba(lp1127
g366
atbsg133
g358
sbatba(lp1128
g356
atbsg133
S'Stmt'
p1129
sbatba(lp1130
g260
atbsg133
g231
sbag1
(g49
g3
NtRp1131
(dp1132
g52
g1
(g53
g3
NtRp1133
((lp1134
g56
(g57
(I0
tS'b'
tRp1135
((I1
(L1L
tg60
I00
(lp1136
S'_$blockend_'
p1137
at(Nttba(lp1138
g56
(g64
(I0
tS'b'
tRp1139
(I1
(L1L
tg60
I00
(lp1140
g1
(g49
g3
NtRp1141
(dp1142
g52
g1
(g53
g3
NtRp1143
((lp1144
g56
(g57
(I0
tS'b'
tRp1145
((I1
(L0L
tg60
I00
(lt(Nttba(lp1146
g56
(g64
(I0
tS'b'
tRp1147
(I1
(L0L
tg60
I00
(ltba(lp1148
g1145
atbsg133
S'$blockend'
p1149
sbatba(lp1150
g1135
atbsg133
g232
sbatba(lp1151
g228
atbsg133
g97
sbatba(lp1152
g94
atbsg133
g86
sbatba(lp1153
g84
atbsg133
S'Stmt'
p1154
sbag1
(g49
g3
NtRp1155
(dp1156
g52
g1
(g53
g3
NtRp1157
((lp1158
g56
(g57
(I0
tS'b'
tRp1159
((I1
(L1L
tg60
I00
(lp1160
S'Single_stmt'
p1161
at(Nttba(lp1162
g56
(g64
(I0
tS'b'
tRp1163
(I1
(L1L
tg60
I00
(lp1164
g1
(g49
g3
NtRp1165
(dp1166
g52
g1
(g53
g3
NtRp1167
((lp1168
g56
(g57
(I0
tS'b'
tRp1169
((I1
(L2L
tg60
I00
(lp1170
S'Assign_stmt'
p1171
aS'_;_'
p1172
at(Nttba(lp1173
g56
(g64
(I0
tS'b'
tRp1174
(I1
(L2L
tg60
I00
(lp1175
g1
(g49
g3
NtRp1176
(dp1177
g52
g1
(g53
g3
NtRp1178
((lp1179
g56
(g57
(I0
tS'b'
tRp1180
((I1
(L1L
tg60
I00
(lp1181
S'Assign'
p1182
at(Nttba(lp1183
g56
(g64
(I0
tS'b'
tRp1184
(I1
(L1L
tg60
I00
(lp1185
g1
(g49
g3
NtRp1186
(dp1187
g52
g1
(g53
g3
NtRp1188
((lp1189
g56
(g57
(I0
tS'b'
tRp1190
((I1
(L3L
tg60
I00
(lp1191
S'Varlist'
p1192
aS'_=_'
p1193
aS'Exprlist'
p1194
at(Nttba(lp1195
g56
(g64
(I0
tS'b'
tRp1196
(I1
(L3L
tg60
I00
(lp1197
g1
(g49
g3
NtRp1198
(dp1199
g52
g1
(g53
g3
NtRp1200
((lp1201
g56
(g57
(I0
tS'b'
tRp1202
((I1
(L1L
tg60
I00
(lp1203
S'Vartuple'
p1204
at(Nttba(lp1205
g56
(g64
(I0
tS'b'
tRp1206
(I1
(L1L
tg60
I00
(lp1207
g1
(g49
g3
NtRp1208
(dp1209
g52
g1
(g53
g3
NtRp1210
((lp1211
g56
(g57
(I0
tS'b'
tRp1212
((I1
(L1L
tg60
I00
(lp1213
S'Var'
p1214
at(Nttba(lp1215
g56
(g64
(I0
tS'b'
tRp1216
(I1
(L1L
tg60
I00
(lp1217
g1
(g49
g3
NtRp1218
(dp1219
g52
g1
(g53
g3
NtRp1220
((lp1221
g56
(g57
(I0
tS'b'
tRp1222
((I1
(L1L
tg60
I00
(lp1223
S'_L_'
p1224
at(Nttba(lp1225
g56
(g64
(I0
tS'b'
tRp1226
(I1
(L1L
tg60
I00
(lp1227
g1
(g49
g3
NtRp1228
(dp1229
g52
g1
(g53
g3
NtRp1230
((lp1231
g56
(g57
(I0
tS'b'
tRp1232
((I1
(L0L
tg60
I00
(lt(Nttba(lp1233
g56
(g64
(I0
tS'b'
tRp1234
(I1
(L0L
tg60
I00
(ltba(lp1235
g1232
atbsg133
S'L'
sbatba(lp1236
g1222
atbsg133
g1214
sbatba(lp1237
g1212
atbsg133
g1204
sbatba(lp1238
g1202
atbsg133
g1192
sbag1
(g49
g3
NtRp1239
(dp1240
g52
g1
(g53
g3
NtRp1241
((lp1242
g56
(g57
(I0
tS'b'
tRp1243
((I1
(L0L
tg60
I00
(lt(Nttba(lp1244
g56
(g64
(I0
tS'b'
tRp1245
(I1
(L0L
tg60
I00
(ltba(lp1246
g1243
atbsg133
S'='
sbag1
(g49
g3
NtRp1247
(dp1248
g52
g1
(g53
g3
NtRp1249
((lp1250
g56
(g57
(I0
tS'b'
tRp1251
((I1
(L1L
tg60
I00
(lp1252
S'Expr'
p1253
at(Nttba(lp1254
g56
(g64
(I0
tS'b'
tRp1255
(I1
(L1L
tg60
I00
(lp1256
g1
(g49
g3
NtRp1257
(dp1258
g52
g1
(g53
g3
NtRp1259
((lp1260
g56
(g57
(I0
tS'b'
tRp1261
((I1
(L3L
tg60
I00
(lp1262
S'Expr1'
p1263
aS'_*_'
p1264
aS'Expr2'
p1265
at(Nttba(lp1266
g56
(g64
(I0
tS'b'
tRp1267
(I1
(L3L
tg60
I00
(lp1268
g1
(g49
g3
NtRp1269
(dp1270
g52
g1
(g53
g3
NtRp1271
((lp1272
g56
(g57
(I0
tS'b'
tRp1273
((I1
(L1L
tg60
I00
(lp1274
S'Val'
p1275
at(Nttba(lp1276
g56
(g64
(I0
tS'b'
tRp1277
(I1
(L1L
tg60
I00
(lp1278
g1
(g49
g3
NtRp1279
(dp1280
g52
g1
(g53
g3
NtRp1281
((lp1282
g56
(g57
(I0
tS'b'
tRp1283
((I1
(L1L
tg60
I00
(lp1284
S'List'
p1285
at(Nttba(lp1286
g56
(g64
(I0
tS'b'
tRp1287
(I1
(L1L
tg60
I00
(lp1288
g1
(g49
g3
NtRp1289
(dp1290
g52
g1
(g53
g3
NtRp1291
((lp1292
g56
(g57
(I0
tS'b'
tRp1293
((I1
(L3L
tg60
I00
(lp1294
S'_[_'
p1295
aS'Exprlist'
p1296
aS'_]_'
p1297
at(Nttba(lp1298
g56
(g64
(I0
tS'b'
tRp1299
(I1
(L3L
tg60
I00
(lp1300
g1
(g49
g3
NtRp1301
(dp1302
g52
g1
(g53
g3
NtRp1303
((lp1304
g56
(g57
(I0
tS'b'
tRp1305
((I1
(L0L
tg60
I00
(lt(Nttba(lp1306
g56
(g64
(I0
tS'b'
tRp1307
(I1
(L0L
tg60
I00
(ltba(lp1308
g1305
atbsg133
S'['
sbag1
(g49
g3
NtRp1309
(dp1310
g52
g1
(g53
g3
NtRp1311
((lp1312
g56
(g57
(I0
tS'b'
tRp1313
((I1
(L1L
tg60
I00
(lp1314
S'Expr'
p1315
at(Nttba(lp1316
g56
(g64
(I0
tS'b'
tRp1317
(I1
(L1L
tg60
I00
(lp1318
g1
(g49
g3
NtRp1319
(dp1320
g52
g1
(g53
g3
NtRp1321
((lp1322
g56
(g57
(I0
tS'b'
tRp1323
((I1
(L1L
tg60
I00
(lp1324
S'Val'
p1325
at(Nttba(lp1326
g56
(g64
(I0
tS'b'
tRp1327
(I1
(L1L
tg60
I00
(lp1328
g1
(g49
g3
NtRp1329
(dp1330
g52
g1
(g53
g3
NtRp1331
((lp1332
g56
(g57
(I0
tS'b'
tRp1333
((I1
(L1L
tg60
I00
(lp1334
S'Number'
p1335
at(Nttba(lp1336
g56
(g64
(I0
tS'b'
tRp1337
(I1
(L1L
tg60
I00
(lp1338
g1
(g49
g3
NtRp1339
(dp1340
g52
g1
(g53
g3
NtRp1341
((lp1342
g56
(g57
(I0
tS'b'
tRp1343
((I1
(L1L
tg60
I00
(lp1344
S'Int'
p1345
at(Nttba(lp1346
g56
(g64
(I0
tS'b'
tRp1347
(I1
(L1L
tg60
I00
(lp1348
g1
(g49
g3
NtRp1349
(dp1350
g52
g1
(g53
g3
NtRp1351
((lp1352
g56
(g57
(I0
tS'b'
tRp1353
((I1
(L1L
tg60
I00
(lp1354
S'_0_'
p1355
at(Nttba(lp1356
g56
(g64
(I0
tS'b'
tRp1357
(I1
(L1L
tg60
I00
(lp1358
g1
(g49
g3
NtRp1359
(dp1360
g52
g1
(g53
g3
NtRp1361
((lp1362
g56
(g57
(I0
tS'b'
tRp1363
((I1
(L0L
tg60
I00
(lt(Nttba(lp1364
g56
(g64
(I0
tS'b'
tRp1365
(I1
(L0L
tg60
I00
(ltba(lp1366
g1363
atbsg133
S'0'
sbatba(lp1367
g1353
atbsg133
g1345
sbatba(lp1368
g1343
atbsg133
g1335
sbatba(lp1369
g1333
atbsg133
g1325
sbatba(lp1370
g1323
atbsg133
g1315
sbatba(lp1371
g1313
atbsg133
g1296
sbag1
(g49
g3
NtRp1372
(dp1373
g52
g1
(g53
g3
NtRp1374
((lp1375
g56
(g57
(I0
tS'b'
tRp1376
((I1
(L0L
tg60
I00
(lt(Nttba(lp1377
g56
(g64
(I0
tS'b'
tRp1378
(I1
(L0L
tg60
I00
(ltba(lp1379
g1376
atbsg133
S']'
sbatba(lp1380
g1293
atbsg133
g1285
sbatba(lp1381
g1283
atbsg133
g1275
sbatba(lp1382
g1273
atbsg133
S'Expr'
p1383
sbag1
(g49
g3
NtRp1384
(dp1385
g52
g1
(g53
g3
NtRp1386
((lp1387
g56
(g57
(I0
tS'b'
tRp1388
((I1
(L0L
tg60
I00
(lt(Nttba(lp1389
g56
(g64
(I0
tS'b'
tRp1390
(I1
(L0L
tg60
I00
(ltba(lp1391
g1388
atbsg133
S'*'
sbag1
(g49
g3
NtRp1392
(dp1393
g52
g1
(g53
g3
NtRp1394
((lp1395
g56
(g57
(I0
tS'b'
tRp1396
((I1
(L1L
tg60
I00
(lp1397
S'Val'
p1398
at(Nttba(lp1399
g56
(g64
(I0
tS'b'
tRp1400
(I1
(L1L
tg60
I00
(lp1401
g1
(g49
g3
NtRp1402
(dp1403
g52
g1
(g53
g3
NtRp1404
((lp1405
g56
(g57
(I0
tS'b'
tRp1406
((I1
(L1L
tg60
I00
(lp1407
S'Number'
p1408
at(Nttba(lp1409
g56
(g64
(I0
tS'b'
tRp1410
(I1
(L1L
tg60
I00
(lp1411
g1
(g49
g3
NtRp1412
(dp1413
g52
g1
(g53
g3
NtRp1414
((lp1415
g56
(g57
(I0
tS'b'
tRp1416
((I1
(L1L
tg60
I00
(lp1417
S'Int'
p1418
at(Nttba(lp1419
g56
(g64
(I0
tS'b'
tRp1420
(I1
(L1L
tg60
I00
(lp1421
g1
(g49
g3
NtRp1422
(dp1423
g52
g1
(g53
g3
NtRp1424
((lp1425
g56
(g57
(I0
tS'b'
tRp1426
((I1
(L1L
tg60
I00
(lp1427
S'_10_'
p1428
at(Nttba(lp1429
g56
(g64
(I0
tS'b'
tRp1430
(I1
(L1L
tg60
I00
(lp1431
g1
(g49
g3
NtRp1432
(dp1433
g52
g1
(g53
g3
NtRp1434
((lp1435
g56
(g57
(I0
tS'b'
tRp1436
((I1
(L0L
tg60
I00
(lt(Nttba(lp1437
g56
(g64
(I0
tS'b'
tRp1438
(I1
(L0L
tg60
I00
(ltba(lp1439
g1436
atbsg133
S'10'
p1440
sbatba(lp1441
g1426
atbsg133
g1418
sbatba(lp1442
g1416
atbsg133
g1408
sbatba(lp1443
g1406
atbsg133
g1398
sbatba(lp1444
g1396
atbsg133
S'Expr'
p1445
sbatba(lp1446
g1261
atbsg133
g1253
sbatba(lp1447
g1251
atbsg133
g1194
sbatba(lp1448
g1190
atbsg133
g1182
sbatba(lp1449
g1180
atbsg133
g1171
sbag1
(g49
g3
NtRp1450
(dp1451
g52
g1
(g53
g3
NtRp1452
((lp1453
g56
(g57
(I0
tS'b'
tRp1454
((I1
(L0L
tg60
I00
(lt(Nttba(lp1455
g56
(g64
(I0
tS'b'
tRp1456
(I1
(L0L
tg60
I00
(ltba(lp1457
g1454
atbsg133
S';'
sbatba(lp1458
g1169
atbsg133
g1161
sbatba(lp1459
g1159
atbsg133
S'Stmt'
p1460
sbag1
(g49
g3
NtRp1461
(dp1462
g52
g1
(g53
g3
NtRp1463
((lp1464
g56
(g57
(I0
tS'b'
tRp1465
((I1
(L1L
tg60
I00
(lp1466
S'Block_stmt'
p1467
at(Nttba(lp1468
g56
(g64
(I0
tS'b'
tRp1469
(I1
(L1L
tg60
I00
(lp1470
g1
(g49
g3
NtRp1471
(dp1472
g52
g1
(g53
g3
NtRp1473
((lp1474
g56
(g57
(I0
tS'b'
tRp1475
((I1
(L2L
tg60
I00
(lp1476
S'Block_head'
p1477
aS'Block'
p1478
at(Nttba(lp1479
g56
(g64
(I0
tS'b'
tRp1480
(I1
(L2L
tg60
I00
(lp1481
g1
(g49
g3
NtRp1482
(dp1483
g52
g1
(g53
g3
NtRp1484
((lp1485
g56
(g57
(I0
tS'b'
tRp1486
((I1
(L1L
tg60
I00
(lp1487
S'Loop'
p1488
at(Nttba(lp1489
g56
(g64
(I0
tS'b'
tRp1490
(I1
(L1L
tg60
I00
(lp1491
g1
(g49
g3
NtRp1492
(dp1493
g52
g1
(g53
g3
NtRp1494
((lp1495
g56
(g57
(I0
tS'b'
tRp1496
((I1
(L1L
tg60
I00
(lp1497
S'For'
p1498
at(Nttba(lp1499
g56
(g64
(I0
tS'b'
tRp1500
(I1
(L1L
tg60
I00
(lp1501
g1
(g49
g3
NtRp1502
(dp1503
g52
g1
(g53
g3
NtRp1504
((lp1505
g56
(g57
(I0
tS'b'
tRp1506
((I1
(L4L
tg60
I00
(lp1507
S'_for_'
p1508
aS'Varlist'
p1509
aS'_in_'
p1510
aS'Exprlist'
p1511
at(Nttba(lp1512
g56
(g64
(I0
tS'b'
tRp1513
(I1
(L4L
tg60
I00
(lp1514
g1
(g49
g3
NtRp1515
(dp1516
g52
g1
(g53
g3
NtRp1517
((lp1518
g56
(g57
(I0
tS'b'
tRp1519
((I1
(L0L
tg60
I00
(lt(Nttba(lp1520
g56
(g64
(I0
tS'b'
tRp1521
(I1
(L0L
tg60
I00
(ltba(lp1522
g1519
atbsg133
S'for'
p1523
sbag1
(g49
g3
NtRp1524
(dp1525
g52
g1
(g53
g3
NtRp1526
((lp1527
g56
(g57
(I0
tS'b'
tRp1528
((I1
(L1L
tg60
I00
(lp1529
S'Vartuple'
p1530
at(Nttba(lp1531
g56
(g64
(I0
tS'b'
tRp1532
(I1
(L1L
tg60
I00
(lp1533
g1
(g49
g3
NtRp1534
(dp1535
g52
g1
(g53
g3
NtRp1536
((lp1537
g56
(g57
(I0
tS'b'
tRp1538
((I1
(L1L
tg60
I00
(lp1539
S'Var'
p1540
at(Nttba(lp1541
g56
(g64
(I0
tS'b'
tRp1542
(I1
(L1L
tg60
I00
(lp1543
g1
(g49
g3
NtRp1544
(dp1545
g52
g1
(g53
g3
NtRp1546
((lp1547
g56
(g57
(I0
tS'b'
tRp1548
((I1
(L1L
tg60
I00
(lp1549
S'_i_'
p1550
at(Nttba(lp1551
g56
(g64
(I0
tS'b'
tRp1552
(I1
(L1L
tg60
I00
(lp1553
g1
(g49
g3
NtRp1554
(dp1555
g52
g1
(g53
g3
NtRp1556
((lp1557
g56
(g57
(I0
tS'b'
tRp1558
((I1
(L0L
tg60
I00
(lt(Nttba(lp1559
g56
(g64
(I0
tS'b'
tRp1560
(I1
(L0L
tg60
I00
(ltba(lp1561
g1558
atbsg133
S'i'
sbatba(lp1562
g1548
atbsg133
g1540
sbatba(lp1563
g1538
atbsg133
g1530
sbatba(lp1564
g1528
atbsg133
g1509
sbag1
(g49
g3
NtRp1565
(dp1566
g52
g1
(g53
g3
NtRp1567
((lp1568
g56
(g57
(I0
tS'b'
tRp1569
((I1
(L0L
tg60
I00
(lt(Nttba(lp1570
g56
(g64
(I0
tS'b'
tRp1571
(I1
(L0L
tg60
I00
(ltba(lp1572
g1569
atbsg133
S'in'
p1573
sbag1
(g49
g3
NtRp1574
(dp1575
g52
g1
(g53
g3
NtRp1576
((lp1577
g56
(g57
(I0
tS'b'
tRp1578
((I1
(L1L
tg60
I00
(lp1579
S'Expr'
p1580
at(Nttba(lp1581
g56
(g64
(I0
tS'b'
tRp1582
(I1
(L1L
tg60
I00
(lp1583
g1
(g49
g3
NtRp1584
(dp1585
g52
g1
(g53
g3
NtRp1586
((lp1587
g56
(g57
(I0
tS'b'
tRp1588
((I1
(L4L
tg60
I00
(lp1589
S'Expr'
p1590
aS'_(_'
p1591
aS'Arglist'
p1592
aS'_)_'
p1593
at(Nttba(lp1594
g56
(g64
(I0
tS'b'
tRp1595
(I1
(L4L
tg60
I00
(lp1596
g1
(g49
g3
NtRp1597
(dp1598
g52
g1
(g53
g3
NtRp1599
((lp1600
g56
(g57
(I0
tS'b'
tRp1601
((I1
(L1L
tg60
I00
(lp1602
S'Val'
p1603
at(Nttba(lp1604
g56
(g64
(I0
tS'b'
tRp1605
(I1
(L1L
tg60
I00
(lp1606
g1
(g49
g3
NtRp1607
(dp1608
g52
g1
(g53
g3
NtRp1609
((lp1610
g56
(g57
(I0
tS'b'
tRp1611
((I1
(L1L
tg60
I00
(lp1612
S'Var'
p1613
at(Nttba(lp1614
g56
(g64
(I0
tS'b'
tRp1615
(I1
(L1L
tg60
I00
(lp1616
g1
(g49
g3
NtRp1617
(dp1618
g52
g1
(g53
g3
NtRp1619
((lp1620
g56
(g57
(I0
tS'b'
tRp1621
((I1
(L1L
tg60
I00
(lp1622
S'_range_'
p1623
at(Nttba(lp1624
g56
(g64
(I0
tS'b'
tRp1625
(I1
(L1L
tg60
I00
(lp1626
g1
(g49
g3
NtRp1627
(dp1628
g52
g1
(g53
g3
NtRp1629
((lp1630
g56
(g57
(I0
tS'b'
tRp1631
((I1
(L0L
tg60
I00
(lt(Nttba(lp1632
g56
(g64
(I0
tS'b'
tRp1633
(I1
(L0L
tg60
I00
(ltba(lp1634
g1631
atbsg133
S'range'
p1635
sbatba(lp1636
g1621
atbsg133
g1613
sbatba(lp1637
g1611
atbsg133
g1603
sbatba(lp1638
g1601
atbsg133
g1590
sbag1
(g49
g3
NtRp1639
(dp1640
g52
g1
(g53
g3
NtRp1641
((lp1642
g56
(g57
(I0
tS'b'
tRp1643
((I1
(L0L
tg60
I00
(lt(Nttba(lp1644
g56
(g64
(I0
tS'b'
tRp1645
(I1
(L0L
tg60
I00
(ltba(lp1646
g1643
atbsg133
S'('
sbag1
(g49
g3
NtRp1647
(dp1648
g52
g1
(g53
g3
NtRp1649
((lp1650
g56
(g57
(I0
tS'b'
tRp1651
((I1
(L1L
tg60
I00
(lp1652
S'Pos_arglist'
p1653
at(Nttba(lp1654
g56
(g64
(I0
tS'b'
tRp1655
(I1
(L1L
tg60
I00
(lp1656
g1
(g49
g3
NtRp1657
(dp1658
g52
g1
(g53
g3
NtRp1659
((lp1660
g56
(g57
(I0
tS'b'
tRp1661
((I1
(L1L
tg60
I00
(lp1662
S'Pos_arg'
p1663
at(Nttba(lp1664
g56
(g64
(I0
tS'b'
tRp1665
(I1
(L1L
tg60
I00
(lp1666
g1
(g49
g3
NtRp1667
(dp1668
g52
g1
(g53
g3
NtRp1669
((lp1670
g56
(g57
(I0
tS'b'
tRp1671
((I1
(L1L
tg60
I00
(lp1672
S'Expr'
p1673
at(Nttba(lp1674
g56
(g64
(I0
tS'b'
tRp1675
(I1
(L1L
tg60
I00
(lp1676
g1
(g49
g3
NtRp1677
(dp1678
g52
g1
(g53
g3
NtRp1679
((lp1680
g56
(g57
(I0
tS'b'
tRp1681
((I1
(L4L
tg60
I00
(lp1682
S'Expr'
p1683
aS'_(_'
p1684
aS'Arglist'
p1685
aS'_)_'
p1686
at(Nttba(lp1687
g56
(g64
(I0
tS'b'
tRp1688
(I1
(L4L
tg60
I00
(lp1689
g1
(g49
g3
NtRp1690
(dp1691
g52
g1
(g53
g3
NtRp1692
((lp1693
g56
(g57
(I0
tS'b'
tRp1694
((I1
(L1L
tg60
I00
(lp1695
S'Val'
p1696
at(Nttba(lp1697
g56
(g64
(I0
tS'b'
tRp1698
(I1
(L1L
tg60
I00
(lp1699
g1
(g49
g3
NtRp1700
(dp1701
g52
g1
(g53
g3
NtRp1702
((lp1703
g56
(g57
(I0
tS'b'
tRp1704
((I1
(L1L
tg60
I00
(lp1705
S'Var'
p1706
at(Nttba(lp1707
g56
(g64
(I0
tS'b'
tRp1708
(I1
(L1L
tg60
I00
(lp1709
g1
(g49
g3
NtRp1710
(dp1711
g52
g1
(g53
g3
NtRp1712
((lp1713
g56
(g57
(I0
tS'b'
tRp1714
((I1
(L1L
tg60
I00
(lp1715
S'_len_'
p1716
at(Nttba(lp1717
g56
(g64
(I0
tS'b'
tRp1718
(I1
(L1L
tg60
I00
(lp1719
g1
(g49
g3
NtRp1720
(dp1721
g52
g1
(g53
g3
NtRp1722
((lp1723
g56
(g57
(I0
tS'b'
tRp1724
((I1
(L0L
tg60
I00
(lt(Nttba(lp1725
g56
(g64
(I0
tS'b'
tRp1726
(I1
(L0L
tg60
I00
(ltba(lp1727
g1724
atbsg133
S'len'
p1728
sbatba(lp1729
g1714
atbsg133
g1706
sbatba(lp1730
g1704
atbsg133
g1696
sbatba(lp1731
g1694
atbsg133
g1683
sbag1
(g49
g3
NtRp1732
(dp1733
g52
g1
(g53
g3
NtRp1734
((lp1735
g56
(g57
(I0
tS'b'
tRp1736
((I1
(L0L
tg60
I00
(lt(Nttba(lp1737
g56
(g64
(I0
tS'b'
tRp1738
(I1
(L0L
tg60
I00
(ltba(lp1739
g1736
atbsg133
S'('
sbag1
(g49
g3
NtRp1740
(dp1741
g52
g1
(g53
g3
NtRp1742
((lp1743
g56
(g57
(I0
tS'b'
tRp1744
((I1
(L1L
tg60
I00
(lp1745
S'Pos_arglist'
p1746
at(Nttba(lp1747
g56
(g64
(I0
tS'b'
tRp1748
(I1
(L1L
tg60
I00
(lp1749
g1
(g49
g3
NtRp1750
(dp1751
g52
g1
(g53
g3
NtRp1752
((lp1753
g56
(g57
(I0
tS'b'
tRp1754
((I1
(L1L
tg60
I00
(lp1755
S'Pos_arg'
p1756
at(Nttba(lp1757
g56
(g64
(I0
tS'b'
tRp1758
(I1
(L1L
tg60
I00
(lp1759
g1
(g49
g3
NtRp1760
(dp1761
g52
g1
(g53
g3
NtRp1762
((lp1763
g56
(g57
(I0
tS'b'
tRp1764
((I1
(L1L
tg60
I00
(lp1765
S'Expr'
p1766
at(Nttba(lp1767
g56
(g64
(I0
tS'b'
tRp1768
(I1
(L1L
tg60
I00
(lp1769
g1
(g49
g3
NtRp1770
(dp1771
g52
g1
(g53
g3
NtRp1772
((lp1773
g56
(g57
(I0
tS'b'
tRp1774
((I1
(L1L
tg60
I00
(lp1775
S'Val'
p1776
at(Nttba(lp1777
g56
(g64
(I0
tS'b'
tRp1778
(I1
(L1L
tg60
I00
(lp1779
g1
(g49
g3
NtRp1780
(dp1781
g52
g1
(g53
g3
NtRp1782
((lp1783
g56
(g57
(I0
tS'b'
tRp1784
((I1
(L1L
tg60
I00
(lp1785
S'Var'
p1786
at(Nttba(lp1787
g56
(g64
(I0
tS'b'
tRp1788
(I1
(L1L
tg60
I00
(lp1789
g1
(g49
g3
NtRp1790
(dp1791
g52
g1
(g53
g3
NtRp1792
((lp1793
g56
(g57
(I0
tS'b'
tRp1794
((I1
(L1L
tg60
I00
(lp1795
S'_L_'
p1796
at(Nttba(lp1797
g56
(g64
(I0
tS'b'
tRp1798
(I1
(L1L
tg60
I00
(lp1799
g1
(g49
g3
NtRp1800
(dp1801
g52
g1
(g53
g3
NtRp1802
((lp1803
g56
(g57
(I0
tS'b'
tRp1804
((I1
(L0L
tg60
I00
(lt(Nttba(lp1805
g56
(g64
(I0
tS'b'
tRp1806
(I1
(L0L
tg60
I00
(ltba(lp1807
g1804
atbsg133
S'L'
sbatba(lp1808
g1794
atbsg133
g1786
sbatba(lp1809
g1784
atbsg133
g1776
sbatba(lp1810
g1774
atbsg133
g1766
sbatba(lp1811
g1764
atbsg133
g1756
sbatba(lp1812
g1754
atbsg133
g1746
sbatba(lp1813
g1744
atbsg133
g1685
sbag1
(g49
g3
NtRp1814
(dp1815
g52
g1
(g53
g3
NtRp1816
((lp1817
g56
(g57
(I0
tS'b'
tRp1818
((I1
(L0L
tg60
I00
(lt(Nttba(lp1819
g56
(g64
(I0
tS'b'
tRp1820
(I1
(L0L
tg60
I00
(ltba(lp1821
g1818
atbsg133
S')'
sbatba(lp1822
g1681
atbsg133
g1673
sbatba(lp1823
g1671
atbsg133
g1663
sbatba(lp1824
g1661
atbsg133
g1653
sbatba(lp1825
g1651
atbsg133
g1592
sbag1
(g49
g3
NtRp1826
(dp1827
g52
g1
(g53
g3
NtRp1828
((lp1829
g56
(g57
(I0
tS'b'
tRp1830
((I1
(L0L
tg60
I00
(lt(Nttba(lp1831
g56
(g64
(I0
tS'b'
tRp1832
(I1
(L0L
tg60
I00
(ltba(lp1833
g1830
atbsg133
S')'
sbatba(lp1834
g1588
atbsg133
g1580
sbatba(lp1835
g1578
atbsg133
g1511
sbatba(lp1836
g1506
atbsg133
g1498
sbatba(lp1837
g1496
atbsg133
g1488
sbatba(lp1838
g1486
atbsg133
g1477
sbag1
(g49
g3
NtRp1839
(dp1840
g52
g1
(g53
g3
NtRp1841
((lp1842
g56
(g57
(I0
tS'b'
tRp1843
((I1
(L3L
tg60
I00
(lp1844
S'Blockbegin'
p1845
aS'Prog'
p1846
aS'Blockend'
p1847
at(Nttba(lp1848
g56
(g64
(I0
tS'b'
tRp1849
(I1
(L3L
tg60
I00
(lp1850
g1
(g49
g3
NtRp1851
(dp1852
g52
g1
(g53
g3
NtRp1853
((lp1854
g56
(g57
(I0
tS'b'
tRp1855
((I1
(L1L
tg60
I00
(lp1856
S'_:$blockbegin_'
p1857
at(Nttba(lp1858
g56
(g64
(I0
tS'b'
tRp1859
(I1
(L1L
tg60
I00
(lp1860
g1
(g49
g3
NtRp1861
(dp1862
g52
g1
(g53
g3
NtRp1863
((lp1864
g56
(g57
(I0
tS'b'
tRp1865
((I1
(L0L
tg60
I00
(lt(Nttba(lp1866
g56
(g64
(I0
tS'b'
tRp1867
(I1
(L0L
tg60
I00
(ltba(lp1868
g1865
atbsg133
S':$blockbegin'
p1869
sbatba(lp1870
g1855
atbsg133
g1845
sbag1
(g49
g3
NtRp1871
(dp1872
g52
g1
(g53
g3
NtRp1873
((lp1874
g56
(g57
(I0
tS'b'
tRp1875
((I1
(L1L
tg60
I00
(lp1876
S'Stmt'
p1877
at(Nttba(lp1878
g56
(g64
(I0
tS'b'
tRp1879
(I1
(L1L
tg60
I00
(lp1880
g1
(g49
g3
NtRp1881
(dp1882
g52
g1
(g53
g3
NtRp1883
((lp1884
g56
(g57
(I0
tS'b'
tRp1885
((I1
(L1L
tg60
I00
(lp1886
S'Block_stmt'
p1887
at(Nttba(lp1888
g56
(g64
(I0
tS'b'
tRp1889
(I1
(L1L
tg60
I00
(lp1890
g1
(g49
g3
NtRp1891
(dp1892
g52
g1
(g53
g3
NtRp1893
((lp1894
g56
(g57
(I0
tS'b'
tRp1895
((I1
(L1L
tg60
I00
(lp1896
S'Ifelse'
p1897
at(Nttba(lp1898
g56
(g64
(I0
tS'b'
tRp1899
(I1
(L1L
tg60
I00
(lp1900
g1
(g49
g3
NtRp1901
(dp1902
g52
g1
(g53
g3
NtRp1903
((lp1904
g56
(g57
(I0
tS'b'
tRp1905
((I1
(L4L
tg60
I00
(lp1906
S'If'
p1907
aS'Block1'
p1908
aS'Else'
p1909
aS'Block2'
p1910
at(Nttba(lp1911
g56
(g64
(I0
tS'b'
tRp1912
(I1
(L4L
tg60
I00
(lp1913
g1
(g49
g3
NtRp1914
(dp1915
g52
g1
(g53
g3
NtRp1916
((lp1917
g56
(g57
(I0
tS'b'
tRp1918
((I1
(L2L
tg60
I00
(lp1919
S'_if_'
p1920
aS'Expr'
p1921
at(Nttba(lp1922
g56
(g64
(I0
tS'b'
tRp1923
(I1
(L2L
tg60
I00
(lp1924
g1
(g49
g3
NtRp1925
(dp1926
g52
g1
(g53
g3
NtRp1927
((lp1928
g56
(g57
(I0
tS'b'
tRp1929
((I1
(L0L
tg60
I00
(lt(Nttba(lp1930
g56
(g64
(I0
tS'b'
tRp1931
(I1
(L0L
tg60
I00
(ltba(lp1932
g1929
atbsg133
S'if'
p1933
sbag1
(g49
g3
NtRp1934
(dp1935
g52
g1
(g53
g3
NtRp1936
((lp1937
g56
(g57
(I0
tS'b'
tRp1938
((I1
(L3L
tg60
I00
(lp1939
S'Expr1'
p1940
aS'Op_cmp'
p1941
aS'Expr2'
p1942
at(Nttba(lp1943
g56
(g64
(I0
tS'b'
tRp1944
(I1
(L3L
tg60
I00
(lp1945
g1
(g49
g3
NtRp1946
(dp1947
g52
g1
(g53
g3
NtRp1948
((lp1949
g56
(g57
(I0
tS'b'
tRp1950
((I1
(L1L
tg60
I00
(lp1951
S'Val'
p1952
at(Nttba(lp1953
g56
(g64
(I0
tS'b'
tRp1954
(I1
(L1L
tg60
I00
(lp1955
g1
(g49
g3
NtRp1956
(dp1957
g52
g1
(g53
g3
NtRp1958
((lp1959
g56
(g57
(I0
tS'b'
tRp1960
((I1
(L1L
tg60
I00
(lp1961
S'Var'
p1962
at(Nttba(lp1963
g56
(g64
(I0
tS'b'
tRp1964
(I1
(L1L
tg60
I00
(lp1965
g1
(g49
g3
NtRp1966
(dp1967
g52
g1
(g53
g3
NtRp1968
((lp1969
g56
(g57
(I0
tS'b'
tRp1970
((I1
(L1L
tg60
I00
(lp1971
S'_i_'
p1972
at(Nttba(lp1973
g56
(g64
(I0
tS'b'
tRp1974
(I1
(L1L
tg60
I00
(lp1975
g1
(g49
g3
NtRp1976
(dp1977
g52
g1
(g53
g3
NtRp1978
((lp1979
g56
(g57
(I0
tS'b'
tRp1980
((I1
(L0L
tg60
I00
(lt(Nttba(lp1981
g56
(g64
(I0
tS'b'
tRp1982
(I1
(L0L
tg60
I00
(ltba(lp1983
g1980
atbsg133
S'i'
sbatba(lp1984
g1970
atbsg133
g1962
sbatba(lp1985
g1960
atbsg133
g1952
sbatba(lp1986
g1950
atbsg133
S'Expr'
p1987
sbag1
(g49
g3
NtRp1988
(dp1989
g52
g1
(g53
g3
NtRp1990
((lp1991
g56
(g57
(I0
tS'b'
tRp1992
((I1
(L1L
tg60
I00
(lp1993
S'_>_'
p1994
at(Nttba(lp1995
g56
(g64
(I0
tS'b'
tRp1996
(I1
(L1L
tg60
I00
(lp1997
g1
(g49
g3
NtRp1998
(dp1999
g52
g1
(g53
g3
NtRp2000
((lp2001
g56
(g57
(I0
tS'b'
tRp2002
((I1
(L0L
tg60
I00
(lt(Nttba(lp2003
g56
(g64
(I0
tS'b'
tRp2004
(I1
(L0L
tg60
I00
(ltba(lp2005
g2002
atbsg133
S'>'
sbatba(lp2006
g1992
atbsg133
g1941
sbag1
(g49
g3
NtRp2007
(dp2008
g52
g1
(g53
g3
NtRp2009
((lp2010
g56
(g57
(I0
tS'b'
tRp2011
((I1
(L1L
tg60
I00
(lp2012
S'Val'
p2013
at(Nttba(lp2014
g56
(g64
(I0
tS'b'
tRp2015
(I1
(L1L
tg60
I00
(lp2016
g1
(g49
g3
NtRp2017
(dp2018
g52
g1
(g53
g3
NtRp2019
((lp2020
g56
(g57
(I0
tS'b'
tRp2021
((I1
(L1L
tg60
I00
(lp2022
S'Number'
p2023
at(Nttba(lp2024
g56
(g64
(I0
tS'b'
tRp2025
(I1
(L1L
tg60
I00
(lp2026
g1
(g49
g3
NtRp2027
(dp2028
g52
g1
(g53
g3
NtRp2029
((lp2030
g56
(g57
(I0
tS'b'
tRp2031
((I1
(L1L
tg60
I00
(lp2032
S'Int'
p2033
at(Nttba(lp2034
g56
(g64
(I0
tS'b'
tRp2035
(I1
(L1L
tg60
I00
(lp2036
g1
(g49
g3
NtRp2037
(dp2038
g52
g1
(g53
g3
NtRp2039
((lp2040
g56
(g57
(I0
tS'b'
tRp2041
((I1
(L1L
tg60
I00
(lp2042
S'_3_'
p2043
at(Nttba(lp2044
g56
(g64
(I0
tS'b'
tRp2045
(I1
(L1L
tg60
I00
(lp2046
g1
(g49
g3
NtRp2047
(dp2048
g52
g1
(g53
g3
NtRp2049
((lp2050
g56
(g57
(I0
tS'b'
tRp2051
((I1
(L0L
tg60
I00
(lt(Nttba(lp2052
g56
(g64
(I0
tS'b'
tRp2053
(I1
(L0L
tg60
I00
(ltba(lp2054
g2051
atbsg133
S'3'
sbatba(lp2055
g2041
atbsg133
g2033
sbatba(lp2056
g2031
atbsg133
g2023
sbatba(lp2057
g2021
atbsg133
g2013
sbatba(lp2058
g2011
atbsg133
S'Expr'
p2059
sbatba(lp2060
g1938
atbsg133
g1921
sbatba(lp2061
g1918
atbsg133
g1907
sbag1
(g49
g3
NtRp2062
(dp2063
g52
g1
(g53
g3
NtRp2064
((lp2065
g56
(g57
(I0
tS'b'
tRp2066
((I1
(L3L
tg60
I00
(lp2067
S'Blockbegin'
p2068
aS'Prog'
p2069
aS'Blockend'
p2070
at(Nttba(lp2071
g56
(g64
(I0
tS'b'
tRp2072
(I1
(L3L
tg60
I00
(lp2073
g1
(g49
g3
NtRp2074
(dp2075
g52
g1
(g53
g3
NtRp2076
((lp2077
g56
(g57
(I0
tS'b'
tRp2078
((I1
(L1L
tg60
I00
(lp2079
S'_:$blockbegin_'
p2080
at(Nttba(lp2081
g56
(g64
(I0
tS'b'
tRp2082
(I1
(L1L
tg60
I00
(lp2083
g1
(g49
g3
NtRp2084
(dp2085
g52
g1
(g53
g3
NtRp2086
((lp2087
g56
(g57
(I0
tS'b'
tRp2088
((I1
(L0L
tg60
I00
(lt(Nttba(lp2089
g56
(g64
(I0
tS'b'
tRp2090
(I1
(L0L
tg60
I00
(ltba(lp2091
g2088
atbsg133
S':$blockbegin'
p2092
sbatba(lp2093
g2078
atbsg133
g2068
sbag1
(g49
g3
NtRp2094
(dp2095
g52
g1
(g53
g3
NtRp2096
((lp2097
g56
(g57
(I0
tS'b'
tRp2098
((I1
(L1L
tg60
I00
(lp2099
S'Stmt'
p2100
at(Nttba(lp2101
g56
(g64
(I0
tS'b'
tRp2102
(I1
(L1L
tg60
I00
(lp2103
g1
(g49
g3
NtRp2104
(dp2105
g52
g1
(g53
g3
NtRp2106
((lp2107
g56
(g57
(I0
tS'b'
tRp2108
((I1
(L1L
tg60
I00
(lp2109
S'Single_stmt'
p2110
at(Nttba(lp2111
g56
(g64
(I0
tS'b'
tRp2112
(I1
(L1L
tg60
I00
(lp2113
g1
(g49
g3
NtRp2114
(dp2115
g52
g1
(g53
g3
NtRp2116
((lp2117
g56
(g57
(I0
tS'b'
tRp2118
((I1
(L2L
tg60
I00
(lp2119
S'Assign_stmt'
p2120
aS'_;_'
p2121
at(Nttba(lp2122
g56
(g64
(I0
tS'b'
tRp2123
(I1
(L2L
tg60
I00
(lp2124
g1
(g49
g3
NtRp2125
(dp2126
g52
g1
(g53
g3
NtRp2127
((lp2128
g56
(g57
(I0
tS'b'
tRp2129
((I1
(L1L
tg60
I00
(lp2130
S'Assign'
p2131
at(Nttba(lp2132
g56
(g64
(I0
tS'b'
tRp2133
(I1
(L1L
tg60
I00
(lp2134
g1
(g49
g3
NtRp2135
(dp2136
g52
g1
(g53
g3
NtRp2137
((lp2138
g56
(g57
(I0
tS'b'
tRp2139
((I1
(L3L
tg60
I00
(lp2140
S'Varlist'
p2141
aS'_=_'
p2142
aS'Exprlist'
p2143
at(Nttba(lp2144
g56
(g64
(I0
tS'b'
tRp2145
(I1
(L3L
tg60
I00
(lp2146
g1
(g49
g3
NtRp2147
(dp2148
g52
g1
(g53
g3
NtRp2149
((lp2150
g56
(g57
(I0
tS'b'
tRp2151
((I1
(L1L
tg60
I00
(lp2152
S'Vartuple'
p2153
at(Nttba(lp2154
g56
(g64
(I0
tS'b'
tRp2155
(I1
(L1L
tg60
I00
(lp2156
g1
(g49
g3
NtRp2157
(dp2158
g52
g1
(g53
g3
NtRp2159
((lp2160
g56
(g57
(I0
tS'b'
tRp2161
((I1
(L1L
tg60
I00
(lp2162
S'Var'
p2163
at(Nttba(lp2164
g56
(g64
(I0
tS'b'
tRp2165
(I1
(L1L
tg60
I00
(lp2166
g1
(g49
g3
NtRp2167
(dp2168
g52
g1
(g53
g3
NtRp2169
((lp2170
g56
(g57
(I0
tS'b'
tRp2171
((I1
(L4L
tg60
I00
(lp2172
S'Var'
p2173
aS'_[_'
p2174
aS'Slice'
p2175
aS'_]_'
p2176
at(Nttba(lp2177
g56
(g64
(I0
tS'b'
tRp2178
(I1
(L4L
tg60
I00
(lp2179
g1
(g49
g3
NtRp2180
(dp2181
g52
g1
(g53
g3
NtRp2182
((lp2183
g56
(g57
(I0
tS'b'
tRp2184
((I1
(L1L
tg60
I00
(lp2185
S'_L_'
p2186
at(Nttba(lp2187
g56
(g64
(I0
tS'b'
tRp2188
(I1
(L1L
tg60
I00
(lp2189
g1
(g49
g3
NtRp2190
(dp2191
g52
g1
(g53
g3
NtRp2192
((lp2193
g56
(g57
(I0
tS'b'
tRp2194
((I1
(L0L
tg60
I00
(lt(Nttba(lp2195
g56
(g64
(I0
tS'b'
tRp2196
(I1
(L0L
tg60
I00
(ltba(lp2197
g2194
atbsg133
S'L'
sbatba(lp2198
g2184
atbsg133
g2173
sbag1
(g49
g3
NtRp2199
(dp2200
g52
g1
(g53
g3
NtRp2201
((lp2202
g56
(g57
(I0
tS'b'
tRp2203
((I1
(L0L
tg60
I00
(lt(Nttba(lp2204
g56
(g64
(I0
tS'b'
tRp2205
(I1
(L0L
tg60
I00
(ltba(lp2206
g2203
atbsg133
S'['
sbag1
(g49
g3
NtRp2207
(dp2208
g52
g1
(g53
g3
NtRp2209
((lp2210
g56
(g57
(I0
tS'b'
tRp2211
((I1
(L1L
tg60
I00
(lp2212
S'Expr'
p2213
at(Nttba(lp2214
g56
(g64
(I0
tS'b'
tRp2215
(I1
(L1L
tg60
I00
(lp2216
g1
(g49
g3
NtRp2217
(dp2218
g52
g1
(g53
g3
NtRp2219
((lp2220
g56
(g57
(I0
tS'b'
tRp2221
((I1
(L1L
tg60
I00
(lp2222
S'Val'
p2223
at(Nttba(lp2224
g56
(g64
(I0
tS'b'
tRp2225
(I1
(L1L
tg60
I00
(lp2226
g1
(g49
g3
NtRp2227
(dp2228
g52
g1
(g53
g3
NtRp2229
((lp2230
g56
(g57
(I0
tS'b'
tRp2231
((I1
(L1L
tg60
I00
(lp2232
S'Var'
p2233
at(Nttba(lp2234
g56
(g64
(I0
tS'b'
tRp2235
(I1
(L1L
tg60
I00
(lp2236
g1
(g49
g3
NtRp2237
(dp2238
g52
g1
(g53
g3
NtRp2239
((lp2240
g56
(g57
(I0
tS'b'
tRp2241
((I1
(L1L
tg60
I00
(lp2242
S'_i_'
p2243
at(Nttba(lp2244
g56
(g64
(I0
tS'b'
tRp2245
(I1
(L1L
tg60
I00
(lp2246
g1
(g49
g3
NtRp2247
(dp2248
g52
g1
(g53
g3
NtRp2249
((lp2250
g56
(g57
(I0
tS'b'
tRp2251
((I1
(L0L
tg60
I00
(lt(Nttba(lp2252
g56
(g64
(I0
tS'b'
tRp2253
(I1
(L0L
tg60
I00
(ltba(lp2254
g2251
atbsg133
S'i'
sbatba(lp2255
g2241
atbsg133
g2233
sbatba(lp2256
g2231
atbsg133
g2223
sbatba(lp2257
g2221
atbsg133
g2213
sbatba(lp2258
g2211
atbsg133
g2175
sbag1
(g49
g3
NtRp2259
(dp2260
g52
g1
(g53
g3
NtRp2261
((lp2262
g56
(g57
(I0
tS'b'
tRp2263
((I1
(L0L
tg60
I00
(lt(Nttba(lp2264
g56
(g64
(I0
tS'b'
tRp2265
(I1
(L0L
tg60
I00
(ltba(lp2266
g2263
atbsg133
S']'
sbatba(lp2267
g2171
atbsg133
g2163
sbatba(lp2268
g2161
atbsg133
g2153
sbatba(lp2269
g2151
atbsg133
g2141
sbag1
(g49
g3
NtRp2270
(dp2271
g52
g1
(g53
g3
NtRp2272
((lp2273
g56
(g57
(I0
tS'b'
tRp2274
((I1
(L0L
tg60
I00
(lt(Nttba(lp2275
g56
(g64
(I0
tS'b'
tRp2276
(I1
(L0L
tg60
I00
(ltba(lp2277
g2274
atbsg133
S'='
sbag1
(g49
g3
NtRp2278
(dp2279
g52
g1
(g53
g3
NtRp2280
((lp2281
g56
(g57
(I0
tS'b'
tRp2282
((I1
(L1L
tg60
I00
(lp2283
S'Expr'
p2284
at(Nttba(lp2285
g56
(g64
(I0
tS'b'
tRp2286
(I1
(L1L
tg60
I00
(lp2287
g1
(g49
g3
NtRp2288
(dp2289
g52
g1
(g53
g3
NtRp2290
((lp2291
g56
(g57
(I0
tS'b'
tRp2292
((I1
(L4L
tg60
I00
(lp2293
S'Expr'
p2294
aS'_(_'
p2295
aS'Arglist'
p2296
aS'_)_'
p2297
at(Nttba(lp2298
g56
(g64
(I0
tS'b'
tRp2299
(I1
(L4L
tg60
I00
(lp2300
g1
(g49
g3
NtRp2301
(dp2302
g52
g1
(g53
g3
NtRp2303
((lp2304
g56
(g57
(I0
tS'b'
tRp2305
((I1
(L1L
tg60
I00
(lp2306
S'Val'
p2307
at(Nttba(lp2308
g56
(g64
(I0
tS'b'
tRp2309
(I1
(L1L
tg60
I00
(lp2310
g1
(g49
g3
NtRp2311
(dp2312
g52
g1
(g53
g3
NtRp2313
((lp2314
g56
(g57
(I0
tS'b'
tRp2315
((I1
(L1L
tg60
I00
(lp2316
S'Var'
p2317
at(Nttba(lp2318
g56
(g64
(I0
tS'b'
tRp2319
(I1
(L1L
tg60
I00
(lp2320
g1
(g49
g3
NtRp2321
(dp2322
g52
g1
(g53
g3
NtRp2323
((lp2324
g56
(g57
(I0
tS'b'
tRp2325
((I1
(L1L
tg60
I00
(lp2326
S'_f_'
p2327
at(Nttba(lp2328
g56
(g64
(I0
tS'b'
tRp2329
(I1
(L1L
tg60
I00
(lp2330
g1
(g49
g3
NtRp2331
(dp2332
g52
g1
(g53
g3
NtRp2333
((lp2334
g56
(g57
(I0
tS'b'
tRp2335
((I1
(L0L
tg60
I00
(lt(Nttba(lp2336
g56
(g64
(I0
tS'b'
tRp2337
(I1
(L0L
tg60
I00
(ltba(lp2338
g2335
atbsg133
S'f'
sbatba(lp2339
g2325
atbsg133
g2317
sbatba(lp2340
g2315
atbsg133
g2307
sbatba(lp2341
g2305
atbsg133
g2294
sbag1
(g49
g3
NtRp2342
(dp2343
g52
g1
(g53
g3
NtRp2344
((lp2345
g56
(g57
(I0
tS'b'
tRp2346
((I1
(L0L
tg60
I00
(lt(Nttba(lp2347
g56
(g64
(I0
tS'b'
tRp2348
(I1
(L0L
tg60
I00
(ltba(lp2349
g2346
atbsg133
S'('
sbag1
(g49
g3
NtRp2350
(dp2351
g52
g1
(g53
g3
NtRp2352
((lp2353
g56
(g57
(I0
tS'b'
tRp2354
((I1
(L1L
tg60
I00
(lp2355
S'Pos_arglist'
p2356
at(Nttba(lp2357
g56
(g64
(I0
tS'b'
tRp2358
(I1
(L1L
tg60
I00
(lp2359
g1
(g49
g3
NtRp2360
(dp2361
g52
g1
(g53
g3
NtRp2362
((lp2363
g56
(g57
(I0
tS'b'
tRp2364
((I1
(L1L
tg60
I00
(lp2365
S'Pos_arg'
p2366
at(Nttba(lp2367
g56
(g64
(I0
tS'b'
tRp2368
(I1
(L1L
tg60
I00
(lp2369
g1
(g49
g3
NtRp2370
(dp2371
g52
g1
(g53
g3
NtRp2372
((lp2373
g56
(g57
(I0
tS'b'
tRp2374
((I1
(L1L
tg60
I00
(lp2375
S'Expr'
p2376
at(Nttba(lp2377
g56
(g64
(I0
tS'b'
tRp2378
(I1
(L1L
tg60
I00
(lp2379
g1
(g49
g3
NtRp2380
(dp2381
g52
g1
(g53
g3
NtRp2382
((lp2383
g56
(g57
(I0
tS'b'
tRp2384
((I1
(L3L
tg60
I00
(lp2385
S'Expr1'
p2386
aS'_+_'
p2387
aS'Expr2'
p2388
at(Nttba(lp2389
g56
(g64
(I0
tS'b'
tRp2390
(I1
(L3L
tg60
I00
(lp2391
g1
(g49
g3
NtRp2392
(dp2393
g52
g1
(g53
g3
NtRp2394
((lp2395
g56
(g57
(I0
tS'b'
tRp2396
((I1
(L1L
tg60
I00
(lp2397
S'Val'
p2398
at(Nttba(lp2399
g56
(g64
(I0
tS'b'
tRp2400
(I1
(L1L
tg60
I00
(lp2401
g1
(g49
g3
NtRp2402
(dp2403
g52
g1
(g53
g3
NtRp2404
((lp2405
g56
(g57
(I0
tS'b'
tRp2406
((I1
(L1L
tg60
I00
(lp2407
S'Var'
p2408
at(Nttba(lp2409
g56
(g64
(I0
tS'b'
tRp2410
(I1
(L1L
tg60
I00
(lp2411
g1
(g49
g3
NtRp2412
(dp2413
g52
g1
(g53
g3
NtRp2414
((lp2415
g56
(g57
(I0
tS'b'
tRp2416
((I1
(L1L
tg60
I00
(lp2417
S'_i_'
p2418
at(Nttba(lp2419
g56
(g64
(I0
tS'b'
tRp2420
(I1
(L1L
tg60
I00
(lp2421
g1
(g49
g3
NtRp2422
(dp2423
g52
g1
(g53
g3
NtRp2424
((lp2425
g56
(g57
(I0
tS'b'
tRp2426
((I1
(L0L
tg60
I00
(lt(Nttba(lp2427
g56
(g64
(I0
tS'b'
tRp2428
(I1
(L0L
tg60
I00
(ltba(lp2429
g2426
atbsg133
S'i'
sbatba(lp2430
g2416
atbsg133
g2408
sbatba(lp2431
g2406
atbsg133
g2398
sbatba(lp2432
g2396
atbsg133
S'Expr'
p2433
sbag1
(g49
g3
NtRp2434
(dp2435
g52
g1
(g53
g3
NtRp2436
((lp2437
g56
(g57
(I0
tS'b'
tRp2438
((I1
(L0L
tg60
I00
(lt(Nttba(lp2439
g56
(g64
(I0
tS'b'
tRp2440
(I1
(L0L
tg60
I00
(ltba(lp2441
g2438
atbsg133
S'+'
sbag1
(g49
g3
NtRp2442
(dp2443
g52
g1
(g53
g3
NtRp2444
((lp2445
g56
(g57
(I0
tS'b'
tRp2446
((I1
(L1L
tg60
I00
(lp2447
S'Val'
p2448
at(Nttba(lp2449
g56
(g64
(I0
tS'b'
tRp2450
(I1
(L1L
tg60
I00
(lp2451
g1
(g49
g3
NtRp2452
(dp2453
g52
g1
(g53
g3
NtRp2454
((lp2455
g56
(g57
(I0
tS'b'
tRp2456
((I1
(L1L
tg60
I00
(lp2457
S'Number'
p2458
at(Nttba(lp2459
g56
(g64
(I0
tS'b'
tRp2460
(I1
(L1L
tg60
I00
(lp2461
g1
(g49
g3
NtRp2462
(dp2463
g52
g1
(g53
g3
NtRp2464
((lp2465
g56
(g57
(I0
tS'b'
tRp2466
((I1
(L1L
tg60
I00
(lp2467
S'Int'
p2468
at(Nttba(lp2469
g56
(g64
(I0
tS'b'
tRp2470
(I1
(L1L
tg60
I00
(lp2471
g1
(g49
g3
NtRp2472
(dp2473
g52
g1
(g53
g3
NtRp2474
((lp2475
g56
(g57
(I0
tS'b'
tRp2476
((I1
(L1L
tg60
I00
(lp2477
S'_1_'
p2478
at(Nttba(lp2479
g56
(g64
(I0
tS'b'
tRp2480
(I1
(L1L
tg60
I00
(lp2481
g1
(g49
g3
NtRp2482
(dp2483
g52
g1
(g53
g3
NtRp2484
((lp2485
g56
(g57
(I0
tS'b'
tRp2486
((I1
(L0L
tg60
I00
(lt(Nttba(lp2487
g56
(g64
(I0
tS'b'
tRp2488
(I1
(L0L
tg60
I00
(ltba(lp2489
g2486
atbsg133
S'1'
sbatba(lp2490
g2476
atbsg133
g2468
sbatba(lp2491
g2466
atbsg133
g2458
sbatba(lp2492
g2456
atbsg133
g2448
sbatba(lp2493
g2446
atbsg133
S'Expr'
p2494
sbatba(lp2495
g2384
atbsg133
g2376
sbatba(lp2496
g2374
atbsg133
g2366
sbatba(lp2497
g2364
atbsg133
g2356
sbatba(lp2498
g2354
atbsg133
g2296
sbag1
(g49
g3
NtRp2499
(dp2500
g52
g1
(g53
g3
NtRp2501
((lp2502
g56
(g57
(I0
tS'b'
tRp2503
((I1
(L0L
tg60
I00
(lt(Nttba(lp2504
g56
(g64
(I0
tS'b'
tRp2505
(I1
(L0L
tg60
I00
(ltba(lp2506
g2503
atbsg133
S')'
sbatba(lp2507
g2292
atbsg133
g2284
sbatba(lp2508
g2282
atbsg133
g2143
sbatba(lp2509
g2139
atbsg133
g2131
sbatba(lp2510
g2129
atbsg133
g2120
sbag1
(g49
g3
NtRp2511
(dp2512
g52
g1
(g53
g3
NtRp2513
((lp2514
g56
(g57
(I0
tS'b'
tRp2515
((I1
(L0L
tg60
I00
(lt(Nttba(lp2516
g56
(g64
(I0
tS'b'
tRp2517
(I1
(L0L
tg60
I00
(ltba(lp2518
g2515
atbsg133
S';'
sbatba(lp2519
g2118
atbsg133
g2110
sbatba(lp2520
g2108
atbsg133
g2100
sbatba(lp2521
g2098
atbsg133
g2069
sbag1
(g49
g3
NtRp2522
(dp2523
g52
g1
(g53
g3
NtRp2524
((lp2525
g56
(g57
(I0
tS'b'
tRp2526
((I1
(L1L
tg60
I00
(lp2527
S'_$blockend_'
p2528
at(Nttba(lp2529
g56
(g64
(I0
tS'b'
tRp2530
(I1
(L1L
tg60
I00
(lp2531
g1
(g49
g3
NtRp2532
(dp2533
g52
g1
(g53
g3
NtRp2534
((lp2535
g56
(g57
(I0
tS'b'
tRp2536
((I1
(L0L
tg60
I00
(lt(Nttba(lp2537
g56
(g64
(I0
tS'b'
tRp2538
(I1
(L0L
tg60
I00
(ltba(lp2539
g2536
atbsg133
S'$blockend'
p2540
sbatba(lp2541
g2526
atbsg133
g2070
sbatba(lp2542
g2066
atbsg133
S'Block'
p2543
sbag1
(g49
g3
NtRp2544
(dp2545
g52
g1
(g53
g3
NtRp2546
((lp2547
g56
(g57
(I0
tS'b'
tRp2548
((I1
(L1L
tg60
I00
(lp2549
S'_else_'
p2550
at(Nttba(lp2551
g56
(g64
(I0
tS'b'
tRp2552
(I1
(L1L
tg60
I00
(lp2553
g1
(g49
g3
NtRp2554
(dp2555
g52
g1
(g53
g3
NtRp2556
((lp2557
g56
(g57
(I0
tS'b'
tRp2558
((I1
(L0L
tg60
I00
(lt(Nttba(lp2559
g56
(g64
(I0
tS'b'
tRp2560
(I1
(L0L
tg60
I00
(ltba(lp2561
g2558
atbsg133
S'else'
p2562
sbatba(lp2563
g2548
atbsg133
g1909
sbag1
(g49
g3
NtRp2564
(dp2565
g52
g1
(g53
g3
NtRp2566
((lp2567
g56
(g57
(I0
tS'b'
tRp2568
((I1
(L3L
tg60
I00
(lp2569
S'Blockbegin'
p2570
aS'Prog'
p2571
aS'Blockend'
p2572
at(Nttba(lp2573
g56
(g64
(I0
tS'b'
tRp2574
(I1
(L3L
tg60
I00
(lp2575
g1
(g49
g3
NtRp2576
(dp2577
g52
g1
(g53
g3
NtRp2578
((lp2579
g56
(g57
(I0
tS'b'
tRp2580
((I1
(L1L
tg60
I00
(lp2581
S'_:$blockbegin_'
p2582
at(Nttba(lp2583
g56
(g64
(I0
tS'b'
tRp2584
(I1
(L1L
tg60
I00
(lp2585
g1
(g49
g3
NtRp2586
(dp2587
g52
g1
(g53
g3
NtRp2588
((lp2589
g56
(g57
(I0
tS'b'
tRp2590
((I1
(L0L
tg60
I00
(lt(Nttba(lp2591
g56
(g64
(I0
tS'b'
tRp2592
(I1
(L0L
tg60
I00
(ltba(lp2593
g2590
atbsg133
S':$blockbegin'
p2594
sbatba(lp2595
g2580
atbsg133
g2570
sbag1
(g49
g3
NtRp2596
(dp2597
g52
g1
(g53
g3
NtRp2598
((lp2599
g56
(g57
(I0
tS'b'
tRp2600
((I1
(L1L
tg60
I00
(lp2601
S'Stmt'
p2602
at(Nttba(lp2603
g56
(g64
(I0
tS'b'
tRp2604
(I1
(L1L
tg60
I00
(lp2605
g1
(g49
g3
NtRp2606
(dp2607
g52
g1
(g53
g3
NtRp2608
((lp2609
g56
(g57
(I0
tS'b'
tRp2610
((I1
(L1L
tg60
I00
(lp2611
S'Single_stmt'
p2612
at(Nttba(lp2613
g56
(g64
(I0
tS'b'
tRp2614
(I1
(L1L
tg60
I00
(lp2615
g1
(g49
g3
NtRp2616
(dp2617
g52
g1
(g53
g3
NtRp2618
((lp2619
g56
(g57
(I0
tS'b'
tRp2620
((I1
(L2L
tg60
I00
(lp2621
S'Stmts'
p2622
aS'_;_'
p2623
at(Nttba(lp2624
g56
(g64
(I0
tS'b'
tRp2625
(I1
(L2L
tg60
I00
(lp2626
g1
(g49
g3
NtRp2627
(dp2628
g52
g1
(g53
g3
NtRp2629
((lp2630
g56
(g57
(I0
tS'b'
tRp2631
((I1
(L1L
tg60
I00
(lp2632
S'_pass_'
p2633
at(Nttba(lp2634
g56
(g64
(I0
tS'b'
tRp2635
(I1
(L1L
tg60
I00
(lp2636
g1
(g49
g3
NtRp2637
(dp2638
g52
g1
(g53
g3
NtRp2639
((lp2640
g56
(g57
(I0
tS'b'
tRp2641
((I1
(L0L
tg60
I00
(lt(Nttba(lp2642
g56
(g64
(I0
tS'b'
tRp2643
(I1
(L0L
tg60
I00
(ltba(lp2644
g2641
atbsg133
S'pass'
p2645
sbatba(lp2646
g2631
atbsg133
g2622
sbag1
(g49
g3
NtRp2647
(dp2648
g52
g1
(g53
g3
NtRp2649
((lp2650
g56
(g57
(I0
tS'b'
tRp2651
((I1
(L0L
tg60
I00
(lt(Nttba(lp2652
g56
(g64
(I0
tS'b'
tRp2653
(I1
(L0L
tg60
I00
(ltba(lp2654
g2651
atbsg133
S';'
sbatba(lp2655
g2620
atbsg133
g2612
sbatba(lp2656
g2610
atbsg133
g2602
sbatba(lp2657
g2600
atbsg133
g2571
sbag1
(g49
g3
NtRp2658
(dp2659
g52
g1
(g53
g3
NtRp2660
((lp2661
g56
(g57
(I0
tS'b'
tRp2662
((I1
(L1L
tg60
I00
(lp2663
S'_$blockend_'
p2664
at(Nttba(lp2665
g56
(g64
(I0
tS'b'
tRp2666
(I1
(L1L
tg60
I00
(lp2667
g1
(g49
g3
NtRp2668
(dp2669
g52
g1
(g53
g3
NtRp2670
((lp2671
g56
(g57
(I0
tS'b'
tRp2672
((I1
(L0L
tg60
I00
(lt(Nttba(lp2673
g56
(g64
(I0
tS'b'
tRp2674
(I1
(L0L
tg60
I00
(ltba(lp2675
g2672
atbsg133
S'$blockend'
p2676
sbatba(lp2677
g2662
atbsg133
g2572
sbatba(lp2678
g2568
atbsg133
S'Block'
p2679
sbatba(lp2680
g1905
atbsg133
g1897
sbatba(lp2681
g1895
atbsg133
g1887
sbatba(lp2682
g1885
atbsg133
g1877
sbatba(lp2683
g1875
atbsg133
g1846
sbag1
(g49
g3
NtRp2684
(dp2685
g52
g1
(g53
g3
NtRp2686
((lp2687
g56
(g57
(I0
tS'b'
tRp2688
((I1
(L1L
tg60
I00
(lp2689
S'_$blockend_'
p2690
at(Nttba(lp2691
g56
(g64
(I0
tS'b'
tRp2692
(I1
(L1L
tg60
I00
(lp2693
g1
(g49
g3
NtRp2694
(dp2695
g52
g1
(g53
g3
NtRp2696
((lp2697
g56
(g57
(I0
tS'b'
tRp2698
((I1
(L0L
tg60
I00
(lt(Nttba(lp2699
g56
(g64
(I0
tS'b'
tRp2700
(I1
(L0L
tg60
I00
(ltba(lp2701
g2698
atbsg133
S'$blockend'
p2702
sbatba(lp2703
g2688
atbsg133
g1847
sbatba(lp2704
g1843
atbsg133
g1478
sbatba(lp2705
g1475
atbsg133
g1467
sbatba(lp2706
g1465
atbsg133
S'Stmt'
p2707
sbag1
(g49
g3
NtRp2708
(dp2709
g52
g1
(g53
g3
NtRp2710
((lp2711
g56
(g57
(I0
tS'b'
tRp2712
((I1
(L1L
tg60
I00
(lp2713
S'Single_stmt'
p2714
at(Nttba(lp2715
g56
(g64
(I0
tS'b'
tRp2716
(I1
(L1L
tg60
I00
(lp2717
g1
(g49
g3
NtRp2718
(dp2719
g52
g1
(g53
g3
NtRp2720
((lp2721
g56
(g57
(I0
tS'b'
tRp2722
((I1
(L2L
tg60
I00
(lp2723
S'Stmts'
p2724
aS'_;_'
p2725
at(Nttba(lp2726
g56
(g64
(I0
tS'b'
tRp2727
(I1
(L2L
tg60
I00
(lp2728
g1
(g49
g3
NtRp2729
(dp2730
g52
g1
(g53
g3
NtRp2731
((lp2732
g56
(g57
(I0
tS'b'
tRp2733
((I1
(L2L
tg60
I00
(lp2734
S'_print_'
p2735
aS'Exprlist'
p2736
at(Nttba(lp2737
g56
(g64
(I0
tS'b'
tRp2738
(I1
(L2L
tg60
I00
(lp2739
g1
(g49
g3
NtRp2740
(dp2741
g52
g1
(g53
g3
NtRp2742
((lp2743
g56
(g57
(I0
tS'b'
tRp2744
((I1
(L0L
tg60
I00
(lt(Nttba(lp2745
g56
(g64
(I0
tS'b'
tRp2746
(I1
(L0L
tg60
I00
(ltba(lp2747
g2744
atbsg133
S'print'
p2748
sbag1
(g49
g3
NtRp2749
(dp2750
g52
g1
(g53
g3
NtRp2751
((lp2752
g56
(g57
(I0
tS'b'
tRp2753
((I1
(L1L
tg60
I00
(lp2754
S'Expr'
p2755
at(Nttba(lp2756
g56
(g64
(I0
tS'b'
tRp2757
(I1
(L1L
tg60
I00
(lp2758
g1
(g49
g3
NtRp2759
(dp2760
g52
g1
(g53
g3
NtRp2761
((lp2762
g56
(g57
(I0
tS'b'
tRp2763
((I1
(L1L
tg60
I00
(lp2764
S'Val'
p2765
at(Nttba(lp2766
g56
(g64
(I0
tS'b'
tRp2767
(I1
(L1L
tg60
I00
(lp2768
g1
(g49
g3
NtRp2769
(dp2770
g52
g1
(g53
g3
NtRp2771
((lp2772
g56
(g57
(I0
tS'b'
tRp2773
((I1
(L1L
tg60
I00
(lp2774
S'Var'
p2775
at(Nttba(lp2776
g56
(g64
(I0
tS'b'
tRp2777
(I1
(L1L
tg60
I00
(lp2778
g1
(g49
g3
NtRp2779
(dp2780
g52
g1
(g53
g3
NtRp2781
((lp2782
g56
(g57
(I0
tS'b'
tRp2783
((I1
(L1L
tg60
I00
(lp2784
S'_L_'
p2785
at(Nttba(lp2786
g56
(g64
(I0
tS'b'
tRp2787
(I1
(L1L
tg60
I00
(lp2788
g1
(g49
g3
NtRp2789
(dp2790
g52
g1
(g53
g3
NtRp2791
((lp2792
g56
(g57
(I0
tS'b'
tRp2793
((I1
(L0L
tg60
I00
(lt(Nttba(lp2794
g56
(g64
(I0
tS'b'
tRp2795
(I1
(L0L
tg60
I00
(ltba(lp2796
g2793
atbsg133
S'L'
sbatba(lp2797
g2783
atbsg133
g2775
sbatba(lp2798
g2773
atbsg133
g2765
sbatba(lp2799
g2763
atbsg133
g2755
sbatba(lp2800
g2753
atbsg133
g2736
sbatba(lp2801
g2733
atbsg133
g2724
sbag1
(g49
g3
NtRp2802
(dp2803
g52
g1
(g53
g3
NtRp2804
((lp2805
g56
(g57
(I0
tS'b'
tRp2806
((I1
(L0L
tg60
I00
(lt(Nttba(lp2807
g56
(g64
(I0
tS'b'
tRp2808
(I1
(L0L
tg60
I00
(ltba(lp2809
g2806
atbsg133
S';'
sbatba(lp2810
g2722
atbsg133
g2714
sbatba(lp2811
g2712
atbsg133
S'Stmt'
p2812
sbatba(lp2813
g71
atbsg133
g62
sbatba(lp2814
g58
atbsg133
g48
sbsS'pos'
p2815
g50
sb.