ccopy_reg
_reconstructor
p1
(ctree
Tree
p2
c__builtin__
object
p3
NtRp4
(dp5
S'patterns'
p6
c__builtin__
set
p7
((lp8
S'List_'
p9
aS'Val'
p10
aS'Id_var'
p11
aS'Stmts'
p12
aS'Prog'
p13
aS'Float_'
p14
aS'Blockbegin'
p15
aS'Single_stmt'
p16
aS'Var'
p17
aS'Ifelse'
p18
aS'Else_'
p19
aS'String'
p20
aS'Stmt'
p21
aS'Varlist'
p22
aS'Loop'
p23
aS'Func'
p24
aS'Blockend'
p25
aS'Paramlist'
p26
aS'Exprlist'
p27
aS'Pos_paramlist'
p28
aS'Block_head'
p29
aS'Expr'
p30
aS'Slice_'
p31
aS'Block_stmt'
p32
aS'Assign_stmt'
p33
aS'Simple_var'
p34
aS'Int_'
p35
aS'Assign'
p36
aS'Block'
p37
aS'Pos_paramtuple'
p38
aS'Op_cmp'
p39
aS'Pos_arglist'
p40
aS'If_'
p41
aS'Number'
p42
aS'Vartuple'
p43
aS'For_'
p44
aS'Pos_arg'
p45
aS'Arglist'
p46
atRp47
sS'root'
p48
g1
(ctree
vertex
p49
g3
NtRp50
(dp51
S'_data'
p52
g1
(cpandas.core.internals
SingleBlockManager
p53
g3
NtRp54
((lp55
cnumpy.core.multiarray
_reconstruct
p56
(cpandas.core.index
Index
p57
(I0
tS'b'
tRp58
((I1
(L1L
tcnumpy
dtype
p59
(S'O8'
I0
I1
tRp60
(I3
S'|'
NNNI-1
I-1
I63
tbI00
(lp61
S'Prog'
p62
at(Nttba(lp63
g56
(cnumpy
ndarray
p64
(I0
tS'b'
tRp65
(I1
(L1L
tg60
I00
(lp66
g1
(g49
g3
NtRp67
(dp68
g52
g1
(g53
g3
NtRp69
((lp70
g56
(g57
(I0
tS'b'
tRp71
((I1
(L4L
tg60
I00
(lp72
S'Stmt1'
p73
aS'Stmt2'
p74
aS'Stmt3'
p75
aS'Stmt4'
p76
at(Nttba(lp77
g56
(g64
(I0
tS'b'
tRp78
(I1
(L4L
tg60
I00
(lp79
g1
(g49
g3
NtRp80
(dp81
g52
g1
(g53
g3
NtRp82
((lp83
g56
(g57
(I0
tS'b'
tRp84
((I1
(L1L
tg60
I00
(lp85
S'Block_stmt'
p86
at(Nttba(lp87
g56
(g64
(I0
tS'b'
tRp88
(I1
(L1L
tg60
I00
(lp89
g1
(g49
g3
NtRp90
(dp91
g52
g1
(g53
g3
NtRp92
((lp93
g56
(g57
(I0
tS'b'
tRp94
((I1
(L2L
tg60
I00
(lp95
S'Block_head'
p96
aS'Block'
p97
at(Nttba(lp98
g56
(g64
(I0
tS'b'
tRp99
(I1
(L2L
tg60
I00
(lp100
g1
(g49
g3
NtRp101
(dp102
g52
g1
(g53
g3
NtRp103
((lp104
g56
(g57
(I0
tS'b'
tRp105
((I1
(L1L
tg60
I00
(lp106
S'Func'
p107
at(Nttba(lp108
g56
(g64
(I0
tS'b'
tRp109
(I1
(L1L
tg60
I00
(lp110
g1
(g49
g3
NtRp111
(dp112
g52
g1
(g53
g3
NtRp113
((lp114
g56
(g57
(I0
tS'b'
tRp115
((I1
(L5L
tg60
I00
(lp116
S'_def_'
p117
aS'Id_var'
p118
aS'_(_'
p119
aS'Paramlist'
p120
aS'_)_'
p121
at(Nttba(lp122
g56
(g64
(I0
tS'b'
tRp123
(I1
(L5L
tg60
I00
(lp124
g1
(g49
g3
NtRp125
(dp126
g52
g1
(g53
g3
NtRp127
((lp128
g56
(g57
(I0
tS'b'
tRp129
((I1
(L0L
tg60
I00
(lt(Nttba(lp130
g56
(g64
(I0
tS'b'
tRp131
(I1
(L0L
tg60
I00
(ltba(lp132
g56
(g57
(I0
tS'b'
tRp133
((I1
(L0L
tg60
I00
(lt(Nttba(dp134
S'0.14.1'
p135
(dp136
S'axes'
p137
g128
sS'blocks'
p138
(lp139
(dp140
S'mgr_locs'
p141
g56
(g64
(I0
tS'b'
tRp142
(I1
(L0L
tg59
(S'i8'
I0
I1
tRp143
(I3
S'<'
NNNI-1
I-1
I0
tbI00
S''
tbsS'values'
p144
g131
sasstbsS'name'
p145
S'def'
p146
sbag1
(g49
g3
NtRp147
(dp148
g52
g1
(g53
g3
NtRp149
((lp150
g56
(g57
(I0
tS'b'
tRp151
((I1
(L1L
tg60
I00
(lp152
S'_f_'
p153
at(Nttba(lp154
g56
(g64
(I0
tS'b'
tRp155
(I1
(L1L
tg60
I00
(lp156
g1
(g49
g3
NtRp157
(dp158
g52
g1
(g53
g3
NtRp159
((lp160
g56
(g57
(I0
tS'b'
tRp161
((I1
(L0L
tg60
I00
(lt(Nttba(lp162
g56
(g64
(I0
tS'b'
tRp163
(I1
(L0L
tg60
I00
(ltba(lp164
g56
(g57
(I0
tS'b'
tRp165
((I1
(L0L
tg60
I00
(lt(Nttba(dp166
g135
(dp167
g137
g160
sg138
(lp168
(dp169
g141
g56
(g64
(I0
tS'b'
tRp170
(I1
(L0L
tg143
I00
S''
tbsg144
g163
sasstbsg145
S'f'
sbatba(lp171
g56
(g57
(I0
tS'b'
tRp172
((I1
(L1L
tg60
I00
(lp173
g153
at(Nttba(dp174
g135
(dp175
g137
g150
sg138
(lp176
(dp177
g141
c__builtin__
slice
p178
(I0
I1
I1
tRp179
sg144
g155
sasstbsg145
g118
sbag1
(g49
g3
NtRp180
(dp181
g52
g1
(g53
g3
NtRp182
((lp183
g56
(g57
(I0
tS'b'
tRp184
((I1
(L0L
tg60
I00
(lt(Nttba(lp185
g56
(g64
(I0
tS'b'
tRp186
(I1
(L0L
tg60
I00
(ltba(lp187
g56
(g57
(I0
tS'b'
tRp188
((I1
(L0L
tg60
I00
(lt(Nttba(dp189
g135
(dp190
g137
g183
sg138
(lp191
(dp192
g141
g56
(g64
(I0
tS'b'
tRp193
(I1
(L0L
tg143
I00
S''
tbsg144
g186
sasstbsg145
S'('
sbag1
(g49
g3
NtRp194
(dp195
g52
g1
(g53
g3
NtRp196
((lp197
g56
(g57
(I0
tS'b'
tRp198
((I1
(L1L
tg60
I00
(lp199
S'Pos_paramlist'
p200
at(Nttba(lp201
g56
(g64
(I0
tS'b'
tRp202
(I1
(L1L
tg60
I00
(lp203
g1
(g49
g3
NtRp204
(dp205
g52
g1
(g53
g3
NtRp206
((lp207
g56
(g57
(I0
tS'b'
tRp208
((I1
(L1L
tg60
I00
(lp209
S'Pos_paramtuple'
p210
at(Nttba(lp211
g56
(g64
(I0
tS'b'
tRp212
(I1
(L1L
tg60
I00
(lp213
g1
(g49
g3
NtRp214
(dp215
g52
g1
(g53
g3
NtRp216
((lp217
g56
(g57
(I0
tS'b'
tRp218
((I1
(L1L
tg60
I00
(lp219
S'Simple_var'
p220
at(Nttba(lp221
g56
(g64
(I0
tS'b'
tRp222
(I1
(L1L
tg60
I00
(lp223
g1
(g49
g3
NtRp224
(dp225
g52
g1
(g53
g3
NtRp226
((lp227
g56
(g57
(I0
tS'b'
tRp228
((I1
(L1L
tg60
I00
(lp229
S'_x_'
p230
at(Nttba(lp231
g56
(g64
(I0
tS'b'
tRp232
(I1
(L1L
tg60
I00
(lp233
g1
(g49
g3
NtRp234
(dp235
g52
g1
(g53
g3
NtRp236
((lp237
g56
(g57
(I0
tS'b'
tRp238
((I1
(L0L
tg60
I00
(lt(Nttba(lp239
g56
(g64
(I0
tS'b'
tRp240
(I1
(L0L
tg60
I00
(ltba(lp241
g56
(g57
(I0
tS'b'
tRp242
((I1
(L0L
tg60
I00
(lt(Nttba(dp243
g135
(dp244
g137
g237
sg138
(lp245
(dp246
g141
g56
(g64
(I0
tS'b'
tRp247
(I1
(L0L
tg143
I00
S''
tbsg144
g240
sasstbsg145
S'x'
sbatba(lp248
g56
(g57
(I0
tS'b'
tRp249
((I1
(L1L
tg60
I00
(lp250
g230
at(Nttba(dp251
g135
(dp252
g137
g227
sg138
(lp253
(dp254
g141
g178
(I0
I1
I1
tRp255
sg144
g232
sasstbsg145
g220
sbatba(lp256
g56
(g57
(I0
tS'b'
tRp257
((I1
(L1L
tg60
I00
(lp258
g220
at(Nttba(dp259
g135
(dp260
g137
g217
sg138
(lp261
(dp262
g141
g178
(I0
I1
I1
tRp263
sg144
g222
sasstbsg145
g210
sbatba(lp264
g56
(g57
(I0
tS'b'
tRp265
((I1
(L1L
tg60
I00
(lp266
g210
at(Nttba(dp267
g135
(dp268
g137
g207
sg138
(lp269
(dp270
g141
g178
(I0
I1
I1
tRp271
sg144
g212
sasstbsg145
g200
sbatba(lp272
g56
(g57
(I0
tS'b'
tRp273
((I1
(L1L
tg60
I00
(lp274
g200
at(Nttba(dp275
g135
(dp276
g137
g197
sg138
(lp277
(dp278
g141
g178
(I0
I1
I1
tRp279
sg144
g202
sasstbsg145
g120
sbag1
(g49
g3
NtRp280
(dp281
g52
g1
(g53
g3
NtRp282
((lp283
g56
(g57
(I0
tS'b'
tRp284
((I1
(L0L
tg60
I00
(lt(Nttba(lp285
g56
(g64
(I0
tS'b'
tRp286
(I1
(L0L
tg60
I00
(ltba(lp287
g56
(g57
(I0
tS'b'
tRp288
((I1
(L0L
tg60
I00
(lt(Nttba(dp289
g135
(dp290
g137
g283
sg138
(lp291
(dp292
g141
g56
(g64
(I0
tS'b'
tRp293
(I1
(L0L
tg143
I00
S''
tbsg144
g286
sasstbsg145
S')'
sbatba(lp294
g56
(g57
(I0
tS'b'
tRp295
((I1
(L5L
tg60
I00
(lp296
g117
ag118
ag119
ag120
ag121
at(Nttba(dp297
g135
(dp298
g137
g114
sg138
(lp299
(dp300
g141
g178
(I0
I5
I1
tRp301
sg144
g123
sasstbsg145
g107
sbatba(lp302
g56
(g57
(I0
tS'b'
tRp303
((I1
(L1L
tg60
I00
(lp304
g107
at(Nttba(dp305
g135
(dp306
g137
g104
sg138
(lp307
(dp308
g141
g178
(I0
I1
I1
tRp309
sg144
g109
sasstbsg145
g96
sbag1
(g49
g3
NtRp310
(dp311
g52
g1
(g53
g3
NtRp312
((lp313
g56
(g57
(I0
tS'b'
tRp314
((I1
(L3L
tg60
I00
(lp315
S'Blockbegin'
p316
aS'Prog'
p317
aS'Blockend'
p318
at(Nttba(lp319
g56
(g64
(I0
tS'b'
tRp320
(I1
(L3L
tg60
I00
(lp321
g1
(g49
g3
NtRp322
(dp323
g52
g1
(g53
g3
NtRp324
((lp325
g56
(g57
(I0
tS'b'
tRp326
((I1
(L1L
tg60
I00
(lp327
S'_:$blockbegin_'
p328
at(Nttba(lp329
g56
(g64
(I0
tS'b'
tRp330
(I1
(L1L
tg60
I00
(lp331
g1
(g49
g3
NtRp332
(dp333
g52
g1
(g53
g3
NtRp334
((lp335
g56
(g57
(I0
tS'b'
tRp336
((I1
(L0L
tg60
I00
(lt(Nttba(lp337
g56
(g64
(I0
tS'b'
tRp338
(I1
(L0L
tg60
I00
(ltba(lp339
g56
(g57
(I0
tS'b'
tRp340
((I1
(L0L
tg60
I00
(lt(Nttba(dp341
g135
(dp342
g137
g335
sg138
(lp343
(dp344
g141
g56
(g64
(I0
tS'b'
tRp345
(I1
(L0L
tg143
I00
S''
tbsg144
g338
sasstbsg145
S':$blockbegin'
p346
sbatba(lp347
g56
(g57
(I0
tS'b'
tRp348
((I1
(L1L
tg60
I00
(lp349
g328
at(Nttba(dp350
g135
(dp351
g137
g325
sg138
(lp352
(dp353
g141
g178
(I0
I1
I1
tRp354
sg144
g330
sasstbsg145
g316
sbag1
(g49
g3
NtRp355
(dp356
g52
g1
(g53
g3
NtRp357
((lp358
g56
(g57
(I0
tS'b'
tRp359
((I1
(L2L
tg60
I00
(lp360
S'Stmt1'
p361
aS'Stmt2'
p362
at(Nttba(lp363
g56
(g64
(I0
tS'b'
tRp364
(I1
(L2L
tg60
I00
(lp365
g1
(g49
g3
NtRp366
(dp367
g52
g1
(g53
g3
NtRp368
((lp369
g56
(g57
(I0
tS'b'
tRp370
((I1
(L1L
tg60
I00
(lp371
S'Single_stmt'
p372
at(Nttba(lp373
g56
(g64
(I0
tS'b'
tRp374
(I1
(L1L
tg60
I00
(lp375
g1
(g49
g3
NtRp376
(dp377
g52
g1
(g53
g3
NtRp378
((lp379
g56
(g57
(I0
tS'b'
tRp380
((I1
(L2L
tg60
I00
(lp381
S'Exprlist'
p382
aS'_;_'
p383
at(Nttba(lp384
g56
(g64
(I0
tS'b'
tRp385
(I1
(L2L
tg60
I00
(lp386
g1
(g49
g3
NtRp387
(dp388
g52
g1
(g53
g3
NtRp389
((lp390
g56
(g57
(I0
tS'b'
tRp391
((I1
(L1L
tg60
I00
(lp392
S'Expr'
p393
at(Nttba(lp394
g56
(g64
(I0
tS'b'
tRp395
(I1
(L1L
tg60
I00
(lp396
g1
(g49
g3
NtRp397
(dp398
g52
g1
(g53
g3
NtRp399
((lp400
g56
(g57
(I0
tS'b'
tRp401
((I1
(L1L
tg60
I00
(lp402
S'Val'
p403
at(Nttba(lp404
g56
(g64
(I0
tS'b'
tRp405
(I1
(L1L
tg60
I00
(lp406
g1
(g49
g3
NtRp407
(dp408
g52
g1
(g53
g3
NtRp409
((lp410
g56
(g57
(I0
tS'b'
tRp411
((I1
(L1L
tg60
I00
(lp412
S'String'
p413
at(Nttba(lp414
g56
(g64
(I0
tS'b'
tRp415
(I1
(L1L
tg60
I00
(lp416
g1
(g49
g3
NtRp417
(dp418
g52
g1
(g53
g3
NtRp419
((lp420
g56
(g57
(I0
tS'b'
tRp421
((I1
(L1L
tg60
I00
(lp422
S'_"""rechnen"""_'
p423
at(Nttba(lp424
g56
(g64
(I0
tS'b'
tRp425
(I1
(L1L
tg60
I00
(lp426
g1
(g49
g3
NtRp427
(dp428
g52
g1
(g53
g3
NtRp429
((lp430
g56
(g57
(I0
tS'b'
tRp431
((I1
(L0L
tg60
I00
(lt(Nttba(lp432
g56
(g64
(I0
tS'b'
tRp433
(I1
(L0L
tg60
I00
(ltba(lp434
g56
(g57
(I0
tS'b'
tRp435
((I1
(L0L
tg60
I00
(lt(Nttba(dp436
g135
(dp437
g137
g430
sg138
(lp438
(dp439
g141
g56
(g64
(I0
tS'b'
tRp440
(I1
(L0L
tg143
I00
S''
tbsg144
g433
sasstbsg145
S'"""rechnen"""'
p441
sbatba(lp442
g56
(g57
(I0
tS'b'
tRp443
((I1
(L1L
tg60
I00
(lp444
g423
at(Nttba(dp445
g135
(dp446
g137
g420
sg138
(lp447
(dp448
g141
g178
(I0
I1
I1
tRp449
sg144
g425
sasstbsg145
g413
sbatba(lp450
g56
(g57
(I0
tS'b'
tRp451
((I1
(L1L
tg60
I00
(lp452
g413
at(Nttba(dp453
g135
(dp454
g137
g410
sg138
(lp455
(dp456
g141
g178
(I0
I1
I1
tRp457
sg144
g415
sasstbsg145
g403
sbatba(lp458
g56
(g57
(I0
tS'b'
tRp459
((I1
(L1L
tg60
I00
(lp460
g403
at(Nttba(dp461
g135
(dp462
g137
g400
sg138
(lp463
(dp464
g141
g178
(I0
I1
I1
tRp465
sg144
g405
sasstbsg145
g393
sbatba(lp466
g56
(g57
(I0
tS'b'
tRp467
((I1
(L1L
tg60
I00
(lp468
g393
at(Nttba(dp469
g135
(dp470
g137
g390
sg138
(lp471
(dp472
g141
g178
(I0
I1
I1
tRp473
sg144
g395
sasstbsg145
g382
sbag1
(g49
g3
NtRp474
(dp475
g52
g1
(g53
g3
NtRp476
((lp477
g56
(g57
(I0
tS'b'
tRp478
((I1
(L0L
tg60
I00
(lt(Nttba(lp479
g56
(g64
(I0
tS'b'
tRp480
(I1
(L0L
tg60
I00
(ltba(lp481
g56
(g57
(I0
tS'b'
tRp482
((I1
(L0L
tg60
I00
(lt(Nttba(dp483
g135
(dp484
g137
g477
sg138
(lp485
(dp486
g141
g56
(g64
(I0
tS'b'
tRp487
(I1
(L0L
tg143
I00
S''
tbsg144
g480
sasstbsg145
S';'
sbatba(lp488
g56
(g57
(I0
tS'b'
tRp489
((I1
(L2L
tg60
I00
(lp490
g382
ag383
at(Nttba(dp491
g135
(dp492
g137
g379
sg138
(lp493
(dp494
g141
g178
(I0
I2
I1
tRp495
sg144
g385
sasstbsg145
g372
sbatba(lp496
g56
(g57
(I0
tS'b'
tRp497
((I1
(L1L
tg60
I00
(lp498
g372
at(Nttba(dp499
g135
(dp500
g137
g369
sg138
(lp501
(dp502
g141
g178
(I0
I1
I1
tRp503
sg144
g374
sasstbsg145
S'Stmt'
p504
sbag1
(g49
g3
NtRp505
(dp506
g52
g1
(g53
g3
NtRp507
((lp508
g56
(g57
(I0
tS'b'
tRp509
((I1
(L1L
tg60
I00
(lp510
S'Single_stmt'
p511
at(Nttba(lp512
g56
(g64
(I0
tS'b'
tRp513
(I1
(L1L
tg60
I00
(lp514
g1
(g49
g3
NtRp515
(dp516
g52
g1
(g53
g3
NtRp517
((lp518
g56
(g57
(I0
tS'b'
tRp519
((I1
(L2L
tg60
I00
(lp520
S'Stmts'
p521
aS'_;_'
p522
at(Nttba(lp523
g56
(g64
(I0
tS'b'
tRp524
(I1
(L2L
tg60
I00
(lp525
g1
(g49
g3
NtRp526
(dp527
g52
g1
(g53
g3
NtRp528
((lp529
g56
(g57
(I0
tS'b'
tRp530
((I1
(L2L
tg60
I00
(lp531
S'_return_'
p532
aS'Exprlist'
p533
at(Nttba(lp534
g56
(g64
(I0
tS'b'
tRp535
(I1
(L2L
tg60
I00
(lp536
g1
(g49
g3
NtRp537
(dp538
g52
g1
(g53
g3
NtRp539
((lp540
g56
(g57
(I0
tS'b'
tRp541
((I1
(L0L
tg60
I00
(lt(Nttba(lp542
g56
(g64
(I0
tS'b'
tRp543
(I1
(L0L
tg60
I00
(ltba(lp544
g56
(g57
(I0
tS'b'
tRp545
((I1
(L0L
tg60
I00
(lt(Nttba(dp546
g135
(dp547
g137
g540
sg138
(lp548
(dp549
g141
g56
(g64
(I0
tS'b'
tRp550
(I1
(L0L
tg143
I00
S''
tbsg144
g543
sasstbsg145
S'return'
p551
sbag1
(g49
g3
NtRp552
(dp553
g52
g1
(g53
g3
NtRp554
((lp555
g56
(g57
(I0
tS'b'
tRp556
((I1
(L1L
tg60
I00
(lp557
S'Expr'
p558
at(Nttba(lp559
g56
(g64
(I0
tS'b'
tRp560
(I1
(L1L
tg60
I00
(lp561
g1
(g49
g3
NtRp562
(dp563
g52
g1
(g53
g3
NtRp564
((lp565
g56
(g57
(I0
tS'b'
tRp566
((I1
(L3L
tg60
I00
(lp567
S'Expr1'
p568
aS'_+_'
p569
aS'Expr2'
p570
at(Nttba(lp571
g56
(g64
(I0
tS'b'
tRp572
(I1
(L3L
tg60
I00
(lp573
g1
(g49
g3
NtRp574
(dp575
g52
g1
(g53
g3
NtRp576
((lp577
g56
(g57
(I0
tS'b'
tRp578
((I1
(L3L
tg60
I00
(lp579
S'Expr1'
p580
aS'_+_'
p581
aS'Expr2'
p582
at(Nttba(lp583
g56
(g64
(I0
tS'b'
tRp584
(I1
(L3L
tg60
I00
(lp585
g1
(g49
g3
NtRp586
(dp587
g52
g1
(g53
g3
NtRp588
((lp589
g56
(g57
(I0
tS'b'
tRp590
((I1
(L3L
tg60
I00
(lp591
S'Expr1'
p592
aS'_+_'
p593
aS'Expr2'
p594
at(Nttba(lp595
g56
(g64
(I0
tS'b'
tRp596
(I1
(L3L
tg60
I00
(lp597
g1
(g49
g3
NtRp598
(dp599
g52
g1
(g53
g3
NtRp600
((lp601
g56
(g57
(I0
tS'b'
tRp602
((I1
(L3L
tg60
I00
(lp603
S'Expr1'
p604
aS'_**_'
p605
aS'Expr2'
p606
at(Nttba(lp607
g56
(g64
(I0
tS'b'
tRp608
(I1
(L3L
tg60
I00
(lp609
g1
(g49
g3
NtRp610
(dp611
g52
g1
(g53
g3
NtRp612
((lp613
g56
(g57
(I0
tS'b'
tRp614
((I1
(L1L
tg60
I00
(lp615
S'Val'
p616
at(Nttba(lp617
g56
(g64
(I0
tS'b'
tRp618
(I1
(L1L
tg60
I00
(lp619
g1
(g49
g3
NtRp620
(dp621
g52
g1
(g53
g3
NtRp622
((lp623
g56
(g57
(I0
tS'b'
tRp624
((I1
(L1L
tg60
I00
(lp625
S'Var'
p626
at(Nttba(lp627
g56
(g64
(I0
tS'b'
tRp628
(I1
(L1L
tg60
I00
(lp629
g1
(g49
g3
NtRp630
(dp631
g52
g1
(g53
g3
NtRp632
((lp633
g56
(g57
(I0
tS'b'
tRp634
((I1
(L1L
tg60
I00
(lp635
S'_x_'
p636
at(Nttba(lp637
g56
(g64
(I0
tS'b'
tRp638
(I1
(L1L
tg60
I00
(lp639
g1
(g49
g3
NtRp640
(dp641
g52
g1
(g53
g3
NtRp642
((lp643
g56
(g57
(I0
tS'b'
tRp644
((I1
(L0L
tg60
I00
(lt(Nttba(lp645
g56
(g64
(I0
tS'b'
tRp646
(I1
(L0L
tg60
I00
(ltba(lp647
g56
(g57
(I0
tS'b'
tRp648
((I1
(L0L
tg60
I00
(lt(Nttba(dp649
g135
(dp650
g137
g643
sg138
(lp651
(dp652
g141
g56
(g64
(I0
tS'b'
tRp653
(I1
(L0L
tg143
I00
S''
tbsg144
g646
sasstbsg145
S'x'
sbatba(lp654
g56
(g57
(I0
tS'b'
tRp655
((I1
(L1L
tg60
I00
(lp656
g636
at(Nttba(dp657
g135
(dp658
g137
g633
sg138
(lp659
(dp660
g141
g178
(I0
I1
I1
tRp661
sg144
g638
sasstbsg145
g626
sbatba(lp662
g56
(g57
(I0
tS'b'
tRp663
((I1
(L1L
tg60
I00
(lp664
g626
at(Nttba(dp665
g135
(dp666
g137
g623
sg138
(lp667
(dp668
g141
g178
(I0
I1
I1
tRp669
sg144
g628
sasstbsg145
g616
sbatba(lp670
g56
(g57
(I0
tS'b'
tRp671
((I1
(L1L
tg60
I00
(lp672
g616
at(Nttba(dp673
g135
(dp674
g137
g613
sg138
(lp675
(dp676
g141
g178
(I0
I1
I1
tRp677
sg144
g618
sasstbsg145
S'Expr'
p678
sbag1
(g49
g3
NtRp679
(dp680
g52
g1
(g53
g3
NtRp681
((lp682
g56
(g57
(I0
tS'b'
tRp683
((I1
(L0L
tg60
I00
(lt(Nttba(lp684
g56
(g64
(I0
tS'b'
tRp685
(I1
(L0L
tg60
I00
(ltba(lp686
g56
(g57
(I0
tS'b'
tRp687
((I1
(L0L
tg60
I00
(lt(Nttba(dp688
g135
(dp689
g137
g682
sg138
(lp690
(dp691
g141
g56
(g64
(I0
tS'b'
tRp692
(I1
(L0L
tg143
I00
S''
tbsg144
g685
sasstbsg145
S'**'
p693
sbag1
(g49
g3
NtRp694
(dp695
g52
g1
(g53
g3
NtRp696
((lp697
g56
(g57
(I0
tS'b'
tRp698
((I1
(L1L
tg60
I00
(lp699
S'Val'
p700
at(Nttba(lp701
g56
(g64
(I0
tS'b'
tRp702
(I1
(L1L
tg60
I00
(lp703
g1
(g49
g3
NtRp704
(dp705
g52
g1
(g53
g3
NtRp706
((lp707
g56
(g57
(I0
tS'b'
tRp708
((I1
(L1L
tg60
I00
(lp709
S'Number'
p710
at(Nttba(lp711
g56
(g64
(I0
tS'b'
tRp712
(I1
(L1L
tg60
I00
(lp713
g1
(g49
g3
NtRp714
(dp715
g52
g1
(g53
g3
NtRp716
((lp717
g56
(g57
(I0
tS'b'
tRp718
((I1
(L1L
tg60
I00
(lp719
S'Int'
p720
at(Nttba(lp721
g56
(g64
(I0
tS'b'
tRp722
(I1
(L1L
tg60
I00
(lp723
g1
(g49
g3
NtRp724
(dp725
g52
g1
(g53
g3
NtRp726
((lp727
g56
(g57
(I0
tS'b'
tRp728
((I1
(L1L
tg60
I00
(lp729
S'_2_'
p730
at(Nttba(lp731
g56
(g64
(I0
tS'b'
tRp732
(I1
(L1L
tg60
I00
(lp733
g1
(g49
g3
NtRp734
(dp735
g52
g1
(g53
g3
NtRp736
((lp737
g56
(g57
(I0
tS'b'
tRp738
((I1
(L0L
tg60
I00
(lt(Nttba(lp739
g56
(g64
(I0
tS'b'
tRp740
(I1
(L0L
tg60
I00
(ltba(lp741
g56
(g57
(I0
tS'b'
tRp742
((I1
(L0L
tg60
I00
(lt(Nttba(dp743
g135
(dp744
g137
g737
sg138
(lp745
(dp746
g141
g56
(g64
(I0
tS'b'
tRp747
(I1
(L0L
tg143
I00
S''
tbsg144
g740
sasstbsg145
S'2'
sbatba(lp748
g56
(g57
(I0
tS'b'
tRp749
((I1
(L1L
tg60
I00
(lp750
g730
at(Nttba(dp751
g135
(dp752
g137
g727
sg138
(lp753
(dp754
g141
g178
(I0
I1
I1
tRp755
sg144
g732
sasstbsg145
g720
sbatba(lp756
g56
(g57
(I0
tS'b'
tRp757
((I1
(L1L
tg60
I00
(lp758
g720
at(Nttba(dp759
g135
(dp760
g137
g717
sg138
(lp761
(dp762
g141
g178
(I0
I1
I1
tRp763
sg144
g722
sasstbsg145
g710
sbatba(lp764
g56
(g57
(I0
tS'b'
tRp765
((I1
(L1L
tg60
I00
(lp766
g710
at(Nttba(dp767
g135
(dp768
g137
g707
sg138
(lp769
(dp770
g141
g178
(I0
I1
I1
tRp771
sg144
g712
sasstbsg145
g700
sbatba(lp772
g56
(g57
(I0
tS'b'
tRp773
((I1
(L1L
tg60
I00
(lp774
g700
at(Nttba(dp775
g135
(dp776
g137
g697
sg138
(lp777
(dp778
g141
g178
(I0
I1
I1
tRp779
sg144
g702
sasstbsg145
S'Expr'
p780
sbatba(lp781
g56
(g57
(I0
tS'b'
tRp782
((I1
(L3L
tg60
I00
(lp783
g604
ag605
ag606
at(Nttba(dp784
g135
(dp785
g137
g601
sg138
(lp786
(dp787
g141
g178
(I0
I3
I1
tRp788
sg144
g608
sasstbsg145
S'Expr'
p789
sbag1
(g49
g3
NtRp790
(dp791
g52
g1
(g53
g3
NtRp792
((lp793
g56
(g57
(I0
tS'b'
tRp794
((I1
(L0L
tg60
I00
(lt(Nttba(lp795
g56
(g64
(I0
tS'b'
tRp796
(I1
(L0L
tg60
I00
(ltba(lp797
g56
(g57
(I0
tS'b'
tRp798
((I1
(L0L
tg60
I00
(lt(Nttba(dp799
g135
(dp800
g137
g793
sg138
(lp801
(dp802
g141
g56
(g64
(I0
tS'b'
tRp803
(I1
(L0L
tg143
I00
S''
tbsg144
g796
sasstbsg145
S'+'
sbag1
(g49
g3
NtRp804
(dp805
g52
g1
(g53
g3
NtRp806
((lp807
g56
(g57
(I0
tS'b'
tRp808
((I1
(L3L
tg60
I00
(lp809
S'Expr1'
p810
aS'_-_'
p811
aS'Expr2'
p812
at(Nttba(lp813
g56
(g64
(I0
tS'b'
tRp814
(I1
(L3L
tg60
I00
(lp815
g1
(g49
g3
NtRp816
(dp817
g52
g1
(g53
g3
NtRp818
((lp819
g56
(g57
(I0
tS'b'
tRp820
((I1
(L3L
tg60
I00
(lp821
S'Expr1'
p822
aS'_-_'
p823
aS'Expr2'
p824
at(Nttba(lp825
g56
(g64
(I0
tS'b'
tRp826
(I1
(L3L
tg60
I00
(lp827
g1
(g49
g3
NtRp828
(dp829
g52
g1
(g53
g3
NtRp830
((lp831
g56
(g57
(I0
tS'b'
tRp832
((I1
(L3L
tg60
I00
(lp833
S'Expr1'
p834
aS'_*_'
p835
aS'Expr2'
p836
at(Nttba(lp837
g56
(g64
(I0
tS'b'
tRp838
(I1
(L3L
tg60
I00
(lp839
g1
(g49
g3
NtRp840
(dp841
g52
g1
(g53
g3
NtRp842
((lp843
g56
(g57
(I0
tS'b'
tRp844
((I1
(L1L
tg60
I00
(lp845
S'Val'
p846
at(Nttba(lp847
g56
(g64
(I0
tS'b'
tRp848
(I1
(L1L
tg60
I00
(lp849
g1
(g49
g3
NtRp850
(dp851
g52
g1
(g53
g3
NtRp852
((lp853
g56
(g57
(I0
tS'b'
tRp854
((I1
(L1L
tg60
I00
(lp855
S'Var'
p856
at(Nttba(lp857
g56
(g64
(I0
tS'b'
tRp858
(I1
(L1L
tg60
I00
(lp859
g1
(g49
g3
NtRp860
(dp861
g52
g1
(g53
g3
NtRp862
((lp863
g56
(g57
(I0
tS'b'
tRp864
((I1
(L1L
tg60
I00
(lp865
S'_x_'
p866
at(Nttba(lp867
g56
(g64
(I0
tS'b'
tRp868
(I1
(L1L
tg60
I00
(lp869
g1
(g49
g3
NtRp870
(dp871
g52
g1
(g53
g3
NtRp872
((lp873
g56
(g57
(I0
tS'b'
tRp874
((I1
(L0L
tg60
I00
(lt(Nttba(lp875
g56
(g64
(I0
tS'b'
tRp876
(I1
(L0L
tg60
I00
(ltba(lp877
g56
(g57
(I0
tS'b'
tRp878
((I1
(L0L
tg60
I00
(lt(Nttba(dp879
g135
(dp880
g137
g873
sg138
(lp881
(dp882
g141
g56
(g64
(I0
tS'b'
tRp883
(I1
(L0L
tg143
I00
S''
tbsg144
g876
sasstbsg145
S'x'
sbatba(lp884
g56
(g57
(I0
tS'b'
tRp885
((I1
(L1L
tg60
I00
(lp886
g866
at(Nttba(dp887
g135
(dp888
g137
g863
sg138
(lp889
(dp890
g141
g178
(I0
I1
I1
tRp891
sg144
g868
sasstbsg145
g856
sbatba(lp892
g56
(g57
(I0
tS'b'
tRp893
((I1
(L1L
tg60
I00
(lp894
g856
at(Nttba(dp895
g135
(dp896
g137
g853
sg138
(lp897
(dp898
g141
g178
(I0
I1
I1
tRp899
sg144
g858
sasstbsg145
g846
sbatba(lp900
g56
(g57
(I0
tS'b'
tRp901
((I1
(L1L
tg60
I00
(lp902
g846
at(Nttba(dp903
g135
(dp904
g137
g843
sg138
(lp905
(dp906
g141
g178
(I0
I1
I1
tRp907
sg144
g848
sasstbsg145
S'Expr'
p908
sbag1
(g49
g3
NtRp909
(dp910
g52
g1
(g53
g3
NtRp911
((lp912
g56
(g57
(I0
tS'b'
tRp913
((I1
(L0L
tg60
I00
(lt(Nttba(lp914
g56
(g64
(I0
tS'b'
tRp915
(I1
(L0L
tg60
I00
(ltba(lp916
g56
(g57
(I0
tS'b'
tRp917
((I1
(L0L
tg60
I00
(lt(Nttba(dp918
g135
(dp919
g137
g912
sg138
(lp920
(dp921
g141
g56
(g64
(I0
tS'b'
tRp922
(I1
(L0L
tg143
I00
S''
tbsg144
g915
sasstbsg145
S'*'
sbag1
(g49
g3
NtRp923
(dp924
g52
g1
(g53
g3
NtRp925
((lp926
g56
(g57
(I0
tS'b'
tRp927
((I1
(L1L
tg60
I00
(lp928
S'Val'
p929
at(Nttba(lp930
g56
(g64
(I0
tS'b'
tRp931
(I1
(L1L
tg60
I00
(lp932
g1
(g49
g3
NtRp933
(dp934
g52
g1
(g53
g3
NtRp935
((lp936
g56
(g57
(I0
tS'b'
tRp937
((I1
(L1L
tg60
I00
(lp938
S'Number'
p939
at(Nttba(lp940
g56
(g64
(I0
tS'b'
tRp941
(I1
(L1L
tg60
I00
(lp942
g1
(g49
g3
NtRp943
(dp944
g52
g1
(g53
g3
NtRp945
((lp946
g56
(g57
(I0
tS'b'
tRp947
((I1
(L1L
tg60
I00
(lp948
S'Int'
p949
at(Nttba(lp950
g56
(g64
(I0
tS'b'
tRp951
(I1
(L1L
tg60
I00
(lp952
g1
(g49
g3
NtRp953
(dp954
g52
g1
(g53
g3
NtRp955
((lp956
g56
(g57
(I0
tS'b'
tRp957
((I1
(L1L
tg60
I00
(lp958
S'_4_'
p959
at(Nttba(lp960
g56
(g64
(I0
tS'b'
tRp961
(I1
(L1L
tg60
I00
(lp962
g1
(g49
g3
NtRp963
(dp964
g52
g1
(g53
g3
NtRp965
((lp966
g56
(g57
(I0
tS'b'
tRp967
((I1
(L0L
tg60
I00
(lt(Nttba(lp968
g56
(g64
(I0
tS'b'
tRp969
(I1
(L0L
tg60
I00
(ltba(lp970
g56
(g57
(I0
tS'b'
tRp971
((I1
(L0L
tg60
I00
(lt(Nttba(dp972
g135
(dp973
g137
g966
sg138
(lp974
(dp975
g141
g56
(g64
(I0
tS'b'
tRp976
(I1
(L0L
tg143
I00
S''
tbsg144
g969
sasstbsg145
S'4'
sbatba(lp977
g56
(g57
(I0
tS'b'
tRp978
((I1
(L1L
tg60
I00
(lp979
g959
at(Nttba(dp980
g135
(dp981
g137
g956
sg138
(lp982
(dp983
g141
g178
(I0
I1
I1
tRp984
sg144
g961
sasstbsg145
g949
sbatba(lp985
g56
(g57
(I0
tS'b'
tRp986
((I1
(L1L
tg60
I00
(lp987
g949
at(Nttba(dp988
g135
(dp989
g137
g946
sg138
(lp990
(dp991
g141
g178
(I0
I1
I1
tRp992
sg144
g951
sasstbsg145
g939
sbatba(lp993
g56
(g57
(I0
tS'b'
tRp994
((I1
(L1L
tg60
I00
(lp995
g939
at(Nttba(dp996
g135
(dp997
g137
g936
sg138
(lp998
(dp999
g141
g178
(I0
I1
I1
tRp1000
sg144
g941
sasstbsg145
g929
sbatba(lp1001
g56
(g57
(I0
tS'b'
tRp1002
((I1
(L1L
tg60
I00
(lp1003
g929
at(Nttba(dp1004
g135
(dp1005
g137
g926
sg138
(lp1006
(dp1007
g141
g178
(I0
I1
I1
tRp1008
sg144
g931
sasstbsg145
S'Expr'
p1009
sbatba(lp1010
g56
(g57
(I0
tS'b'
tRp1011
((I1
(L3L
tg60
I00
(lp1012
g834
ag835
ag836
at(Nttba(dp1013
g135
(dp1014
g137
g831
sg138
(lp1015
(dp1016
g141
g178
(I0
I3
I1
tRp1017
sg144
g838
sasstbsg145
S'Expr'
p1018
sbag1
(g49
g3
NtRp1019
(dp1020
g52
g1
(g53
g3
NtRp1021
((lp1022
g56
(g57
(I0
tS'b'
tRp1023
((I1
(L0L
tg60
I00
(lt(Nttba(lp1024
g56
(g64
(I0
tS'b'
tRp1025
(I1
(L0L
tg60
I00
(ltba(lp1026
g56
(g57
(I0
tS'b'
tRp1027
((I1
(L0L
tg60
I00
(lt(Nttba(dp1028
g135
(dp1029
g137
g1022
sg138
(lp1030
(dp1031
g141
g56
(g64
(I0
tS'b'
tRp1032
(I1
(L0L
tg143
I00
S''
tbsg144
g1025
sasstbsg145
S'-'
sbag1
(g49
g3
NtRp1033
(dp1034
g52
g1
(g53
g3
NtRp1035
((lp1036
g56
(g57
(I0
tS'b'
tRp1037
((I1
(L3L
tg60
I00
(lp1038
S'Expr1'
p1039
aS'_/_'
p1040
aS'Expr2'
p1041
at(Nttba(lp1042
g56
(g64
(I0
tS'b'
tRp1043
(I1
(L3L
tg60
I00
(lp1044
g1
(g49
g3
NtRp1045
(dp1046
g52
g1
(g53
g3
NtRp1047
((lp1048
g56
(g57
(I0
tS'b'
tRp1049
((I1
(L3L
tg60
I00
(lp1050
S'_(_'
p1051
aS'Expr'
p1052
aS'_)_'
p1053
at(Nttba(lp1054
g56
(g64
(I0
tS'b'
tRp1055
(I1
(L3L
tg60
I00
(lp1056
g1
(g49
g3
NtRp1057
(dp1058
g52
g1
(g53
g3
NtRp1059
((lp1060
g56
(g57
(I0
tS'b'
tRp1061
((I1
(L0L
tg60
I00
(lt(Nttba(lp1062
g56
(g64
(I0
tS'b'
tRp1063
(I1
(L0L
tg60
I00
(ltba(lp1064
g56
(g57
(I0
tS'b'
tRp1065
((I1
(L0L
tg60
I00
(lt(Nttba(dp1066
g135
(dp1067
g137
g1060
sg138
(lp1068
(dp1069
g141
g56
(g64
(I0
tS'b'
tRp1070
(I1
(L0L
tg143
I00
S''
tbsg144
g1063
sasstbsg145
S'('
sbag1
(g49
g3
NtRp1071
(dp1072
g52
g1
(g53
g3
NtRp1073
((lp1074
g56
(g57
(I0
tS'b'
tRp1075
((I1
(L3L
tg60
I00
(lp1076
S'Expr1'
p1077
aS'_-_'
p1078
aS'Expr2'
p1079
at(Nttba(lp1080
g56
(g64
(I0
tS'b'
tRp1081
(I1
(L3L
tg60
I00
(lp1082
g1
(g49
g3
NtRp1083
(dp1084
g52
g1
(g53
g3
NtRp1085
((lp1086
g56
(g57
(I0
tS'b'
tRp1087
((I1
(L1L
tg60
I00
(lp1088
S'Val'
p1089
at(Nttba(lp1090
g56
(g64
(I0
tS'b'
tRp1091
(I1
(L1L
tg60
I00
(lp1092
g1
(g49
g3
NtRp1093
(dp1094
g52
g1
(g53
g3
NtRp1095
((lp1096
g56
(g57
(I0
tS'b'
tRp1097
((I1
(L1L
tg60
I00
(lp1098
S'Var'
p1099
at(Nttba(lp1100
g56
(g64
(I0
tS'b'
tRp1101
(I1
(L1L
tg60
I00
(lp1102
g1
(g49
g3
NtRp1103
(dp1104
g52
g1
(g53
g3
NtRp1105
((lp1106
g56
(g57
(I0
tS'b'
tRp1107
((I1
(L1L
tg60
I00
(lp1108
S'_x_'
p1109
at(Nttba(lp1110
g56
(g64
(I0
tS'b'
tRp1111
(I1
(L1L
tg60
I00
(lp1112
g1
(g49
g3
NtRp1113
(dp1114
g52
g1
(g53
g3
NtRp1115
((lp1116
g56
(g57
(I0
tS'b'
tRp1117
((I1
(L0L
tg60
I00
(lt(Nttba(lp1118
g56
(g64
(I0
tS'b'
tRp1119
(I1
(L0L
tg60
I00
(ltba(lp1120
g56
(g57
(I0
tS'b'
tRp1121
((I1
(L0L
tg60
I00
(lt(Nttba(dp1122
g135
(dp1123
g137
g1116
sg138
(lp1124
(dp1125
g141
g56
(g64
(I0
tS'b'
tRp1126
(I1
(L0L
tg143
I00
S''
tbsg144
g1119
sasstbsg145
S'x'
sbatba(lp1127
g56
(g57
(I0
tS'b'
tRp1128
((I1
(L1L
tg60
I00
(lp1129
g1109
at(Nttba(dp1130
g135
(dp1131
g137
g1106
sg138
(lp1132
(dp1133
g141
g178
(I0
I1
I1
tRp1134
sg144
g1111
sasstbsg145
g1099
sbatba(lp1135
g56
(g57
(I0
tS'b'
tRp1136
((I1
(L1L
tg60
I00
(lp1137
g1099
at(Nttba(dp1138
g135
(dp1139
g137
g1096
sg138
(lp1140
(dp1141
g141
g178
(I0
I1
I1
tRp1142
sg144
g1101
sasstbsg145
g1089
sbatba(lp1143
g56
(g57
(I0
tS'b'
tRp1144
((I1
(L1L
tg60
I00
(lp1145
g1089
at(Nttba(dp1146
g135
(dp1147
g137
g1086
sg138
(lp1148
(dp1149
g141
g178
(I0
I1
I1
tRp1150
sg144
g1091
sasstbsg145
S'Expr'
p1151
sbag1
(g49
g3
NtRp1152
(dp1153
g52
g1
(g53
g3
NtRp1154
((lp1155
g56
(g57
(I0
tS'b'
tRp1156
((I1
(L0L
tg60
I00
(lt(Nttba(lp1157
g56
(g64
(I0
tS'b'
tRp1158
(I1
(L0L
tg60
I00
(ltba(lp1159
g56
(g57
(I0
tS'b'
tRp1160
((I1
(L0L
tg60
I00
(lt(Nttba(dp1161
g135
(dp1162
g137
g1155
sg138
(lp1163
(dp1164
g141
g56
(g64
(I0
tS'b'
tRp1165
(I1
(L0L
tg143
I00
S''
tbsg144
g1158
sasstbsg145
S'-'
sbag1
(g49
g3
NtRp1166
(dp1167
g52
g1
(g53
g3
NtRp1168
((lp1169
g56
(g57
(I0
tS'b'
tRp1170
((I1
(L1L
tg60
I00
(lp1171
S'Val'
p1172
at(Nttba(lp1173
g56
(g64
(I0
tS'b'
tRp1174
(I1
(L1L
tg60
I00
(lp1175
g1
(g49
g3
NtRp1176
(dp1177
g52
g1
(g53
g3
NtRp1178
((lp1179
g56
(g57
(I0
tS'b'
tRp1180
((I1
(L1L
tg60
I00
(lp1181
S'Number'
p1182
at(Nttba(lp1183
g56
(g64
(I0
tS'b'
tRp1184
(I1
(L1L
tg60
I00
(lp1185
g1
(g49
g3
NtRp1186
(dp1187
g52
g1
(g53
g3
NtRp1188
((lp1189
g56
(g57
(I0
tS'b'
tRp1190
((I1
(L1L
tg60
I00
(lp1191
S'Int'
p1192
at(Nttba(lp1193
g56
(g64
(I0
tS'b'
tRp1194
(I1
(L1L
tg60
I00
(lp1195
g1
(g49
g3
NtRp1196
(dp1197
g52
g1
(g53
g3
NtRp1198
((lp1199
g56
(g57
(I0
tS'b'
tRp1200
((I1
(L1L
tg60
I00
(lp1201
S'_3_'
p1202
at(Nttba(lp1203
g56
(g64
(I0
tS'b'
tRp1204
(I1
(L1L
tg60
I00
(lp1205
g1
(g49
g3
NtRp1206
(dp1207
g52
g1
(g53
g3
NtRp1208
((lp1209
g56
(g57
(I0
tS'b'
tRp1210
((I1
(L0L
tg60
I00
(lt(Nttba(lp1211
g56
(g64
(I0
tS'b'
tRp1212
(I1
(L0L
tg60
I00
(ltba(lp1213
g56
(g57
(I0
tS'b'
tRp1214
((I1
(L0L
tg60
I00
(lt(Nttba(dp1215
g135
(dp1216
g137
g1209
sg138
(lp1217
(dp1218
g141
g56
(g64
(I0
tS'b'
tRp1219
(I1
(L0L
tg143
I00
S''
tbsg144
g1212
sasstbsg145
S'3'
sbatba(lp1220
g56
(g57
(I0
tS'b'
tRp1221
((I1
(L1L
tg60
I00
(lp1222
g1202
at(Nttba(dp1223
g135
(dp1224
g137
g1199
sg138
(lp1225
(dp1226
g141
g178
(I0
I1
I1
tRp1227
sg144
g1204
sasstbsg145
g1192
sbatba(lp1228
g56
(g57
(I0
tS'b'
tRp1229
((I1
(L1L
tg60
I00
(lp1230
g1192
at(Nttba(dp1231
g135
(dp1232
g137
g1189
sg138
(lp1233
(dp1234
g141
g178
(I0
I1
I1
tRp1235
sg144
g1194
sasstbsg145
g1182
sbatba(lp1236
g56
(g57
(I0
tS'b'
tRp1237
((I1
(L1L
tg60
I00
(lp1238
g1182
at(Nttba(dp1239
g135
(dp1240
g137
g1179
sg138
(lp1241
(dp1242
g141
g178
(I0
I1
I1
tRp1243
sg144
g1184
sasstbsg145
g1172
sbatba(lp1244
g56
(g57
(I0
tS'b'
tRp1245
((I1
(L1L
tg60
I00
(lp1246
g1172
at(Nttba(dp1247
g135
(dp1248
g137
g1169
sg138
(lp1249
(dp1250
g141
g178
(I0
I1
I1
tRp1251
sg144
g1174
sasstbsg145
S'Expr'
p1252
sbatba(lp1253
g56
(g57
(I0
tS'b'
tRp1254
((I1
(L3L
tg60
I00
(lp1255
g1077
ag1078
ag1079
at(Nttba(dp1256
g135
(dp1257
g137
g1074
sg138
(lp1258
(dp1259
g141
g178
(I0
I3
I1
tRp1260
sg144
g1081
sasstbsg145
g1052
sbag1
(g49
g3
NtRp1261
(dp1262
g52
g1
(g53
g3
NtRp1263
((lp1264
g56
(g57
(I0
tS'b'
tRp1265
((I1
(L0L
tg60
I00
(lt(Nttba(lp1266
g56
(g64
(I0
tS'b'
tRp1267
(I1
(L0L
tg60
I00
(ltba(lp1268
g56
(g57
(I0
tS'b'
tRp1269
((I1
(L0L
tg60
I00
(lt(Nttba(dp1270
g135
(dp1271
g137
g1264
sg138
(lp1272
(dp1273
g141
g56
(g64
(I0
tS'b'
tRp1274
(I1
(L0L
tg143
I00
S''
tbsg144
g1267
sasstbsg145
S')'
sbatba(lp1275
g56
(g57
(I0
tS'b'
tRp1276
((I1
(L3L
tg60
I00
(lp1277
g1051
ag1052
ag1053
at(Nttba(dp1278
g135
(dp1279
g137
g1048
sg138
(lp1280
(dp1281
g141
g178
(I0
I3
I1
tRp1282
sg144
g1055
sasstbsg145
S'Expr'
p1283
sbag1
(g49
g3
NtRp1284
(dp1285
g52
g1
(g53
g3
NtRp1286
((lp1287
g56
(g57
(I0
tS'b'
tRp1288
((I1
(L0L
tg60
I00
(lt(Nttba(lp1289
g56
(g64
(I0
tS'b'
tRp1290
(I1
(L0L
tg60
I00
(ltba(lp1291
g56
(g57
(I0
tS'b'
tRp1292
((I1
(L0L
tg60
I00
(lt(Nttba(dp1293
g135
(dp1294
g137
g1287
sg138
(lp1295
(dp1296
g141
g56
(g64
(I0
tS'b'
tRp1297
(I1
(L0L
tg143
I00
S''
tbsg144
g1290
sasstbsg145
S'/'
sbag1
(g49
g3
NtRp1298
(dp1299
g52
g1
(g53
g3
NtRp1300
((lp1301
g56
(g57
(I0
tS'b'
tRp1302
((I1
(L1L
tg60
I00
(lp1303
S'Val'
p1304
at(Nttba(lp1305
g56
(g64
(I0
tS'b'
tRp1306
(I1
(L1L
tg60
I00
(lp1307
g1
(g49
g3
NtRp1308
(dp1309
g52
g1
(g53
g3
NtRp1310
((lp1311
g56
(g57
(I0
tS'b'
tRp1312
((I1
(L1L
tg60
I00
(lp1313
S'Var'
p1314
at(Nttba(lp1315
g56
(g64
(I0
tS'b'
tRp1316
(I1
(L1L
tg60
I00
(lp1317
g1
(g49
g3
NtRp1318
(dp1319
g52
g1
(g53
g3
NtRp1320
((lp1321
g56
(g57
(I0
tS'b'
tRp1322
((I1
(L1L
tg60
I00
(lp1323
S'_x_'
p1324
at(Nttba(lp1325
g56
(g64
(I0
tS'b'
tRp1326
(I1
(L1L
tg60
I00
(lp1327
g1
(g49
g3
NtRp1328
(dp1329
g52
g1
(g53
g3
NtRp1330
((lp1331
g56
(g57
(I0
tS'b'
tRp1332
((I1
(L0L
tg60
I00
(lt(Nttba(lp1333
g56
(g64
(I0
tS'b'
tRp1334
(I1
(L0L
tg60
I00
(ltba(lp1335
g56
(g57
(I0
tS'b'
tRp1336
((I1
(L0L
tg60
I00
(lt(Nttba(dp1337
g135
(dp1338
g137
g1331
sg138
(lp1339
(dp1340
g141
g56
(g64
(I0
tS'b'
tRp1341
(I1
(L0L
tg143
I00
S''
tbsg144
g1334
sasstbsg145
S'x'
sbatba(lp1342
g56
(g57
(I0
tS'b'
tRp1343
((I1
(L1L
tg60
I00
(lp1344
g1324
at(Nttba(dp1345
g135
(dp1346
g137
g1321
sg138
(lp1347
(dp1348
g141
g178
(I0
I1
I1
tRp1349
sg144
g1326
sasstbsg145
g1314
sbatba(lp1350
g56
(g57
(I0
tS'b'
tRp1351
((I1
(L1L
tg60
I00
(lp1352
g1314
at(Nttba(dp1353
g135
(dp1354
g137
g1311
sg138
(lp1355
(dp1356
g141
g178
(I0
I1
I1
tRp1357
sg144
g1316
sasstbsg145
g1304
sbatba(lp1358
g56
(g57
(I0
tS'b'
tRp1359
((I1
(L1L
tg60
I00
(lp1360
g1304
at(Nttba(dp1361
g135
(dp1362
g137
g1301
sg138
(lp1363
(dp1364
g141
g178
(I0
I1
I1
tRp1365
sg144
g1306
sasstbsg145
S'Expr'
p1366
sbatba(lp1367
g56
(g57
(I0
tS'b'
tRp1368
((I1
(L3L
tg60
I00
(lp1369
g1039
ag1040
ag1041
at(Nttba(dp1370
g135
(dp1371
g137
g1036
sg138
(lp1372
(dp1373
g141
g178
(I0
I3
I1
tRp1374
sg144
g1043
sasstbsg145
S'Expr'
p1375
sbatba(lp1376
g56
(g57
(I0
tS'b'
tRp1377
((I1
(L3L
tg60
I00
(lp1378
g822
ag823
ag824
at(Nttba(dp1379
g135
(dp1380
g137
g819
sg138
(lp1381
(dp1382
g141
g178
(I0
I3
I1
tRp1383
sg144
g826
sasstbsg145
S'Expr'
p1384
sbag1
(g49
g3
NtRp1385
(dp1386
g52
g1
(g53
g3
NtRp1387
((lp1388
g56
(g57
(I0
tS'b'
tRp1389
((I1
(L0L
tg60
I00
(lt(Nttba(lp1390
g56
(g64
(I0
tS'b'
tRp1391
(I1
(L0L
tg60
I00
(ltba(lp1392
g56
(g57
(I0
tS'b'
tRp1393
((I1
(L0L
tg60
I00
(lt(Nttba(dp1394
g135
(dp1395
g137
g1388
sg138
(lp1396
(dp1397
g141
g56
(g64
(I0
tS'b'
tRp1398
(I1
(L0L
tg143
I00
S''
tbsg144
g1391
sasstbsg145
S'-'
sbag1
(g49
g3
NtRp1399
(dp1400
g52
g1
(g53
g3
NtRp1401
((lp1402
g56
(g57
(I0
tS'b'
tRp1403
((I1
(L1L
tg60
I00
(lp1404
S'Val'
p1405
at(Nttba(lp1406
g56
(g64
(I0
tS'b'
tRp1407
(I1
(L1L
tg60
I00
(lp1408
g1
(g49
g3
NtRp1409
(dp1410
g52
g1
(g53
g3
NtRp1411
((lp1412
g56
(g57
(I0
tS'b'
tRp1413
((I1
(L1L
tg60
I00
(lp1414
S'Number'
p1415
at(Nttba(lp1416
g56
(g64
(I0
tS'b'
tRp1417
(I1
(L1L
tg60
I00
(lp1418
g1
(g49
g3
NtRp1419
(dp1420
g52
g1
(g53
g3
NtRp1421
((lp1422
g56
(g57
(I0
tS'b'
tRp1423
((I1
(L1L
tg60
I00
(lp1424
S'Float'
p1425
at(Nttba(lp1426
g56
(g64
(I0
tS'b'
tRp1427
(I1
(L1L
tg60
I00
(lp1428
g1
(g49
g3
NtRp1429
(dp1430
g52
g1
(g53
g3
NtRp1431
((lp1432
g56
(g57
(I0
tS'b'
tRp1433
((I1
(L1L
tg60
I00
(lp1434
S'_1.3e4_'
p1435
at(Nttba(lp1436
g56
(g64
(I0
tS'b'
tRp1437
(I1
(L1L
tg60
I00
(lp1438
g1
(g49
g3
NtRp1439
(dp1440
g52
g1
(g53
g3
NtRp1441
((lp1442
g56
(g57
(I0
tS'b'
tRp1443
((I1
(L0L
tg60
I00
(lt(Nttba(lp1444
g56
(g64
(I0
tS'b'
tRp1445
(I1
(L0L
tg60
I00
(ltba(lp1446
g56
(g57
(I0
tS'b'
tRp1447
((I1
(L0L
tg60
I00
(lt(Nttba(dp1448
g135
(dp1449
g137
g1442
sg138
(lp1450
(dp1451
g141
g56
(g64
(I0
tS'b'
tRp1452
(I1
(L0L
tg143
I00
S''
tbsg144
g1445
sasstbsg145
S'1.3e4'
p1453
sbatba(lp1454
g56
(g57
(I0
tS'b'
tRp1455
((I1
(L1L
tg60
I00
(lp1456
g1435
at(Nttba(dp1457
g135
(dp1458
g137
g1432
sg138
(lp1459
(dp1460
g141
g178
(I0
I1
I1
tRp1461
sg144
g1437
sasstbsg145
g1425
sbatba(lp1462
g56
(g57
(I0
tS'b'
tRp1463
((I1
(L1L
tg60
I00
(lp1464
g1425
at(Nttba(dp1465
g135
(dp1466
g137
g1422
sg138
(lp1467
(dp1468
g141
g178
(I0
I1
I1
tRp1469
sg144
g1427
sasstbsg145
g1415
sbatba(lp1470
g56
(g57
(I0
tS'b'
tRp1471
((I1
(L1L
tg60
I00
(lp1472
g1415
at(Nttba(dp1473
g135
(dp1474
g137
g1412
sg138
(lp1475
(dp1476
g141
g178
(I0
I1
I1
tRp1477
sg144
g1417
sasstbsg145
g1405
sbatba(lp1478
g56
(g57
(I0
tS'b'
tRp1479
((I1
(L1L
tg60
I00
(lp1480
g1405
at(Nttba(dp1481
g135
(dp1482
g137
g1402
sg138
(lp1483
(dp1484
g141
g178
(I0
I1
I1
tRp1485
sg144
g1407
sasstbsg145
S'Expr'
p1486
sbatba(lp1487
g56
(g57
(I0
tS'b'
tRp1488
((I1
(L3L
tg60
I00
(lp1489
g810
ag811
ag812
at(Nttba(dp1490
g135
(dp1491
g137
g807
sg138
(lp1492
(dp1493
g141
g178
(I0
I3
I1
tRp1494
sg144
g814
sasstbsg145
S'Expr'
p1495
sbatba(lp1496
g56
(g57
(I0
tS'b'
tRp1497
((I1
(L3L
tg60
I00
(lp1498
g592
ag593
ag594
at(Nttba(dp1499
g135
(dp1500
g137
g589
sg138
(lp1501
(dp1502
g141
g178
(I0
I3
I1
tRp1503
sg144
g596
sasstbsg145
S'Expr'
p1504
sbag1
(g49
g3
NtRp1505
(dp1506
g52
g1
(g53
g3
NtRp1507
((lp1508
g56
(g57
(I0
tS'b'
tRp1509
((I1
(L0L
tg60
I00
(lt(Nttba(lp1510
g56
(g64
(I0
tS'b'
tRp1511
(I1
(L0L
tg60
I00
(ltba(lp1512
g56
(g57
(I0
tS'b'
tRp1513
((I1
(L0L
tg60
I00
(lt(Nttba(dp1514
g135
(dp1515
g137
g1508
sg138
(lp1516
(dp1517
g141
g56
(g64
(I0
tS'b'
tRp1518
(I1
(L0L
tg143
I00
S''
tbsg144
g1511
sasstbsg145
S'+'
sbag1
(g49
g3
NtRp1519
(dp1520
g52
g1
(g53
g3
NtRp1521
((lp1522
g56
(g57
(I0
tS'b'
tRp1523
((I1
(L1L
tg60
I00
(lp1524
S'Val'
p1525
at(Nttba(lp1526
g56
(g64
(I0
tS'b'
tRp1527
(I1
(L1L
tg60
I00
(lp1528
g1
(g49
g3
NtRp1529
(dp1530
g52
g1
(g53
g3
NtRp1531
((lp1532
g56
(g57
(I0
tS'b'
tRp1533
((I1
(L1L
tg60
I00
(lp1534
S'Number'
p1535
at(Nttba(lp1536
g56
(g64
(I0
tS'b'
tRp1537
(I1
(L1L
tg60
I00
(lp1538
g1
(g49
g3
NtRp1539
(dp1540
g52
g1
(g53
g3
NtRp1541
((lp1542
g56
(g57
(I0
tS'b'
tRp1543
((I1
(L1L
tg60
I00
(lp1544
S'Int'
p1545
at(Nttba(lp1546
g56
(g64
(I0
tS'b'
tRp1547
(I1
(L1L
tg60
I00
(lp1548
g1
(g49
g3
NtRp1549
(dp1550
g52
g1
(g53
g3
NtRp1551
((lp1552
g56
(g57
(I0
tS'b'
tRp1553
((I1
(L1L
tg60
I00
(lp1554
S'_2_'
p1555
at(Nttba(lp1556
g56
(g64
(I0
tS'b'
tRp1557
(I1
(L1L
tg60
I00
(lp1558
g1
(g49
g3
NtRp1559
(dp1560
g52
g1
(g53
g3
NtRp1561
((lp1562
g56
(g57
(I0
tS'b'
tRp1563
((I1
(L0L
tg60
I00
(lt(Nttba(lp1564
g56
(g64
(I0
tS'b'
tRp1565
(I1
(L0L
tg60
I00
(ltba(lp1566
g56
(g57
(I0
tS'b'
tRp1567
((I1
(L0L
tg60
I00
(lt(Nttba(dp1568
g135
(dp1569
g137
g1562
sg138
(lp1570
(dp1571
g141
g56
(g64
(I0
tS'b'
tRp1572
(I1
(L0L
tg143
I00
S''
tbsg144
g1565
sasstbsg145
S'2'
sbatba(lp1573
g56
(g57
(I0
tS'b'
tRp1574
((I1
(L1L
tg60
I00
(lp1575
g1555
at(Nttba(dp1576
g135
(dp1577
g137
g1552
sg138
(lp1578
(dp1579
g141
g178
(I0
I1
I1
tRp1580
sg144
g1557
sasstbsg145
g1545
sbatba(lp1581
g56
(g57
(I0
tS'b'
tRp1582
((I1
(L1L
tg60
I00
(lp1583
g1545
at(Nttba(dp1584
g135
(dp1585
g137
g1542
sg138
(lp1586
(dp1587
g141
g178
(I0
I1
I1
tRp1588
sg144
g1547
sasstbsg145
g1535
sbatba(lp1589
g56
(g57
(I0
tS'b'
tRp1590
((I1
(L1L
tg60
I00
(lp1591
g1535
at(Nttba(dp1592
g135
(dp1593
g137
g1532
sg138
(lp1594
(dp1595
g141
g178
(I0
I1
I1
tRp1596
sg144
g1537
sasstbsg145
g1525
sbatba(lp1597
g56
(g57
(I0
tS'b'
tRp1598
((I1
(L1L
tg60
I00
(lp1599
g1525
at(Nttba(dp1600
g135
(dp1601
g137
g1522
sg138
(lp1602
(dp1603
g141
g178
(I0
I1
I1
tRp1604
sg144
g1527
sasstbsg145
S'Expr'
p1605
sbatba(lp1606
g56
(g57
(I0
tS'b'
tRp1607
((I1
(L3L
tg60
I00
(lp1608
g580
ag581
ag582
at(Nttba(dp1609
g135
(dp1610
g137
g577
sg138
(lp1611
(dp1612
g141
g178
(I0
I3
I1
tRp1613
sg144
g584
sasstbsg145
S'Expr'
p1614
sbag1
(g49
g3
NtRp1615
(dp1616
g52
g1
(g53
g3
NtRp1617
((lp1618
g56
(g57
(I0
tS'b'
tRp1619
((I1
(L0L
tg60
I00
(lt(Nttba(lp1620
g56
(g64
(I0
tS'b'
tRp1621
(I1
(L0L
tg60
I00
(ltba(lp1622
g56
(g57
(I0
tS'b'
tRp1623
((I1
(L0L
tg60
I00
(lt(Nttba(dp1624
g135
(dp1625
g137
g1618
sg138
(lp1626
(dp1627
g141
g56
(g64
(I0
tS'b'
tRp1628
(I1
(L0L
tg143
I00
S''
tbsg144
g1621
sasstbsg145
S'+'
sbag1
(g49
g3
NtRp1629
(dp1630
g52
g1
(g53
g3
NtRp1631
((lp1632
g56
(g57
(I0
tS'b'
tRp1633
((I1
(L1L
tg60
I00
(lp1634
S'Val'
p1635
at(Nttba(lp1636
g56
(g64
(I0
tS'b'
tRp1637
(I1
(L1L
tg60
I00
(lp1638
g1
(g49
g3
NtRp1639
(dp1640
g52
g1
(g53
g3
NtRp1641
((lp1642
g56
(g57
(I0
tS'b'
tRp1643
((I1
(L1L
tg60
I00
(lp1644
S'Number'
p1645
at(Nttba(lp1646
g56
(g64
(I0
tS'b'
tRp1647
(I1
(L1L
tg60
I00
(lp1648
g1
(g49
g3
NtRp1649
(dp1650
g52
g1
(g53
g3
NtRp1651
((lp1652
g56
(g57
(I0
tS'b'
tRp1653
((I1
(L1L
tg60
I00
(lp1654
S'Int'
p1655
at(Nttba(lp1656
g56
(g64
(I0
tS'b'
tRp1657
(I1
(L1L
tg60
I00
(lp1658
g1
(g49
g3
NtRp1659
(dp1660
g52
g1
(g53
g3
NtRp1661
((lp1662
g56
(g57
(I0
tS'b'
tRp1663
((I1
(L1L
tg60
I00
(lp1664
S'_5_'
p1665
at(Nttba(lp1666
g56
(g64
(I0
tS'b'
tRp1667
(I1
(L1L
tg60
I00
(lp1668
g1
(g49
g3
NtRp1669
(dp1670
g52
g1
(g53
g3
NtRp1671
((lp1672
g56
(g57
(I0
tS'b'
tRp1673
((I1
(L0L
tg60
I00
(lt(Nttba(lp1674
g56
(g64
(I0
tS'b'
tRp1675
(I1
(L0L
tg60
I00
(ltba(lp1676
g56
(g57
(I0
tS'b'
tRp1677
((I1
(L0L
tg60
I00
(lt(Nttba(dp1678
g135
(dp1679
g137
g1672
sg138
(lp1680
(dp1681
g141
g56
(g64
(I0
tS'b'
tRp1682
(I1
(L0L
tg143
I00
S''
tbsg144
g1675
sasstbsg145
S'5'
sbatba(lp1683
g56
(g57
(I0
tS'b'
tRp1684
((I1
(L1L
tg60
I00
(lp1685
g1665
at(Nttba(dp1686
g135
(dp1687
g137
g1662
sg138
(lp1688
(dp1689
g141
g178
(I0
I1
I1
tRp1690
sg144
g1667
sasstbsg145
g1655
sbatba(lp1691
g56
(g57
(I0
tS'b'
tRp1692
((I1
(L1L
tg60
I00
(lp1693
g1655
at(Nttba(dp1694
g135
(dp1695
g137
g1652
sg138
(lp1696
(dp1697
g141
g178
(I0
I1
I1
tRp1698
sg144
g1657
sasstbsg145
g1645
sbatba(lp1699
g56
(g57
(I0
tS'b'
tRp1700
((I1
(L1L
tg60
I00
(lp1701
g1645
at(Nttba(dp1702
g135
(dp1703
g137
g1642
sg138
(lp1704
(dp1705
g141
g178
(I0
I1
I1
tRp1706
sg144
g1647
sasstbsg145
g1635
sbatba(lp1707
g56
(g57
(I0
tS'b'
tRp1708
((I1
(L1L
tg60
I00
(lp1709
g1635
at(Nttba(dp1710
g135
(dp1711
g137
g1632
sg138
(lp1712
(dp1713
g141
g178
(I0
I1
I1
tRp1714
sg144
g1637
sasstbsg145
S'Expr'
p1715
sbatba(lp1716
g56
(g57
(I0
tS'b'
tRp1717
((I1
(L3L
tg60
I00
(lp1718
g568
ag569
ag570
at(Nttba(dp1719
g135
(dp1720
g137
g565
sg138
(lp1721
(dp1722
g141
g178
(I0
I3
I1
tRp1723
sg144
g572
sasstbsg145
g558
sbatba(lp1724
g56
(g57
(I0
tS'b'
tRp1725
((I1
(L1L
tg60
I00
(lp1726
g558
at(Nttba(dp1727
g135
(dp1728
g137
g555
sg138
(lp1729
(dp1730
g141
g178
(I0
I1
I1
tRp1731
sg144
g560
sasstbsg145
g533
sbatba(lp1732
g56
(g57
(I0
tS'b'
tRp1733
((I1
(L2L
tg60
I00
(lp1734
g532
ag533
at(Nttba(dp1735
g135
(dp1736
g137
g529
sg138
(lp1737
(dp1738
g141
g178
(I0
I2
I1
tRp1739
sg144
g535
sasstbsg145
g521
sbag1
(g49
g3
NtRp1740
(dp1741
g52
g1
(g53
g3
NtRp1742
((lp1743
g56
(g57
(I0
tS'b'
tRp1744
((I1
(L0L
tg60
I00
(lt(Nttba(lp1745
g56
(g64
(I0
tS'b'
tRp1746
(I1
(L0L
tg60
I00
(ltba(lp1747
g56
(g57
(I0
tS'b'
tRp1748
((I1
(L0L
tg60
I00
(lt(Nttba(dp1749
g135
(dp1750
g137
g1743
sg138
(lp1751
(dp1752
g141
g56
(g64
(I0
tS'b'
tRp1753
(I1
(L0L
tg143
I00
S''
tbsg144
g1746
sasstbsg145
S';'
sbatba(lp1754
g56
(g57
(I0
tS'b'
tRp1755
((I1
(L2L
tg60
I00
(lp1756
g521
ag522
at(Nttba(dp1757
g135
(dp1758
g137
g518
sg138
(lp1759
(dp1760
g141
g178
(I0
I2
I1
tRp1761
sg144
g524
sasstbsg145
g511
sbatba(lp1762
g56
(g57
(I0
tS'b'
tRp1763
((I1
(L1L
tg60
I00
(lp1764
g511
at(Nttba(dp1765
g135
(dp1766
g137
g508
sg138
(lp1767
(dp1768
g141
g178
(I0
I1
I1
tRp1769
sg144
g513
sasstbsg145
S'Stmt'
p1770
sbatba(lp1771
g56
(g57
(I0
tS'b'
tRp1772
((I1
(L2L
tg60
I00
(lp1773
g361
ag362
at(Nttba(dp1774
g135
(dp1775
g137
g358
sg138
(lp1776
(dp1777
g141
g178
(I0
I2
I1
tRp1778
sg144
g364
sasstbsg145
g317
sbag1
(g49
g3
NtRp1779
(dp1780
g52
g1
(g53
g3
NtRp1781
((lp1782
g56
(g57
(I0
tS'b'
tRp1783
((I1
(L1L
tg60
I00
(lp1784
S'_$blockend_'
p1785
at(Nttba(lp1786
g56
(g64
(I0
tS'b'
tRp1787
(I1
(L1L
tg60
I00
(lp1788
g1
(g49
g3
NtRp1789
(dp1790
g52
g1
(g53
g3
NtRp1791
((lp1792
g56
(g57
(I0
tS'b'
tRp1793
((I1
(L0L
tg60
I00
(lt(Nttba(lp1794
g56
(g64
(I0
tS'b'
tRp1795
(I1
(L0L
tg60
I00
(ltba(lp1796
g56
(g57
(I0
tS'b'
tRp1797
((I1
(L0L
tg60
I00
(lt(Nttba(dp1798
g135
(dp1799
g137
g1792
sg138
(lp1800
(dp1801
g141
g56
(g64
(I0
tS'b'
tRp1802
(I1
(L0L
tg143
I00
S''
tbsg144
g1795
sasstbsg145
S'$blockend'
p1803
sbatba(lp1804
g56
(g57
(I0
tS'b'
tRp1805
((I1
(L1L
tg60
I00
(lp1806
g1785
at(Nttba(dp1807
g135
(dp1808
g137
g1782
sg138
(lp1809
(dp1810
g141
g178
(I0
I1
I1
tRp1811
sg144
g1787
sasstbsg145
g318
sbatba(lp1812
g56
(g57
(I0
tS'b'
tRp1813
((I1
(L3L
tg60
I00
(lp1814
g316
ag317
ag318
at(Nttba(dp1815
g135
(dp1816
g137
g313
sg138
(lp1817
(dp1818
g141
g178
(I0
I3
I1
tRp1819
sg144
g320
sasstbsg145
g97
sbatba(lp1820
g56
(g57
(I0
tS'b'
tRp1821
((I1
(L2L
tg60
I00
(lp1822
g96
ag97
at(Nttba(dp1823
g135
(dp1824
g137
g93
sg138
(lp1825
(dp1826
g141
g178
(I0
I2
I1
tRp1827
sg144
g99
sasstbsg145
g86
sbatba(lp1828
g56
(g57
(I0
tS'b'
tRp1829
((I1
(L1L
tg60
I00
(lp1830
g86
at(Nttba(dp1831
g135
(dp1832
g137
g83
sg138
(lp1833
(dp1834
g141
g178
(I0
I1
I1
tRp1835
sg144
g88
sasstbsg145
S'Stmt'
p1836
sbag1
(g49
g3
NtRp1837
(dp1838
g52
g1
(g53
g3
NtRp1839
((lp1840
g56
(g57
(I0
tS'b'
tRp1841
((I1
(L1L
tg60
I00
(lp1842
S'Single_stmt'
p1843
at(Nttba(lp1844
g56
(g64
(I0
tS'b'
tRp1845
(I1
(L1L
tg60
I00
(lp1846
g1
(g49
g3
NtRp1847
(dp1848
g52
g1
(g53
g3
NtRp1849
((lp1850
g56
(g57
(I0
tS'b'
tRp1851
((I1
(L2L
tg60
I00
(lp1852
S'Assign_stmt'
p1853
aS'_;_'
p1854
at(Nttba(lp1855
g56
(g64
(I0
tS'b'
tRp1856
(I1
(L2L
tg60
I00
(lp1857
g1
(g49
g3
NtRp1858
(dp1859
g52
g1
(g53
g3
NtRp1860
((lp1861
g56
(g57
(I0
tS'b'
tRp1862
((I1
(L1L
tg60
I00
(lp1863
S'Assign'
p1864
at(Nttba(lp1865
g56
(g64
(I0
tS'b'
tRp1866
(I1
(L1L
tg60
I00
(lp1867
g1
(g49
g3
NtRp1868
(dp1869
g52
g1
(g53
g3
NtRp1870
((lp1871
g56
(g57
(I0
tS'b'
tRp1872
((I1
(L3L
tg60
I00
(lp1873
S'Varlist'
p1874
aS'_=_'
p1875
aS'Exprlist'
p1876
at(Nttba(lp1877
g56
(g64
(I0
tS'b'
tRp1878
(I1
(L3L
tg60
I00
(lp1879
g1
(g49
g3
NtRp1880
(dp1881
g52
g1
(g53
g3
NtRp1882
((lp1883
g56
(g57
(I0
tS'b'
tRp1884
((I1
(L1L
tg60
I00
(lp1885
S'Vartuple'
p1886
at(Nttba(lp1887
g56
(g64
(I0
tS'b'
tRp1888
(I1
(L1L
tg60
I00
(lp1889
g1
(g49
g3
NtRp1890
(dp1891
g52
g1
(g53
g3
NtRp1892
((lp1893
g56
(g57
(I0
tS'b'
tRp1894
((I1
(L1L
tg60
I00
(lp1895
S'Var'
p1896
at(Nttba(lp1897
g56
(g64
(I0
tS'b'
tRp1898
(I1
(L1L
tg60
I00
(lp1899
g1
(g49
g3
NtRp1900
(dp1901
g52
g1
(g53
g3
NtRp1902
((lp1903
g56
(g57
(I0
tS'b'
tRp1904
((I1
(L1L
tg60
I00
(lp1905
S'_L_'
p1906
at(Nttba(lp1907
g56
(g64
(I0
tS'b'
tRp1908
(I1
(L1L
tg60
I00
(lp1909
g1
(g49
g3
NtRp1910
(dp1911
g52
g1
(g53
g3
NtRp1912
((lp1913
g56
(g57
(I0
tS'b'
tRp1914
((I1
(L0L
tg60
I00
(lt(Nttba(lp1915
g56
(g64
(I0
tS'b'
tRp1916
(I1
(L0L
tg60
I00
(ltba(lp1917
g56
(g57
(I0
tS'b'
tRp1918
((I1
(L0L
tg60
I00
(lt(Nttba(dp1919
g135
(dp1920
g137
g1913
sg138
(lp1921
(dp1922
g141
g56
(g64
(I0
tS'b'
tRp1923
(I1
(L0L
tg143
I00
S''
tbsg144
g1916
sasstbsg145
S'L'
sbatba(lp1924
g56
(g57
(I0
tS'b'
tRp1925
((I1
(L1L
tg60
I00
(lp1926
g1906
at(Nttba(dp1927
g135
(dp1928
g137
g1903
sg138
(lp1929
(dp1930
g141
g178
(I0
I1
I1
tRp1931
sg144
g1908
sasstbsg145
g1896
sbatba(lp1932
g56
(g57
(I0
tS'b'
tRp1933
((I1
(L1L
tg60
I00
(lp1934
g1896
at(Nttba(dp1935
g135
(dp1936
g137
g1893
sg138
(lp1937
(dp1938
g141
g178
(I0
I1
I1
tRp1939
sg144
g1898
sasstbsg145
g1886
sbatba(lp1940
g56
(g57
(I0
tS'b'
tRp1941
((I1
(L1L
tg60
I00
(lp1942
g1886
at(Nttba(dp1943
g135
(dp1944
g137
g1883
sg138
(lp1945
(dp1946
g141
g178
(I0
I1
I1
tRp1947
sg144
g1888
sasstbsg145
g1874
sbag1
(g49
g3
NtRp1948
(dp1949
g52
g1
(g53
g3
NtRp1950
((lp1951
g56
(g57
(I0
tS'b'
tRp1952
((I1
(L0L
tg60
I00
(lt(Nttba(lp1953
g56
(g64
(I0
tS'b'
tRp1954
(I1
(L0L
tg60
I00
(ltba(lp1955
g56
(g57
(I0
tS'b'
tRp1956
((I1
(L0L
tg60
I00
(lt(Nttba(dp1957
g135
(dp1958
g137
g1951
sg138
(lp1959
(dp1960
g141
g56
(g64
(I0
tS'b'
tRp1961
(I1
(L0L
tg143
I00
S''
tbsg144
g1954
sasstbsg145
S'='
sbag1
(g49
g3
NtRp1962
(dp1963
g52
g1
(g53
g3
NtRp1964
((lp1965
g56
(g57
(I0
tS'b'
tRp1966
((I1
(L1L
tg60
I00
(lp1967
S'Expr'
p1968
at(Nttba(lp1969
g56
(g64
(I0
tS'b'
tRp1970
(I1
(L1L
tg60
I00
(lp1971
g1
(g49
g3
NtRp1972
(dp1973
g52
g1
(g53
g3
NtRp1974
((lp1975
g56
(g57
(I0
tS'b'
tRp1976
((I1
(L3L
tg60
I00
(lp1977
S'Expr1'
p1978
aS'_*_'
p1979
aS'Expr2'
p1980
at(Nttba(lp1981
g56
(g64
(I0
tS'b'
tRp1982
(I1
(L3L
tg60
I00
(lp1983
g1
(g49
g3
NtRp1984
(dp1985
g52
g1
(g53
g3
NtRp1986
((lp1987
g56
(g57
(I0
tS'b'
tRp1988
((I1
(L1L
tg60
I00
(lp1989
S'Val'
p1990
at(Nttba(lp1991
g56
(g64
(I0
tS'b'
tRp1992
(I1
(L1L
tg60
I00
(lp1993
g1
(g49
g3
NtRp1994
(dp1995
g52
g1
(g53
g3
NtRp1996
((lp1997
g56
(g57
(I0
tS'b'
tRp1998
((I1
(L1L
tg60
I00
(lp1999
S'List'
p2000
at(Nttba(lp2001
g56
(g64
(I0
tS'b'
tRp2002
(I1
(L1L
tg60
I00
(lp2003
g1
(g49
g3
NtRp2004
(dp2005
g52
g1
(g53
g3
NtRp2006
((lp2007
g56
(g57
(I0
tS'b'
tRp2008
((I1
(L3L
tg60
I00
(lp2009
S'_[_'
p2010
aS'Exprlist'
p2011
aS'_]_'
p2012
at(Nttba(lp2013
g56
(g64
(I0
tS'b'
tRp2014
(I1
(L3L
tg60
I00
(lp2015
g1
(g49
g3
NtRp2016
(dp2017
g52
g1
(g53
g3
NtRp2018
((lp2019
g56
(g57
(I0
tS'b'
tRp2020
((I1
(L0L
tg60
I00
(lt(Nttba(lp2021
g56
(g64
(I0
tS'b'
tRp2022
(I1
(L0L
tg60
I00
(ltba(lp2023
g56
(g57
(I0
tS'b'
tRp2024
((I1
(L0L
tg60
I00
(lt(Nttba(dp2025
g135
(dp2026
g137
g2019
sg138
(lp2027
(dp2028
g141
g56
(g64
(I0
tS'b'
tRp2029
(I1
(L0L
tg143
I00
S''
tbsg144
g2022
sasstbsg145
S'['
sbag1
(g49
g3
NtRp2030
(dp2031
g52
g1
(g53
g3
NtRp2032
((lp2033
g56
(g57
(I0
tS'b'
tRp2034
((I1
(L1L
tg60
I00
(lp2035
S'Expr'
p2036
at(Nttba(lp2037
g56
(g64
(I0
tS'b'
tRp2038
(I1
(L1L
tg60
I00
(lp2039
g1
(g49
g3
NtRp2040
(dp2041
g52
g1
(g53
g3
NtRp2042
((lp2043
g56
(g57
(I0
tS'b'
tRp2044
((I1
(L1L
tg60
I00
(lp2045
S'Val'
p2046
at(Nttba(lp2047
g56
(g64
(I0
tS'b'
tRp2048
(I1
(L1L
tg60
I00
(lp2049
g1
(g49
g3
NtRp2050
(dp2051
g52
g1
(g53
g3
NtRp2052
((lp2053
g56
(g57
(I0
tS'b'
tRp2054
((I1
(L1L
tg60
I00
(lp2055
S'Number'
p2056
at(Nttba(lp2057
g56
(g64
(I0
tS'b'
tRp2058
(I1
(L1L
tg60
I00
(lp2059
g1
(g49
g3
NtRp2060
(dp2061
g52
g1
(g53
g3
NtRp2062
((lp2063
g56
(g57
(I0
tS'b'
tRp2064
((I1
(L1L
tg60
I00
(lp2065
S'Int'
p2066
at(Nttba(lp2067
g56
(g64
(I0
tS'b'
tRp2068
(I1
(L1L
tg60
I00
(lp2069
g1
(g49
g3
NtRp2070
(dp2071
g52
g1
(g53
g3
NtRp2072
((lp2073
g56
(g57
(I0
tS'b'
tRp2074
((I1
(L1L
tg60
I00
(lp2075
S'_0_'
p2076
at(Nttba(lp2077
g56
(g64
(I0
tS'b'
tRp2078
(I1
(L1L
tg60
I00
(lp2079
g1
(g49
g3
NtRp2080
(dp2081
g52
g1
(g53
g3
NtRp2082
((lp2083
g56
(g57
(I0
tS'b'
tRp2084
((I1
(L0L
tg60
I00
(lt(Nttba(lp2085
g56
(g64
(I0
tS'b'
tRp2086
(I1
(L0L
tg60
I00
(ltba(lp2087
g56
(g57
(I0
tS'b'
tRp2088
((I1
(L0L
tg60
I00
(lt(Nttba(dp2089
g135
(dp2090
g137
g2083
sg138
(lp2091
(dp2092
g141
g56
(g64
(I0
tS'b'
tRp2093
(I1
(L0L
tg143
I00
S''
tbsg144
g2086
sasstbsg145
S'0'
sbatba(lp2094
g56
(g57
(I0
tS'b'
tRp2095
((I1
(L1L
tg60
I00
(lp2096
g2076
at(Nttba(dp2097
g135
(dp2098
g137
g2073
sg138
(lp2099
(dp2100
g141
g178
(I0
I1
I1
tRp2101
sg144
g2078
sasstbsg145
g2066
sbatba(lp2102
g56
(g57
(I0
tS'b'
tRp2103
((I1
(L1L
tg60
I00
(lp2104
g2066
at(Nttba(dp2105
g135
(dp2106
g137
g2063
sg138
(lp2107
(dp2108
g141
g178
(I0
I1
I1
tRp2109
sg144
g2068
sasstbsg145
g2056
sbatba(lp2110
g56
(g57
(I0
tS'b'
tRp2111
((I1
(L1L
tg60
I00
(lp2112
g2056
at(Nttba(dp2113
g135
(dp2114
g137
g2053
sg138
(lp2115
(dp2116
g141
g178
(I0
I1
I1
tRp2117
sg144
g2058
sasstbsg145
g2046
sbatba(lp2118
g56
(g57
(I0
tS'b'
tRp2119
((I1
(L1L
tg60
I00
(lp2120
g2046
at(Nttba(dp2121
g135
(dp2122
g137
g2043
sg138
(lp2123
(dp2124
g141
g178
(I0
I1
I1
tRp2125
sg144
g2048
sasstbsg145
g2036
sbatba(lp2126
g56
(g57
(I0
tS'b'
tRp2127
((I1
(L1L
tg60
I00
(lp2128
g2036
at(Nttba(dp2129
g135
(dp2130
g137
g2033
sg138
(lp2131
(dp2132
g141
g178
(I0
I1
I1
tRp2133
sg144
g2038
sasstbsg145
g2011
sbag1
(g49
g3
NtRp2134
(dp2135
g52
g1
(g53
g3
NtRp2136
((lp2137
g56
(g57
(I0
tS'b'
tRp2138
((I1
(L0L
tg60
I00
(lt(Nttba(lp2139
g56
(g64
(I0
tS'b'
tRp2140
(I1
(L0L
tg60
I00
(ltba(lp2141
g56
(g57
(I0
tS'b'
tRp2142
((I1
(L0L
tg60
I00
(lt(Nttba(dp2143
g135
(dp2144
g137
g2137
sg138
(lp2145
(dp2146
g141
g56
(g64
(I0
tS'b'
tRp2147
(I1
(L0L
tg143
I00
S''
tbsg144
g2140
sasstbsg145
S']'
sbatba(lp2148
g56
(g57
(I0
tS'b'
tRp2149
((I1
(L3L
tg60
I00
(lp2150
g2010
ag2011
ag2012
at(Nttba(dp2151
g135
(dp2152
g137
g2007
sg138
(lp2153
(dp2154
g141
g178
(I0
I3
I1
tRp2155
sg144
g2014
sasstbsg145
g2000
sbatba(lp2156
g56
(g57
(I0
tS'b'
tRp2157
((I1
(L1L
tg60
I00
(lp2158
g2000
at(Nttba(dp2159
g135
(dp2160
g137
g1997
sg138
(lp2161
(dp2162
g141
g178
(I0
I1
I1
tRp2163
sg144
g2002
sasstbsg145
g1990
sbatba(lp2164
g56
(g57
(I0
tS'b'
tRp2165
((I1
(L1L
tg60
I00
(lp2166
g1990
at(Nttba(dp2167
g135
(dp2168
g137
g1987
sg138
(lp2169
(dp2170
g141
g178
(I0
I1
I1
tRp2171
sg144
g1992
sasstbsg145
S'Expr'
p2172
sbag1
(g49
g3
NtRp2173
(dp2174
g52
g1
(g53
g3
NtRp2175
((lp2176
g56
(g57
(I0
tS'b'
tRp2177
((I1
(L0L
tg60
I00
(lt(Nttba(lp2178
g56
(g64
(I0
tS'b'
tRp2179
(I1
(L0L
tg60
I00
(ltba(lp2180
g56
(g57
(I0
tS'b'
tRp2181
((I1
(L0L
tg60
I00
(lt(Nttba(dp2182
g135
(dp2183
g137
g2176
sg138
(lp2184
(dp2185
g141
g56
(g64
(I0
tS'b'
tRp2186
(I1
(L0L
tg143
I00
S''
tbsg144
g2179
sasstbsg145
S'*'
sbag1
(g49
g3
NtRp2187
(dp2188
g52
g1
(g53
g3
NtRp2189
((lp2190
g56
(g57
(I0
tS'b'
tRp2191
((I1
(L1L
tg60
I00
(lp2192
S'Val'
p2193
at(Nttba(lp2194
g56
(g64
(I0
tS'b'
tRp2195
(I1
(L1L
tg60
I00
(lp2196
g1
(g49
g3
NtRp2197
(dp2198
g52
g1
(g53
g3
NtRp2199
((lp2200
g56
(g57
(I0
tS'b'
tRp2201
((I1
(L1L
tg60
I00
(lp2202
S'Number'
p2203
at(Nttba(lp2204
g56
(g64
(I0
tS'b'
tRp2205
(I1
(L1L
tg60
I00
(lp2206
g1
(g49
g3
NtRp2207
(dp2208
g52
g1
(g53
g3
NtRp2209
((lp2210
g56
(g57
(I0
tS'b'
tRp2211
((I1
(L1L
tg60
I00
(lp2212
S'Int'
p2213
at(Nttba(lp2214
g56
(g64
(I0
tS'b'
tRp2215
(I1
(L1L
tg60
I00
(lp2216
g1
(g49
g3
NtRp2217
(dp2218
g52
g1
(g53
g3
NtRp2219
((lp2220
g56
(g57
(I0
tS'b'
tRp2221
((I1
(L1L
tg60
I00
(lp2222
S'_10_'
p2223
at(Nttba(lp2224
g56
(g64
(I0
tS'b'
tRp2225
(I1
(L1L
tg60
I00
(lp2226
g1
(g49
g3
NtRp2227
(dp2228
g52
g1
(g53
g3
NtRp2229
((lp2230
g56
(g57
(I0
tS'b'
tRp2231
((I1
(L0L
tg60
I00
(lt(Nttba(lp2232
g56
(g64
(I0
tS'b'
tRp2233
(I1
(L0L
tg60
I00
(ltba(lp2234
g56
(g57
(I0
tS'b'
tRp2235
((I1
(L0L
tg60
I00
(lt(Nttba(dp2236
g135
(dp2237
g137
g2230
sg138
(lp2238
(dp2239
g141
g56
(g64
(I0
tS'b'
tRp2240
(I1
(L0L
tg143
I00
S''
tbsg144
g2233
sasstbsg145
S'10'
p2241
sbatba(lp2242
g56
(g57
(I0
tS'b'
tRp2243
((I1
(L1L
tg60
I00
(lp2244
g2223
at(Nttba(dp2245
g135
(dp2246
g137
g2220
sg138
(lp2247
(dp2248
g141
g178
(I0
I1
I1
tRp2249
sg144
g2225
sasstbsg145
g2213
sbatba(lp2250
g56
(g57
(I0
tS'b'
tRp2251
((I1
(L1L
tg60
I00
(lp2252
g2213
at(Nttba(dp2253
g135
(dp2254
g137
g2210
sg138
(lp2255
(dp2256
g141
g178
(I0
I1
I1
tRp2257
sg144
g2215
sasstbsg145
g2203
sbatba(lp2258
g56
(g57
(I0
tS'b'
tRp2259
((I1
(L1L
tg60
I00
(lp2260
g2203
at(Nttba(dp2261
g135
(dp2262
g137
g2200
sg138
(lp2263
(dp2264
g141
g178
(I0
I1
I1
tRp2265
sg144
g2205
sasstbsg145
g2193
sbatba(lp2266
g56
(g57
(I0
tS'b'
tRp2267
((I1
(L1L
tg60
I00
(lp2268
g2193
at(Nttba(dp2269
g135
(dp2270
g137
g2190
sg138
(lp2271
(dp2272
g141
g178
(I0
I1
I1
tRp2273
sg144
g2195
sasstbsg145
S'Expr'
p2274
sbatba(lp2275
g56
(g57
(I0
tS'b'
tRp2276
((I1
(L3L
tg60
I00
(lp2277
g1978
ag1979
ag1980
at(Nttba(dp2278
g135
(dp2279
g137
g1975
sg138
(lp2280
(dp2281
g141
g178
(I0
I3
I1
tRp2282
sg144
g1982
sasstbsg145
g1968
sbatba(lp2283
g56
(g57
(I0
tS'b'
tRp2284
((I1
(L1L
tg60
I00
(lp2285
g1968
at(Nttba(dp2286
g135
(dp2287
g137
g1965
sg138
(lp2288
(dp2289
g141
g178
(I0
I1
I1
tRp2290
sg144
g1970
sasstbsg145
g1876
sbatba(lp2291
g56
(g57
(I0
tS'b'
tRp2292
((I1
(L3L
tg60
I00
(lp2293
g1874
ag1875
ag1876
at(Nttba(dp2294
g135
(dp2295
g137
g1871
sg138
(lp2296
(dp2297
g141
g178
(I0
I3
I1
tRp2298
sg144
g1878
sasstbsg145
g1864
sbatba(lp2299
g56
(g57
(I0
tS'b'
tRp2300
((I1
(L1L
tg60
I00
(lp2301
g1864
at(Nttba(dp2302
g135
(dp2303
g137
g1861
sg138
(lp2304
(dp2305
g141
g178
(I0
I1
I1
tRp2306
sg144
g1866
sasstbsg145
g1853
sbag1
(g49
g3
NtRp2307
(dp2308
g52
g1
(g53
g3
NtRp2309
((lp2310
g56
(g57
(I0
tS'b'
tRp2311
((I1
(L0L
tg60
I00
(lt(Nttba(lp2312
g56
(g64
(I0
tS'b'
tRp2313
(I1
(L0L
tg60
I00
(ltba(lp2314
g56
(g57
(I0
tS'b'
tRp2315
((I1
(L0L
tg60
I00
(lt(Nttba(dp2316
g135
(dp2317
g137
g2310
sg138
(lp2318
(dp2319
g141
g56
(g64
(I0
tS'b'
tRp2320
(I1
(L0L
tg143
I00
S''
tbsg144
g2313
sasstbsg145
S';'
sbatba(lp2321
g56
(g57
(I0
tS'b'
tRp2322
((I1
(L2L
tg60
I00
(lp2323
g1853
ag1854
at(Nttba(dp2324
g135
(dp2325
g137
g1850
sg138
(lp2326
(dp2327
g141
g178
(I0
I2
I1
tRp2328
sg144
g1856
sasstbsg145
g1843
sbatba(lp2329
g56
(g57
(I0
tS'b'
tRp2330
((I1
(L1L
tg60
I00
(lp2331
g1843
at(Nttba(dp2332
g135
(dp2333
g137
g1840
sg138
(lp2334
(dp2335
g141
g178
(I0
I1
I1
tRp2336
sg144
g1845
sasstbsg145
S'Stmt'
p2337
sbag1
(g49
g3
NtRp2338
(dp2339
g52
g1
(g53
g3
NtRp2340
((lp2341
g56
(g57
(I0
tS'b'
tRp2342
((I1
(L1L
tg60
I00
(lp2343
S'Block_stmt'
p2344
at(Nttba(lp2345
g56
(g64
(I0
tS'b'
tRp2346
(I1
(L1L
tg60
I00
(lp2347
g1
(g49
g3
NtRp2348
(dp2349
g52
g1
(g53
g3
NtRp2350
((lp2351
g56
(g57
(I0
tS'b'
tRp2352
((I1
(L2L
tg60
I00
(lp2353
S'Block_head'
p2354
aS'Block'
p2355
at(Nttba(lp2356
g56
(g64
(I0
tS'b'
tRp2357
(I1
(L2L
tg60
I00
(lp2358
g1
(g49
g3
NtRp2359
(dp2360
g52
g1
(g53
g3
NtRp2361
((lp2362
g56
(g57
(I0
tS'b'
tRp2363
((I1
(L1L
tg60
I00
(lp2364
S'Loop'
p2365
at(Nttba(lp2366
g56
(g64
(I0
tS'b'
tRp2367
(I1
(L1L
tg60
I00
(lp2368
g1
(g49
g3
NtRp2369
(dp2370
g52
g1
(g53
g3
NtRp2371
((lp2372
g56
(g57
(I0
tS'b'
tRp2373
((I1
(L1L
tg60
I00
(lp2374
S'For'
p2375
at(Nttba(lp2376
g56
(g64
(I0
tS'b'
tRp2377
(I1
(L1L
tg60
I00
(lp2378
g1
(g49
g3
NtRp2379
(dp2380
g52
g1
(g53
g3
NtRp2381
((lp2382
g56
(g57
(I0
tS'b'
tRp2383
((I1
(L4L
tg60
I00
(lp2384
S'_for_'
p2385
aS'Varlist'
p2386
aS'_in_'
p2387
aS'Exprlist'
p2388
at(Nttba(lp2389
g56
(g64
(I0
tS'b'
tRp2390
(I1
(L4L
tg60
I00
(lp2391
g1
(g49
g3
NtRp2392
(dp2393
g52
g1
(g53
g3
NtRp2394
((lp2395
g56
(g57
(I0
tS'b'
tRp2396
((I1
(L0L
tg60
I00
(lt(Nttba(lp2397
g56
(g64
(I0
tS'b'
tRp2398
(I1
(L0L
tg60
I00
(ltba(lp2399
g56
(g57
(I0
tS'b'
tRp2400
((I1
(L0L
tg60
I00
(lt(Nttba(dp2401
g135
(dp2402
g137
g2395
sg138
(lp2403
(dp2404
g141
g56
(g64
(I0
tS'b'
tRp2405
(I1
(L0L
tg143
I00
S''
tbsg144
g2398
sasstbsg145
S'for'
p2406
sbag1
(g49
g3
NtRp2407
(dp2408
g52
g1
(g53
g3
NtRp2409
((lp2410
g56
(g57
(I0
tS'b'
tRp2411
((I1
(L1L
tg60
I00
(lp2412
S'Vartuple'
p2413
at(Nttba(lp2414
g56
(g64
(I0
tS'b'
tRp2415
(I1
(L1L
tg60
I00
(lp2416
g1
(g49
g3
NtRp2417
(dp2418
g52
g1
(g53
g3
NtRp2419
((lp2420
g56
(g57
(I0
tS'b'
tRp2421
((I1
(L1L
tg60
I00
(lp2422
S'Var'
p2423
at(Nttba(lp2424
g56
(g64
(I0
tS'b'
tRp2425
(I1
(L1L
tg60
I00
(lp2426
g1
(g49
g3
NtRp2427
(dp2428
g52
g1
(g53
g3
NtRp2429
((lp2430
g56
(g57
(I0
tS'b'
tRp2431
((I1
(L1L
tg60
I00
(lp2432
S'_i_'
p2433
at(Nttba(lp2434
g56
(g64
(I0
tS'b'
tRp2435
(I1
(L1L
tg60
I00
(lp2436
g1
(g49
g3
NtRp2437
(dp2438
g52
g1
(g53
g3
NtRp2439
((lp2440
g56
(g57
(I0
tS'b'
tRp2441
((I1
(L0L
tg60
I00
(lt(Nttba(lp2442
g56
(g64
(I0
tS'b'
tRp2443
(I1
(L0L
tg60
I00
(ltba(lp2444
g56
(g57
(I0
tS'b'
tRp2445
((I1
(L0L
tg60
I00
(lt(Nttba(dp2446
g135
(dp2447
g137
g2440
sg138
(lp2448
(dp2449
g141
g56
(g64
(I0
tS'b'
tRp2450
(I1
(L0L
tg143
I00
S''
tbsg144
g2443
sasstbsg145
S'i'
sbatba(lp2451
g56
(g57
(I0
tS'b'
tRp2452
((I1
(L1L
tg60
I00
(lp2453
g2433
at(Nttba(dp2454
g135
(dp2455
g137
g2430
sg138
(lp2456
(dp2457
g141
g178
(I0
I1
I1
tRp2458
sg144
g2435
sasstbsg145
g2423
sbatba(lp2459
g56
(g57
(I0
tS'b'
tRp2460
((I1
(L1L
tg60
I00
(lp2461
g2423
at(Nttba(dp2462
g135
(dp2463
g137
g2420
sg138
(lp2464
(dp2465
g141
g178
(I0
I1
I1
tRp2466
sg144
g2425
sasstbsg145
g2413
sbatba(lp2467
g56
(g57
(I0
tS'b'
tRp2468
((I1
(L1L
tg60
I00
(lp2469
g2413
at(Nttba(dp2470
g135
(dp2471
g137
g2410
sg138
(lp2472
(dp2473
g141
g178
(I0
I1
I1
tRp2474
sg144
g2415
sasstbsg145
g2386
sbag1
(g49
g3
NtRp2475
(dp2476
g52
g1
(g53
g3
NtRp2477
((lp2478
g56
(g57
(I0
tS'b'
tRp2479
((I1
(L0L
tg60
I00
(lt(Nttba(lp2480
g56
(g64
(I0
tS'b'
tRp2481
(I1
(L0L
tg60
I00
(ltba(lp2482
g56
(g57
(I0
tS'b'
tRp2483
((I1
(L0L
tg60
I00
(lt(Nttba(dp2484
g135
(dp2485
g137
g2478
sg138
(lp2486
(dp2487
g141
g56
(g64
(I0
tS'b'
tRp2488
(I1
(L0L
tg143
I00
S''
tbsg144
g2481
sasstbsg145
S'in'
p2489
sbag1
(g49
g3
NtRp2490
(dp2491
g52
g1
(g53
g3
NtRp2492
((lp2493
g56
(g57
(I0
tS'b'
tRp2494
((I1
(L1L
tg60
I00
(lp2495
S'Expr'
p2496
at(Nttba(lp2497
g56
(g64
(I0
tS'b'
tRp2498
(I1
(L1L
tg60
I00
(lp2499
g1
(g49
g3
NtRp2500
(dp2501
g52
g1
(g53
g3
NtRp2502
((lp2503
g56
(g57
(I0
tS'b'
tRp2504
((I1
(L4L
tg60
I00
(lp2505
S'Expr'
p2506
aS'_(_'
p2507
aS'Arglist'
p2508
aS'_)_'
p2509
at(Nttba(lp2510
g56
(g64
(I0
tS'b'
tRp2511
(I1
(L4L
tg60
I00
(lp2512
g1
(g49
g3
NtRp2513
(dp2514
g52
g1
(g53
g3
NtRp2515
((lp2516
g56
(g57
(I0
tS'b'
tRp2517
((I1
(L1L
tg60
I00
(lp2518
S'Val'
p2519
at(Nttba(lp2520
g56
(g64
(I0
tS'b'
tRp2521
(I1
(L1L
tg60
I00
(lp2522
g1
(g49
g3
NtRp2523
(dp2524
g52
g1
(g53
g3
NtRp2525
((lp2526
g56
(g57
(I0
tS'b'
tRp2527
((I1
(L1L
tg60
I00
(lp2528
S'Var'
p2529
at(Nttba(lp2530
g56
(g64
(I0
tS'b'
tRp2531
(I1
(L1L
tg60
I00
(lp2532
g1
(g49
g3
NtRp2533
(dp2534
g52
g1
(g53
g3
NtRp2535
((lp2536
g56
(g57
(I0
tS'b'
tRp2537
((I1
(L1L
tg60
I00
(lp2538
S'_range_'
p2539
at(Nttba(lp2540
g56
(g64
(I0
tS'b'
tRp2541
(I1
(L1L
tg60
I00
(lp2542
g1
(g49
g3
NtRp2543
(dp2544
g52
g1
(g53
g3
NtRp2545
((lp2546
g56
(g57
(I0
tS'b'
tRp2547
((I1
(L0L
tg60
I00
(lt(Nttba(lp2548
g56
(g64
(I0
tS'b'
tRp2549
(I1
(L0L
tg60
I00
(ltba(lp2550
g56
(g57
(I0
tS'b'
tRp2551
((I1
(L0L
tg60
I00
(lt(Nttba(dp2552
g135
(dp2553
g137
g2546
sg138
(lp2554
(dp2555
g141
g56
(g64
(I0
tS'b'
tRp2556
(I1
(L0L
tg143
I00
S''
tbsg144
g2549
sasstbsg145
S'range'
p2557
sbatba(lp2558
g56
(g57
(I0
tS'b'
tRp2559
((I1
(L1L
tg60
I00
(lp2560
g2539
at(Nttba(dp2561
g135
(dp2562
g137
g2536
sg138
(lp2563
(dp2564
g141
g178
(I0
I1
I1
tRp2565
sg144
g2541
sasstbsg145
g2529
sbatba(lp2566
g56
(g57
(I0
tS'b'
tRp2567
((I1
(L1L
tg60
I00
(lp2568
g2529
at(Nttba(dp2569
g135
(dp2570
g137
g2526
sg138
(lp2571
(dp2572
g141
g178
(I0
I1
I1
tRp2573
sg144
g2531
sasstbsg145
g2519
sbatba(lp2574
g56
(g57
(I0
tS'b'
tRp2575
((I1
(L1L
tg60
I00
(lp2576
g2519
at(Nttba(dp2577
g135
(dp2578
g137
g2516
sg138
(lp2579
(dp2580
g141
g178
(I0
I1
I1
tRp2581
sg144
g2521
sasstbsg145
g2506
sbag1
(g49
g3
NtRp2582
(dp2583
g52
g1
(g53
g3
NtRp2584
((lp2585
g56
(g57
(I0
tS'b'
tRp2586
((I1
(L0L
tg60
I00
(lt(Nttba(lp2587
g56
(g64
(I0
tS'b'
tRp2588
(I1
(L0L
tg60
I00
(ltba(lp2589
g56
(g57
(I0
tS'b'
tRp2590
((I1
(L0L
tg60
I00
(lt(Nttba(dp2591
g135
(dp2592
g137
g2585
sg138
(lp2593
(dp2594
g141
g56
(g64
(I0
tS'b'
tRp2595
(I1
(L0L
tg143
I00
S''
tbsg144
g2588
sasstbsg145
S'('
sbag1
(g49
g3
NtRp2596
(dp2597
g52
g1
(g53
g3
NtRp2598
((lp2599
g56
(g57
(I0
tS'b'
tRp2600
((I1
(L1L
tg60
I00
(lp2601
S'Pos_arglist'
p2602
at(Nttba(lp2603
g56
(g64
(I0
tS'b'
tRp2604
(I1
(L1L
tg60
I00
(lp2605
g1
(g49
g3
NtRp2606
(dp2607
g52
g1
(g53
g3
NtRp2608
((lp2609
g56
(g57
(I0
tS'b'
tRp2610
((I1
(L1L
tg60
I00
(lp2611
S'Pos_arg'
p2612
at(Nttba(lp2613
g56
(g64
(I0
tS'b'
tRp2614
(I1
(L1L
tg60
I00
(lp2615
g1
(g49
g3
NtRp2616
(dp2617
g52
g1
(g53
g3
NtRp2618
((lp2619
g56
(g57
(I0
tS'b'
tRp2620
((I1
(L1L
tg60
I00
(lp2621
S'Expr'
p2622
at(Nttba(lp2623
g56
(g64
(I0
tS'b'
tRp2624
(I1
(L1L
tg60
I00
(lp2625
g1
(g49
g3
NtRp2626
(dp2627
g52
g1
(g53
g3
NtRp2628
((lp2629
g56
(g57
(I0
tS'b'
tRp2630
((I1
(L4L
tg60
I00
(lp2631
S'Expr'
p2632
aS'_(_'
p2633
aS'Arglist'
p2634
aS'_)_'
p2635
at(Nttba(lp2636
g56
(g64
(I0
tS'b'
tRp2637
(I1
(L4L
tg60
I00
(lp2638
g1
(g49
g3
NtRp2639
(dp2640
g52
g1
(g53
g3
NtRp2641
((lp2642
g56
(g57
(I0
tS'b'
tRp2643
((I1
(L1L
tg60
I00
(lp2644
S'Val'
p2645
at(Nttba(lp2646
g56
(g64
(I0
tS'b'
tRp2647
(I1
(L1L
tg60
I00
(lp2648
g1
(g49
g3
NtRp2649
(dp2650
g52
g1
(g53
g3
NtRp2651
((lp2652
g56
(g57
(I0
tS'b'
tRp2653
((I1
(L1L
tg60
I00
(lp2654
S'Var'
p2655
at(Nttba(lp2656
g56
(g64
(I0
tS'b'
tRp2657
(I1
(L1L
tg60
I00
(lp2658
g1
(g49
g3
NtRp2659
(dp2660
g52
g1
(g53
g3
NtRp2661
((lp2662
g56
(g57
(I0
tS'b'
tRp2663
((I1
(L1L
tg60
I00
(lp2664
S'_len_'
p2665
at(Nttba(lp2666
g56
(g64
(I0
tS'b'
tRp2667
(I1
(L1L
tg60
I00
(lp2668
g1
(g49
g3
NtRp2669
(dp2670
g52
g1
(g53
g3
NtRp2671
((lp2672
g56
(g57
(I0
tS'b'
tRp2673
((I1
(L0L
tg60
I00
(lt(Nttba(lp2674
g56
(g64
(I0
tS'b'
tRp2675
(I1
(L0L
tg60
I00
(ltba(lp2676
g56
(g57
(I0
tS'b'
tRp2677
((I1
(L0L
tg60
I00
(lt(Nttba(dp2678
g135
(dp2679
g137
g2672
sg138
(lp2680
(dp2681
g141
g56
(g64
(I0
tS'b'
tRp2682
(I1
(L0L
tg143
I00
S''
tbsg144
g2675
sasstbsg145
S'len'
p2683
sbatba(lp2684
g56
(g57
(I0
tS'b'
tRp2685
((I1
(L1L
tg60
I00
(lp2686
g2665
at(Nttba(dp2687
g135
(dp2688
g137
g2662
sg138
(lp2689
(dp2690
g141
g178
(I0
I1
I1
tRp2691
sg144
g2667
sasstbsg145
g2655
sbatba(lp2692
g56
(g57
(I0
tS'b'
tRp2693
((I1
(L1L
tg60
I00
(lp2694
g2655
at(Nttba(dp2695
g135
(dp2696
g137
g2652
sg138
(lp2697
(dp2698
g141
g178
(I0
I1
I1
tRp2699
sg144
g2657
sasstbsg145
g2645
sbatba(lp2700
g56
(g57
(I0
tS'b'
tRp2701
((I1
(L1L
tg60
I00
(lp2702
g2645
at(Nttba(dp2703
g135
(dp2704
g137
g2642
sg138
(lp2705
(dp2706
g141
g178
(I0
I1
I1
tRp2707
sg144
g2647
sasstbsg145
g2632
sbag1
(g49
g3
NtRp2708
(dp2709
g52
g1
(g53
g3
NtRp2710
((lp2711
g56
(g57
(I0
tS'b'
tRp2712
((I1
(L0L
tg60
I00
(lt(Nttba(lp2713
g56
(g64
(I0
tS'b'
tRp2714
(I1
(L0L
tg60
I00
(ltba(lp2715
g56
(g57
(I0
tS'b'
tRp2716
((I1
(L0L
tg60
I00
(lt(Nttba(dp2717
g135
(dp2718
g137
g2711
sg138
(lp2719
(dp2720
g141
g56
(g64
(I0
tS'b'
tRp2721
(I1
(L0L
tg143
I00
S''
tbsg144
g2714
sasstbsg145
S'('
sbag1
(g49
g3
NtRp2722
(dp2723
g52
g1
(g53
g3
NtRp2724
((lp2725
g56
(g57
(I0
tS'b'
tRp2726
((I1
(L1L
tg60
I00
(lp2727
S'Pos_arglist'
p2728
at(Nttba(lp2729
g56
(g64
(I0
tS'b'
tRp2730
(I1
(L1L
tg60
I00
(lp2731
g1
(g49
g3
NtRp2732
(dp2733
g52
g1
(g53
g3
NtRp2734
((lp2735
g56
(g57
(I0
tS'b'
tRp2736
((I1
(L1L
tg60
I00
(lp2737
S'Pos_arg'
p2738
at(Nttba(lp2739
g56
(g64
(I0
tS'b'
tRp2740
(I1
(L1L
tg60
I00
(lp2741
g1
(g49
g3
NtRp2742
(dp2743
g52
g1
(g53
g3
NtRp2744
((lp2745
g56
(g57
(I0
tS'b'
tRp2746
((I1
(L1L
tg60
I00
(lp2747
S'Expr'
p2748
at(Nttba(lp2749
g56
(g64
(I0
tS'b'
tRp2750
(I1
(L1L
tg60
I00
(lp2751
g1
(g49
g3
NtRp2752
(dp2753
g52
g1
(g53
g3
NtRp2754
((lp2755
g56
(g57
(I0
tS'b'
tRp2756
((I1
(L1L
tg60
I00
(lp2757
S'Val'
p2758
at(Nttba(lp2759
g56
(g64
(I0
tS'b'
tRp2760
(I1
(L1L
tg60
I00
(lp2761
g1
(g49
g3
NtRp2762
(dp2763
g52
g1
(g53
g3
NtRp2764
((lp2765
g56
(g57
(I0
tS'b'
tRp2766
((I1
(L1L
tg60
I00
(lp2767
S'Var'
p2768
at(Nttba(lp2769
g56
(g64
(I0
tS'b'
tRp2770
(I1
(L1L
tg60
I00
(lp2771
g1
(g49
g3
NtRp2772
(dp2773
g52
g1
(g53
g3
NtRp2774
((lp2775
g56
(g57
(I0
tS'b'
tRp2776
((I1
(L1L
tg60
I00
(lp2777
S'_L_'
p2778
at(Nttba(lp2779
g56
(g64
(I0
tS'b'
tRp2780
(I1
(L1L
tg60
I00
(lp2781
g1
(g49
g3
NtRp2782
(dp2783
g52
g1
(g53
g3
NtRp2784
((lp2785
g56
(g57
(I0
tS'b'
tRp2786
((I1
(L0L
tg60
I00
(lt(Nttba(lp2787
g56
(g64
(I0
tS'b'
tRp2788
(I1
(L0L
tg60
I00
(ltba(lp2789
g56
(g57
(I0
tS'b'
tRp2790
((I1
(L0L
tg60
I00
(lt(Nttba(dp2791
g135
(dp2792
g137
g2785
sg138
(lp2793
(dp2794
g141
g56
(g64
(I0
tS'b'
tRp2795
(I1
(L0L
tg143
I00
S''
tbsg144
g2788
sasstbsg145
S'L'
sbatba(lp2796
g56
(g57
(I0
tS'b'
tRp2797
((I1
(L1L
tg60
I00
(lp2798
g2778
at(Nttba(dp2799
g135
(dp2800
g137
g2775
sg138
(lp2801
(dp2802
g141
g178
(I0
I1
I1
tRp2803
sg144
g2780
sasstbsg145
g2768
sbatba(lp2804
g56
(g57
(I0
tS'b'
tRp2805
((I1
(L1L
tg60
I00
(lp2806
g2768
at(Nttba(dp2807
g135
(dp2808
g137
g2765
sg138
(lp2809
(dp2810
g141
g178
(I0
I1
I1
tRp2811
sg144
g2770
sasstbsg145
g2758
sbatba(lp2812
g56
(g57
(I0
tS'b'
tRp2813
((I1
(L1L
tg60
I00
(lp2814
g2758
at(Nttba(dp2815
g135
(dp2816
g137
g2755
sg138
(lp2817
(dp2818
g141
g178
(I0
I1
I1
tRp2819
sg144
g2760
sasstbsg145
g2748
sbatba(lp2820
g56
(g57
(I0
tS'b'
tRp2821
((I1
(L1L
tg60
I00
(lp2822
g2748
at(Nttba(dp2823
g135
(dp2824
g137
g2745
sg138
(lp2825
(dp2826
g141
g178
(I0
I1
I1
tRp2827
sg144
g2750
sasstbsg145
g2738
sbatba(lp2828
g56
(g57
(I0
tS'b'
tRp2829
((I1
(L1L
tg60
I00
(lp2830
g2738
at(Nttba(dp2831
g135
(dp2832
g137
g2735
sg138
(lp2833
(dp2834
g141
g178
(I0
I1
I1
tRp2835
sg144
g2740
sasstbsg145
g2728
sbatba(lp2836
g56
(g57
(I0
tS'b'
tRp2837
((I1
(L1L
tg60
I00
(lp2838
g2728
at(Nttba(dp2839
g135
(dp2840
g137
g2725
sg138
(lp2841
(dp2842
g141
g178
(I0
I1
I1
tRp2843
sg144
g2730
sasstbsg145
g2634
sbag1
(g49
g3
NtRp2844
(dp2845
g52
g1
(g53
g3
NtRp2846
((lp2847
g56
(g57
(I0
tS'b'
tRp2848
((I1
(L0L
tg60
I00
(lt(Nttba(lp2849
g56
(g64
(I0
tS'b'
tRp2850
(I1
(L0L
tg60
I00
(ltba(lp2851
g56
(g57
(I0
tS'b'
tRp2852
((I1
(L0L
tg60
I00
(lt(Nttba(dp2853
g135
(dp2854
g137
g2847
sg138
(lp2855
(dp2856
g141
g56
(g64
(I0
tS'b'
tRp2857
(I1
(L0L
tg143
I00
S''
tbsg144
g2850
sasstbsg145
S')'
sbatba(lp2858
g56
(g57
(I0
tS'b'
tRp2859
((I1
(L4L
tg60
I00
(lp2860
g2632
ag2633
ag2634
ag2635
at(Nttba(dp2861
g135
(dp2862
g137
g2629
sg138
(lp2863
(dp2864
g141
g178
(I0
I4
I1
tRp2865
sg144
g2637
sasstbsg145
g2622
sbatba(lp2866
g56
(g57
(I0
tS'b'
tRp2867
((I1
(L1L
tg60
I00
(lp2868
g2622
at(Nttba(dp2869
g135
(dp2870
g137
g2619
sg138
(lp2871
(dp2872
g141
g178
(I0
I1
I1
tRp2873
sg144
g2624
sasstbsg145
g2612
sbatba(lp2874
g56
(g57
(I0
tS'b'
tRp2875
((I1
(L1L
tg60
I00
(lp2876
g2612
at(Nttba(dp2877
g135
(dp2878
g137
g2609
sg138
(lp2879
(dp2880
g141
g178
(I0
I1
I1
tRp2881
sg144
g2614
sasstbsg145
g2602
sbatba(lp2882
g56
(g57
(I0
tS'b'
tRp2883
((I1
(L1L
tg60
I00
(lp2884
g2602
at(Nttba(dp2885
g135
(dp2886
g137
g2599
sg138
(lp2887
(dp2888
g141
g178
(I0
I1
I1
tRp2889
sg144
g2604
sasstbsg145
g2508
sbag1
(g49
g3
NtRp2890
(dp2891
g52
g1
(g53
g3
NtRp2892
((lp2893
g56
(g57
(I0
tS'b'
tRp2894
((I1
(L0L
tg60
I00
(lt(Nttba(lp2895
g56
(g64
(I0
tS'b'
tRp2896
(I1
(L0L
tg60
I00
(ltba(lp2897
g56
(g57
(I0
tS'b'
tRp2898
((I1
(L0L
tg60
I00
(lt(Nttba(dp2899
g135
(dp2900
g137
g2893
sg138
(lp2901
(dp2902
g141
g56
(g64
(I0
tS'b'
tRp2903
(I1
(L0L
tg143
I00
S''
tbsg144
g2896
sasstbsg145
S')'
sbatba(lp2904
g56
(g57
(I0
tS'b'
tRp2905
((I1
(L4L
tg60
I00
(lp2906
g2506
ag2507
ag2508
ag2509
at(Nttba(dp2907
g135
(dp2908
g137
g2503
sg138
(lp2909
(dp2910
g141
g178
(I0
I4
I1
tRp2911
sg144
g2511
sasstbsg145
g2496
sbatba(lp2912
g56
(g57
(I0
tS'b'
tRp2913
((I1
(L1L
tg60
I00
(lp2914
g2496
at(Nttba(dp2915
g135
(dp2916
g137
g2493
sg138
(lp2917
(dp2918
g141
g178
(I0
I1
I1
tRp2919
sg144
g2498
sasstbsg145
g2388
sbatba(lp2920
g56
(g57
(I0
tS'b'
tRp2921
((I1
(L4L
tg60
I00
(lp2922
g2385
ag2386
ag2387
ag2388
at(Nttba(dp2923
g135
(dp2924
g137
g2382
sg138
(lp2925
(dp2926
g141
g178
(I0
I4
I1
tRp2927
sg144
g2390
sasstbsg145
g2375
sbatba(lp2928
g56
(g57
(I0
tS'b'
tRp2929
((I1
(L1L
tg60
I00
(lp2930
g2375
at(Nttba(dp2931
g135
(dp2932
g137
g2372
sg138
(lp2933
(dp2934
g141
g178
(I0
I1
I1
tRp2935
sg144
g2377
sasstbsg145
g2365
sbatba(lp2936
g56
(g57
(I0
tS'b'
tRp2937
((I1
(L1L
tg60
I00
(lp2938
g2365
at(Nttba(dp2939
g135
(dp2940
g137
g2362
sg138
(lp2941
(dp2942
g141
g178
(I0
I1
I1
tRp2943
sg144
g2367
sasstbsg145
g2354
sbag1
(g49
g3
NtRp2944
(dp2945
g52
g1
(g53
g3
NtRp2946
((lp2947
g56
(g57
(I0
tS'b'
tRp2948
((I1
(L3L
tg60
I00
(lp2949
S'Blockbegin'
p2950
aS'Prog'
p2951
aS'Blockend'
p2952
at(Nttba(lp2953
g56
(g64
(I0
tS'b'
tRp2954
(I1
(L3L
tg60
I00
(lp2955
g1
(g49
g3
NtRp2956
(dp2957
g52
g1
(g53
g3
NtRp2958
((lp2959
g56
(g57
(I0
tS'b'
tRp2960
((I1
(L1L
tg60
I00
(lp2961
S'_:$blockbegin_'
p2962
at(Nttba(lp2963
g56
(g64
(I0
tS'b'
tRp2964
(I1
(L1L
tg60
I00
(lp2965
g1
(g49
g3
NtRp2966
(dp2967
g52
g1
(g53
g3
NtRp2968
((lp2969
g56
(g57
(I0
tS'b'
tRp2970
((I1
(L0L
tg60
I00
(lt(Nttba(lp2971
g56
(g64
(I0
tS'b'
tRp2972
(I1
(L0L
tg60
I00
(ltba(lp2973
g56
(g57
(I0
tS'b'
tRp2974
((I1
(L0L
tg60
I00
(lt(Nttba(dp2975
g135
(dp2976
g137
g2969
sg138
(lp2977
(dp2978
g141
g56
(g64
(I0
tS'b'
tRp2979
(I1
(L0L
tg143
I00
S''
tbsg144
g2972
sasstbsg145
S':$blockbegin'
p2980
sbatba(lp2981
g56
(g57
(I0
tS'b'
tRp2982
((I1
(L1L
tg60
I00
(lp2983
g2962
at(Nttba(dp2984
g135
(dp2985
g137
g2959
sg138
(lp2986
(dp2987
g141
g178
(I0
I1
I1
tRp2988
sg144
g2964
sasstbsg145
g2950
sbag1
(g49
g3
NtRp2989
(dp2990
g52
g1
(g53
g3
NtRp2991
((lp2992
g56
(g57
(I0
tS'b'
tRp2993
((I1
(L1L
tg60
I00
(lp2994
S'Stmt'
p2995
at(Nttba(lp2996
g56
(g64
(I0
tS'b'
tRp2997
(I1
(L1L
tg60
I00
(lp2998
g1
(g49
g3
NtRp2999
(dp3000
g52
g1
(g53
g3
NtRp3001
((lp3002
g56
(g57
(I0
tS'b'
tRp3003
((I1
(L1L
tg60
I00
(lp3004
S'Block_stmt'
p3005
at(Nttba(lp3006
g56
(g64
(I0
tS'b'
tRp3007
(I1
(L1L
tg60
I00
(lp3008
g1
(g49
g3
NtRp3009
(dp3010
g52
g1
(g53
g3
NtRp3011
((lp3012
g56
(g57
(I0
tS'b'
tRp3013
((I1
(L1L
tg60
I00
(lp3014
S'Ifelse'
p3015
at(Nttba(lp3016
g56
(g64
(I0
tS'b'
tRp3017
(I1
(L1L
tg60
I00
(lp3018
g1
(g49
g3
NtRp3019
(dp3020
g52
g1
(g53
g3
NtRp3021
((lp3022
g56
(g57
(I0
tS'b'
tRp3023
((I1
(L4L
tg60
I00
(lp3024
S'If'
p3025
aS'Block1'
p3026
aS'Else'
p3027
aS'Block2'
p3028
at(Nttba(lp3029
g56
(g64
(I0
tS'b'
tRp3030
(I1
(L4L
tg60
I00
(lp3031
g1
(g49
g3
NtRp3032
(dp3033
g52
g1
(g53
g3
NtRp3034
((lp3035
g56
(g57
(I0
tS'b'
tRp3036
((I1
(L2L
tg60
I00
(lp3037
S'_if_'
p3038
aS'Expr'
p3039
at(Nttba(lp3040
g56
(g64
(I0
tS'b'
tRp3041
(I1
(L2L
tg60
I00
(lp3042
g1
(g49
g3
NtRp3043
(dp3044
g52
g1
(g53
g3
NtRp3045
((lp3046
g56
(g57
(I0
tS'b'
tRp3047
((I1
(L0L
tg60
I00
(lt(Nttba(lp3048
g56
(g64
(I0
tS'b'
tRp3049
(I1
(L0L
tg60
I00
(ltba(lp3050
g56
(g57
(I0
tS'b'
tRp3051
((I1
(L0L
tg60
I00
(lt(Nttba(dp3052
g135
(dp3053
g137
g3046
sg138
(lp3054
(dp3055
g141
g56
(g64
(I0
tS'b'
tRp3056
(I1
(L0L
tg143
I00
S''
tbsg144
g3049
sasstbsg145
S'if'
p3057
sbag1
(g49
g3
NtRp3058
(dp3059
g52
g1
(g53
g3
NtRp3060
((lp3061
g56
(g57
(I0
tS'b'
tRp3062
((I1
(L3L
tg60
I00
(lp3063
S'Expr1'
p3064
aS'Op_cmp'
p3065
aS'Expr2'
p3066
at(Nttba(lp3067
g56
(g64
(I0
tS'b'
tRp3068
(I1
(L3L
tg60
I00
(lp3069
g1
(g49
g3
NtRp3070
(dp3071
g52
g1
(g53
g3
NtRp3072
((lp3073
g56
(g57
(I0
tS'b'
tRp3074
((I1
(L1L
tg60
I00
(lp3075
S'Val'
p3076
at(Nttba(lp3077
g56
(g64
(I0
tS'b'
tRp3078
(I1
(L1L
tg60
I00
(lp3079
g1
(g49
g3
NtRp3080
(dp3081
g52
g1
(g53
g3
NtRp3082
((lp3083
g56
(g57
(I0
tS'b'
tRp3084
((I1
(L1L
tg60
I00
(lp3085
S'Var'
p3086
at(Nttba(lp3087
g56
(g64
(I0
tS'b'
tRp3088
(I1
(L1L
tg60
I00
(lp3089
g1
(g49
g3
NtRp3090
(dp3091
g52
g1
(g53
g3
NtRp3092
((lp3093
g56
(g57
(I0
tS'b'
tRp3094
((I1
(L1L
tg60
I00
(lp3095
S'_i_'
p3096
at(Nttba(lp3097
g56
(g64
(I0
tS'b'
tRp3098
(I1
(L1L
tg60
I00
(lp3099
g1
(g49
g3
NtRp3100
(dp3101
g52
g1
(g53
g3
NtRp3102
((lp3103
g56
(g57
(I0
tS'b'
tRp3104
((I1
(L0L
tg60
I00
(lt(Nttba(lp3105
g56
(g64
(I0
tS'b'
tRp3106
(I1
(L0L
tg60
I00
(ltba(lp3107
g56
(g57
(I0
tS'b'
tRp3108
((I1
(L0L
tg60
I00
(lt(Nttba(dp3109
g135
(dp3110
g137
g3103
sg138
(lp3111
(dp3112
g141
g56
(g64
(I0
tS'b'
tRp3113
(I1
(L0L
tg143
I00
S''
tbsg144
g3106
sasstbsg145
S'i'
sbatba(lp3114
g56
(g57
(I0
tS'b'
tRp3115
((I1
(L1L
tg60
I00
(lp3116
g3096
at(Nttba(dp3117
g135
(dp3118
g137
g3093
sg138
(lp3119
(dp3120
g141
g178
(I0
I1
I1
tRp3121
sg144
g3098
sasstbsg145
g3086
sbatba(lp3122
g56
(g57
(I0
tS'b'
tRp3123
((I1
(L1L
tg60
I00
(lp3124
g3086
at(Nttba(dp3125
g135
(dp3126
g137
g3083
sg138
(lp3127
(dp3128
g141
g178
(I0
I1
I1
tRp3129
sg144
g3088
sasstbsg145
g3076
sbatba(lp3130
g56
(g57
(I0
tS'b'
tRp3131
((I1
(L1L
tg60
I00
(lp3132
g3076
at(Nttba(dp3133
g135
(dp3134
g137
g3073
sg138
(lp3135
(dp3136
g141
g178
(I0
I1
I1
tRp3137
sg144
g3078
sasstbsg145
S'Expr'
p3138
sbag1
(g49
g3
NtRp3139
(dp3140
g52
g1
(g53
g3
NtRp3141
((lp3142
g56
(g57
(I0
tS'b'
tRp3143
((I1
(L1L
tg60
I00
(lp3144
S'_>_'
p3145
at(Nttba(lp3146
g56
(g64
(I0
tS'b'
tRp3147
(I1
(L1L
tg60
I00
(lp3148
g1
(g49
g3
NtRp3149
(dp3150
g52
g1
(g53
g3
NtRp3151
((lp3152
g56
(g57
(I0
tS'b'
tRp3153
((I1
(L0L
tg60
I00
(lt(Nttba(lp3154
g56
(g64
(I0
tS'b'
tRp3155
(I1
(L0L
tg60
I00
(ltba(lp3156
g56
(g57
(I0
tS'b'
tRp3157
((I1
(L0L
tg60
I00
(lt(Nttba(dp3158
g135
(dp3159
g137
g3152
sg138
(lp3160
(dp3161
g141
g56
(g64
(I0
tS'b'
tRp3162
(I1
(L0L
tg143
I00
S''
tbsg144
g3155
sasstbsg145
S'>'
sbatba(lp3163
g56
(g57
(I0
tS'b'
tRp3164
((I1
(L1L
tg60
I00
(lp3165
g3145
at(Nttba(dp3166
g135
(dp3167
g137
g3142
sg138
(lp3168
(dp3169
g141
g178
(I0
I1
I1
tRp3170
sg144
g3147
sasstbsg145
g3065
sbag1
(g49
g3
NtRp3171
(dp3172
g52
g1
(g53
g3
NtRp3173
((lp3174
g56
(g57
(I0
tS'b'
tRp3175
((I1
(L1L
tg60
I00
(lp3176
S'Val'
p3177
at(Nttba(lp3178
g56
(g64
(I0
tS'b'
tRp3179
(I1
(L1L
tg60
I00
(lp3180
g1
(g49
g3
NtRp3181
(dp3182
g52
g1
(g53
g3
NtRp3183
((lp3184
g56
(g57
(I0
tS'b'
tRp3185
((I1
(L1L
tg60
I00
(lp3186
S'Number'
p3187
at(Nttba(lp3188
g56
(g64
(I0
tS'b'
tRp3189
(I1
(L1L
tg60
I00
(lp3190
g1
(g49
g3
NtRp3191
(dp3192
g52
g1
(g53
g3
NtRp3193
((lp3194
g56
(g57
(I0
tS'b'
tRp3195
((I1
(L1L
tg60
I00
(lp3196
S'Int'
p3197
at(Nttba(lp3198
g56
(g64
(I0
tS'b'
tRp3199
(I1
(L1L
tg60
I00
(lp3200
g1
(g49
g3
NtRp3201
(dp3202
g52
g1
(g53
g3
NtRp3203
((lp3204
g56
(g57
(I0
tS'b'
tRp3205
((I1
(L1L
tg60
I00
(lp3206
S'_3_'
p3207
at(Nttba(lp3208
g56
(g64
(I0
tS'b'
tRp3209
(I1
(L1L
tg60
I00
(lp3210
g1
(g49
g3
NtRp3211
(dp3212
g52
g1
(g53
g3
NtRp3213
((lp3214
g56
(g57
(I0
tS'b'
tRp3215
((I1
(L0L
tg60
I00
(lt(Nttba(lp3216
g56
(g64
(I0
tS'b'
tRp3217
(I1
(L0L
tg60
I00
(ltba(lp3218
g56
(g57
(I0
tS'b'
tRp3219
((I1
(L0L
tg60
I00
(lt(Nttba(dp3220
g135
(dp3221
g137
g3214
sg138
(lp3222
(dp3223
g141
g56
(g64
(I0
tS'b'
tRp3224
(I1
(L0L
tg143
I00
S''
tbsg144
g3217
sasstbsg145
S'3'
sbatba(lp3225
g56
(g57
(I0
tS'b'
tRp3226
((I1
(L1L
tg60
I00
(lp3227
g3207
at(Nttba(dp3228
g135
(dp3229
g137
g3204
sg138
(lp3230
(dp3231
g141
g178
(I0
I1
I1
tRp3232
sg144
g3209
sasstbsg145
g3197
sbatba(lp3233
g56
(g57
(I0
tS'b'
tRp3234
((I1
(L1L
tg60
I00
(lp3235
g3197
at(Nttba(dp3236
g135
(dp3237
g137
g3194
sg138
(lp3238
(dp3239
g141
g178
(I0
I1
I1
tRp3240
sg144
g3199
sasstbsg145
g3187
sbatba(lp3241
g56
(g57
(I0
tS'b'
tRp3242
((I1
(L1L
tg60
I00
(lp3243
g3187
at(Nttba(dp3244
g135
(dp3245
g137
g3184
sg138
(lp3246
(dp3247
g141
g178
(I0
I1
I1
tRp3248
sg144
g3189
sasstbsg145
g3177
sbatba(lp3249
g56
(g57
(I0
tS'b'
tRp3250
((I1
(L1L
tg60
I00
(lp3251
g3177
at(Nttba(dp3252
g135
(dp3253
g137
g3174
sg138
(lp3254
(dp3255
g141
g178
(I0
I1
I1
tRp3256
sg144
g3179
sasstbsg145
S'Expr'
p3257
sbatba(lp3258
g56
(g57
(I0
tS'b'
tRp3259
((I1
(L3L
tg60
I00
(lp3260
g3064
ag3065
ag3066
at(Nttba(dp3261
g135
(dp3262
g137
g3061
sg138
(lp3263
(dp3264
g141
g178
(I0
I3
I1
tRp3265
sg144
g3068
sasstbsg145
g3039
sbatba(lp3266
g56
(g57
(I0
tS'b'
tRp3267
((I1
(L2L
tg60
I00
(lp3268
g3038
ag3039
at(Nttba(dp3269
g135
(dp3270
g137
g3035
sg138
(lp3271
(dp3272
g141
g178
(I0
I2
I1
tRp3273
sg144
g3041
sasstbsg145
g3025
sbag1
(g49
g3
NtRp3274
(dp3275
g52
g1
(g53
g3
NtRp3276
((lp3277
g56
(g57
(I0
tS'b'
tRp3278
((I1
(L3L
tg60
I00
(lp3279
S'Blockbegin'
p3280
aS'Prog'
p3281
aS'Blockend'
p3282
at(Nttba(lp3283
g56
(g64
(I0
tS'b'
tRp3284
(I1
(L3L
tg60
I00
(lp3285
g1
(g49
g3
NtRp3286
(dp3287
g52
g1
(g53
g3
NtRp3288
((lp3289
g56
(g57
(I0
tS'b'
tRp3290
((I1
(L1L
tg60
I00
(lp3291
S'_:$blockbegin_'
p3292
at(Nttba(lp3293
g56
(g64
(I0
tS'b'
tRp3294
(I1
(L1L
tg60
I00
(lp3295
g1
(g49
g3
NtRp3296
(dp3297
g52
g1
(g53
g3
NtRp3298
((lp3299
g56
(g57
(I0
tS'b'
tRp3300
((I1
(L0L
tg60
I00
(lt(Nttba(lp3301
g56
(g64
(I0
tS'b'
tRp3302
(I1
(L0L
tg60
I00
(ltba(lp3303
g56
(g57
(I0
tS'b'
tRp3304
((I1
(L0L
tg60
I00
(lt(Nttba(dp3305
g135
(dp3306
g137
g3299
sg138
(lp3307
(dp3308
g141
g56
(g64
(I0
tS'b'
tRp3309
(I1
(L0L
tg143
I00
S''
tbsg144
g3302
sasstbsg145
S':$blockbegin'
p3310
sbatba(lp3311
g56
(g57
(I0
tS'b'
tRp3312
((I1
(L1L
tg60
I00
(lp3313
g3292
at(Nttba(dp3314
g135
(dp3315
g137
g3289
sg138
(lp3316
(dp3317
g141
g178
(I0
I1
I1
tRp3318
sg144
g3294
sasstbsg145
g3280
sbag1
(g49
g3
NtRp3319
(dp3320
g52
g1
(g53
g3
NtRp3321
((lp3322
g56
(g57
(I0
tS'b'
tRp3323
((I1
(L1L
tg60
I00
(lp3324
S'Stmt'
p3325
at(Nttba(lp3326
g56
(g64
(I0
tS'b'
tRp3327
(I1
(L1L
tg60
I00
(lp3328
g1
(g49
g3
NtRp3329
(dp3330
g52
g1
(g53
g3
NtRp3331
((lp3332
g56
(g57
(I0
tS'b'
tRp3333
((I1
(L1L
tg60
I00
(lp3334
S'Single_stmt'
p3335
at(Nttba(lp3336
g56
(g64
(I0
tS'b'
tRp3337
(I1
(L1L
tg60
I00
(lp3338
g1
(g49
g3
NtRp3339
(dp3340
g52
g1
(g53
g3
NtRp3341
((lp3342
g56
(g57
(I0
tS'b'
tRp3343
((I1
(L2L
tg60
I00
(lp3344
S'Assign_stmt'
p3345
aS'_;_'
p3346
at(Nttba(lp3347
g56
(g64
(I0
tS'b'
tRp3348
(I1
(L2L
tg60
I00
(lp3349
g1
(g49
g3
NtRp3350
(dp3351
g52
g1
(g53
g3
NtRp3352
((lp3353
g56
(g57
(I0
tS'b'
tRp3354
((I1
(L1L
tg60
I00
(lp3355
S'Assign'
p3356
at(Nttba(lp3357
g56
(g64
(I0
tS'b'
tRp3358
(I1
(L1L
tg60
I00
(lp3359
g1
(g49
g3
NtRp3360
(dp3361
g52
g1
(g53
g3
NtRp3362
((lp3363
g56
(g57
(I0
tS'b'
tRp3364
((I1
(L3L
tg60
I00
(lp3365
S'Varlist'
p3366
aS'_=_'
p3367
aS'Exprlist'
p3368
at(Nttba(lp3369
g56
(g64
(I0
tS'b'
tRp3370
(I1
(L3L
tg60
I00
(lp3371
g1
(g49
g3
NtRp3372
(dp3373
g52
g1
(g53
g3
NtRp3374
((lp3375
g56
(g57
(I0
tS'b'
tRp3376
((I1
(L1L
tg60
I00
(lp3377
S'Vartuple'
p3378
at(Nttba(lp3379
g56
(g64
(I0
tS'b'
tRp3380
(I1
(L1L
tg60
I00
(lp3381
g1
(g49
g3
NtRp3382
(dp3383
g52
g1
(g53
g3
NtRp3384
((lp3385
g56
(g57
(I0
tS'b'
tRp3386
((I1
(L1L
tg60
I00
(lp3387
S'Var'
p3388
at(Nttba(lp3389
g56
(g64
(I0
tS'b'
tRp3390
(I1
(L1L
tg60
I00
(lp3391
g1
(g49
g3
NtRp3392
(dp3393
g52
g1
(g53
g3
NtRp3394
((lp3395
g56
(g57
(I0
tS'b'
tRp3396
((I1
(L4L
tg60
I00
(lp3397
S'Var'
p3398
aS'_[_'
p3399
aS'Slice'
p3400
aS'_]_'
p3401
at(Nttba(lp3402
g56
(g64
(I0
tS'b'
tRp3403
(I1
(L4L
tg60
I00
(lp3404
g1
(g49
g3
NtRp3405
(dp3406
g52
g1
(g53
g3
NtRp3407
((lp3408
g56
(g57
(I0
tS'b'
tRp3409
((I1
(L1L
tg60
I00
(lp3410
S'_L_'
p3411
at(Nttba(lp3412
g56
(g64
(I0
tS'b'
tRp3413
(I1
(L1L
tg60
I00
(lp3414
g1
(g49
g3
NtRp3415
(dp3416
g52
g1
(g53
g3
NtRp3417
((lp3418
g56
(g57
(I0
tS'b'
tRp3419
((I1
(L0L
tg60
I00
(lt(Nttba(lp3420
g56
(g64
(I0
tS'b'
tRp3421
(I1
(L0L
tg60
I00
(ltba(lp3422
g56
(g57
(I0
tS'b'
tRp3423
((I1
(L0L
tg60
I00
(lt(Nttba(dp3424
g135
(dp3425
g137
g3418
sg138
(lp3426
(dp3427
g141
g56
(g64
(I0
tS'b'
tRp3428
(I1
(L0L
tg143
I00
S''
tbsg144
g3421
sasstbsg145
S'L'
sbatba(lp3429
g56
(g57
(I0
tS'b'
tRp3430
((I1
(L1L
tg60
I00
(lp3431
g3411
at(Nttba(dp3432
g135
(dp3433
g137
g3408
sg138
(lp3434
(dp3435
g141
g178
(I0
I1
I1
tRp3436
sg144
g3413
sasstbsg145
g3398
sbag1
(g49
g3
NtRp3437
(dp3438
g52
g1
(g53
g3
NtRp3439
((lp3440
g56
(g57
(I0
tS'b'
tRp3441
((I1
(L0L
tg60
I00
(lt(Nttba(lp3442
g56
(g64
(I0
tS'b'
tRp3443
(I1
(L0L
tg60
I00
(ltba(lp3444
g56
(g57
(I0
tS'b'
tRp3445
((I1
(L0L
tg60
I00
(lt(Nttba(dp3446
g135
(dp3447
g137
g3440
sg138
(lp3448
(dp3449
g141
g56
(g64
(I0
tS'b'
tRp3450
(I1
(L0L
tg143
I00
S''
tbsg144
g3443
sasstbsg145
S'['
sbag1
(g49
g3
NtRp3451
(dp3452
g52
g1
(g53
g3
NtRp3453
((lp3454
g56
(g57
(I0
tS'b'
tRp3455
((I1
(L1L
tg60
I00
(lp3456
S'Expr'
p3457
at(Nttba(lp3458
g56
(g64
(I0
tS'b'
tRp3459
(I1
(L1L
tg60
I00
(lp3460
g1
(g49
g3
NtRp3461
(dp3462
g52
g1
(g53
g3
NtRp3463
((lp3464
g56
(g57
(I0
tS'b'
tRp3465
((I1
(L1L
tg60
I00
(lp3466
S'Val'
p3467
at(Nttba(lp3468
g56
(g64
(I0
tS'b'
tRp3469
(I1
(L1L
tg60
I00
(lp3470
g1
(g49
g3
NtRp3471
(dp3472
g52
g1
(g53
g3
NtRp3473
((lp3474
g56
(g57
(I0
tS'b'
tRp3475
((I1
(L1L
tg60
I00
(lp3476
S'Var'
p3477
at(Nttba(lp3478
g56
(g64
(I0
tS'b'
tRp3479
(I1
(L1L
tg60
I00
(lp3480
g1
(g49
g3
NtRp3481
(dp3482
g52
g1
(g53
g3
NtRp3483
((lp3484
g56
(g57
(I0
tS'b'
tRp3485
((I1
(L1L
tg60
I00
(lp3486
S'_i_'
p3487
at(Nttba(lp3488
g56
(g64
(I0
tS'b'
tRp3489
(I1
(L1L
tg60
I00
(lp3490
g1
(g49
g3
NtRp3491
(dp3492
g52
g1
(g53
g3
NtRp3493
((lp3494
g56
(g57
(I0
tS'b'
tRp3495
((I1
(L0L
tg60
I00
(lt(Nttba(lp3496
g56
(g64
(I0
tS'b'
tRp3497
(I1
(L0L
tg60
I00
(ltba(lp3498
g56
(g57
(I0
tS'b'
tRp3499
((I1
(L0L
tg60
I00
(lt(Nttba(dp3500
g135
(dp3501
g137
g3494
sg138
(lp3502
(dp3503
g141
g56
(g64
(I0
tS'b'
tRp3504
(I1
(L0L
tg143
I00
S''
tbsg144
g3497
sasstbsg145
S'i'
sbatba(lp3505
g56
(g57
(I0
tS'b'
tRp3506
((I1
(L1L
tg60
I00
(lp3507
g3487
at(Nttba(dp3508
g135
(dp3509
g137
g3484
sg138
(lp3510
(dp3511
g141
g178
(I0
I1
I1
tRp3512
sg144
g3489
sasstbsg145
g3477
sbatba(lp3513
g56
(g57
(I0
tS'b'
tRp3514
((I1
(L1L
tg60
I00
(lp3515
g3477
at(Nttba(dp3516
g135
(dp3517
g137
g3474
sg138
(lp3518
(dp3519
g141
g178
(I0
I1
I1
tRp3520
sg144
g3479
sasstbsg145
g3467
sbatba(lp3521
g56
(g57
(I0
tS'b'
tRp3522
((I1
(L1L
tg60
I00
(lp3523
g3467
at(Nttba(dp3524
g135
(dp3525
g137
g3464
sg138
(lp3526
(dp3527
g141
g178
(I0
I1
I1
tRp3528
sg144
g3469
sasstbsg145
g3457
sbatba(lp3529
g56
(g57
(I0
tS'b'
tRp3530
((I1
(L1L
tg60
I00
(lp3531
g3457
at(Nttba(dp3532
g135
(dp3533
g137
g3454
sg138
(lp3534
(dp3535
g141
g178
(I0
I1
I1
tRp3536
sg144
g3459
sasstbsg145
g3400
sbag1
(g49
g3
NtRp3537
(dp3538
g52
g1
(g53
g3
NtRp3539
((lp3540
g56
(g57
(I0
tS'b'
tRp3541
((I1
(L0L
tg60
I00
(lt(Nttba(lp3542
g56
(g64
(I0
tS'b'
tRp3543
(I1
(L0L
tg60
I00
(ltba(lp3544
g56
(g57
(I0
tS'b'
tRp3545
((I1
(L0L
tg60
I00
(lt(Nttba(dp3546
g135
(dp3547
g137
g3540
sg138
(lp3548
(dp3549
g141
g56
(g64
(I0
tS'b'
tRp3550
(I1
(L0L
tg143
I00
S''
tbsg144
g3543
sasstbsg145
S']'
sbatba(lp3551
g56
(g57
(I0
tS'b'
tRp3552
((I1
(L4L
tg60
I00
(lp3553
g3398
ag3399
ag3400
ag3401
at(Nttba(dp3554
g135
(dp3555
g137
g3395
sg138
(lp3556
(dp3557
g141
g178
(I0
I4
I1
tRp3558
sg144
g3403
sasstbsg145
g3388
sbatba(lp3559
g56
(g57
(I0
tS'b'
tRp3560
((I1
(L1L
tg60
I00
(lp3561
g3388
at(Nttba(dp3562
g135
(dp3563
g137
g3385
sg138
(lp3564
(dp3565
g141
g178
(I0
I1
I1
tRp3566
sg144
g3390
sasstbsg145
g3378
sbatba(lp3567
g56
(g57
(I0
tS'b'
tRp3568
((I1
(L1L
tg60
I00
(lp3569
g3378
at(Nttba(dp3570
g135
(dp3571
g137
g3375
sg138
(lp3572
(dp3573
g141
g178
(I0
I1
I1
tRp3574
sg144
g3380
sasstbsg145
g3366
sbag1
(g49
g3
NtRp3575
(dp3576
g52
g1
(g53
g3
NtRp3577
((lp3578
g56
(g57
(I0
tS'b'
tRp3579
((I1
(L0L
tg60
I00
(lt(Nttba(lp3580
g56
(g64
(I0
tS'b'
tRp3581
(I1
(L0L
tg60
I00
(ltba(lp3582
g56
(g57
(I0
tS'b'
tRp3583
((I1
(L0L
tg60
I00
(lt(Nttba(dp3584
g135
(dp3585
g137
g3578
sg138
(lp3586
(dp3587
g141
g56
(g64
(I0
tS'b'
tRp3588
(I1
(L0L
tg143
I00
S''
tbsg144
g3581
sasstbsg145
S'='
sbag1
(g49
g3
NtRp3589
(dp3590
g52
g1
(g53
g3
NtRp3591
((lp3592
g56
(g57
(I0
tS'b'
tRp3593
((I1
(L1L
tg60
I00
(lp3594
S'Expr'
p3595
at(Nttba(lp3596
g56
(g64
(I0
tS'b'
tRp3597
(I1
(L1L
tg60
I00
(lp3598
g1
(g49
g3
NtRp3599
(dp3600
g52
g1
(g53
g3
NtRp3601
((lp3602
g56
(g57
(I0
tS'b'
tRp3603
((I1
(L4L
tg60
I00
(lp3604
S'Expr'
p3605
aS'_(_'
p3606
aS'Arglist'
p3607
aS'_)_'
p3608
at(Nttba(lp3609
g56
(g64
(I0
tS'b'
tRp3610
(I1
(L4L
tg60
I00
(lp3611
g1
(g49
g3
NtRp3612
(dp3613
g52
g1
(g53
g3
NtRp3614
((lp3615
g56
(g57
(I0
tS'b'
tRp3616
((I1
(L1L
tg60
I00
(lp3617
S'Val'
p3618
at(Nttba(lp3619
g56
(g64
(I0
tS'b'
tRp3620
(I1
(L1L
tg60
I00
(lp3621
g1
(g49
g3
NtRp3622
(dp3623
g52
g1
(g53
g3
NtRp3624
((lp3625
g56
(g57
(I0
tS'b'
tRp3626
((I1
(L1L
tg60
I00
(lp3627
S'Var'
p3628
at(Nttba(lp3629
g56
(g64
(I0
tS'b'
tRp3630
(I1
(L1L
tg60
I00
(lp3631
g1
(g49
g3
NtRp3632
(dp3633
g52
g1
(g53
g3
NtRp3634
((lp3635
g56
(g57
(I0
tS'b'
tRp3636
((I1
(L1L
tg60
I00
(lp3637
S'_f_'
p3638
at(Nttba(lp3639
g56
(g64
(I0
tS'b'
tRp3640
(I1
(L1L
tg60
I00
(lp3641
g1
(g49
g3
NtRp3642
(dp3643
g52
g1
(g53
g3
NtRp3644
((lp3645
g56
(g57
(I0
tS'b'
tRp3646
((I1
(L0L
tg60
I00
(lt(Nttba(lp3647
g56
(g64
(I0
tS'b'
tRp3648
(I1
(L0L
tg60
I00
(ltba(lp3649
g56
(g57
(I0
tS'b'
tRp3650
((I1
(L0L
tg60
I00
(lt(Nttba(dp3651
g135
(dp3652
g137
g3645
sg138
(lp3653
(dp3654
g141
g56
(g64
(I0
tS'b'
tRp3655
(I1
(L0L
tg143
I00
S''
tbsg144
g3648
sasstbsg145
S'f'
sbatba(lp3656
g56
(g57
(I0
tS'b'
tRp3657
((I1
(L1L
tg60
I00
(lp3658
g3638
at(Nttba(dp3659
g135
(dp3660
g137
g3635
sg138
(lp3661
(dp3662
g141
g178
(I0
I1
I1
tRp3663
sg144
g3640
sasstbsg145
g3628
sbatba(lp3664
g56
(g57
(I0
tS'b'
tRp3665
((I1
(L1L
tg60
I00
(lp3666
g3628
at(Nttba(dp3667
g135
(dp3668
g137
g3625
sg138
(lp3669
(dp3670
g141
g178
(I0
I1
I1
tRp3671
sg144
g3630
sasstbsg145
g3618
sbatba(lp3672
g56
(g57
(I0
tS'b'
tRp3673
((I1
(L1L
tg60
I00
(lp3674
g3618
at(Nttba(dp3675
g135
(dp3676
g137
g3615
sg138
(lp3677
(dp3678
g141
g178
(I0
I1
I1
tRp3679
sg144
g3620
sasstbsg145
g3605
sbag1
(g49
g3
NtRp3680
(dp3681
g52
g1
(g53
g3
NtRp3682
((lp3683
g56
(g57
(I0
tS'b'
tRp3684
((I1
(L0L
tg60
I00
(lt(Nttba(lp3685
g56
(g64
(I0
tS'b'
tRp3686
(I1
(L0L
tg60
I00
(ltba(lp3687
g56
(g57
(I0
tS'b'
tRp3688
((I1
(L0L
tg60
I00
(lt(Nttba(dp3689
g135
(dp3690
g137
g3683
sg138
(lp3691
(dp3692
g141
g56
(g64
(I0
tS'b'
tRp3693
(I1
(L0L
tg143
I00
S''
tbsg144
g3686
sasstbsg145
S'('
sbag1
(g49
g3
NtRp3694
(dp3695
g52
g1
(g53
g3
NtRp3696
((lp3697
g56
(g57
(I0
tS'b'
tRp3698
((I1
(L1L
tg60
I00
(lp3699
S'Pos_arglist'
p3700
at(Nttba(lp3701
g56
(g64
(I0
tS'b'
tRp3702
(I1
(L1L
tg60
I00
(lp3703
g1
(g49
g3
NtRp3704
(dp3705
g52
g1
(g53
g3
NtRp3706
((lp3707
g56
(g57
(I0
tS'b'
tRp3708
((I1
(L1L
tg60
I00
(lp3709
S'Pos_arg'
p3710
at(Nttba(lp3711
g56
(g64
(I0
tS'b'
tRp3712
(I1
(L1L
tg60
I00
(lp3713
g1
(g49
g3
NtRp3714
(dp3715
g52
g1
(g53
g3
NtRp3716
((lp3717
g56
(g57
(I0
tS'b'
tRp3718
((I1
(L1L
tg60
I00
(lp3719
S'Expr'
p3720
at(Nttba(lp3721
g56
(g64
(I0
tS'b'
tRp3722
(I1
(L1L
tg60
I00
(lp3723
g1
(g49
g3
NtRp3724
(dp3725
g52
g1
(g53
g3
NtRp3726
((lp3727
g56
(g57
(I0
tS'b'
tRp3728
((I1
(L3L
tg60
I00
(lp3729
S'Expr1'
p3730
aS'_+_'
p3731
aS'Expr2'
p3732
at(Nttba(lp3733
g56
(g64
(I0
tS'b'
tRp3734
(I1
(L3L
tg60
I00
(lp3735
g1
(g49
g3
NtRp3736
(dp3737
g52
g1
(g53
g3
NtRp3738
((lp3739
g56
(g57
(I0
tS'b'
tRp3740
((I1
(L1L
tg60
I00
(lp3741
S'Val'
p3742
at(Nttba(lp3743
g56
(g64
(I0
tS'b'
tRp3744
(I1
(L1L
tg60
I00
(lp3745
g1
(g49
g3
NtRp3746
(dp3747
g52
g1
(g53
g3
NtRp3748
((lp3749
g56
(g57
(I0
tS'b'
tRp3750
((I1
(L1L
tg60
I00
(lp3751
S'Var'
p3752
at(Nttba(lp3753
g56
(g64
(I0
tS'b'
tRp3754
(I1
(L1L
tg60
I00
(lp3755
g1
(g49
g3
NtRp3756
(dp3757
g52
g1
(g53
g3
NtRp3758
((lp3759
g56
(g57
(I0
tS'b'
tRp3760
((I1
(L1L
tg60
I00
(lp3761
S'_i_'
p3762
at(Nttba(lp3763
g56
(g64
(I0
tS'b'
tRp3764
(I1
(L1L
tg60
I00
(lp3765
g1
(g49
g3
NtRp3766
(dp3767
g52
g1
(g53
g3
NtRp3768
((lp3769
g56
(g57
(I0
tS'b'
tRp3770
((I1
(L0L
tg60
I00
(lt(Nttba(lp3771
g56
(g64
(I0
tS'b'
tRp3772
(I1
(L0L
tg60
I00
(ltba(lp3773
g56
(g57
(I0
tS'b'
tRp3774
((I1
(L0L
tg60
I00
(lt(Nttba(dp3775
g135
(dp3776
g137
g3769
sg138
(lp3777
(dp3778
g141
g56
(g64
(I0
tS'b'
tRp3779
(I1
(L0L
tg143
I00
S''
tbsg144
g3772
sasstbsg145
S'i'
sbatba(lp3780
g56
(g57
(I0
tS'b'
tRp3781
((I1
(L1L
tg60
I00
(lp3782
g3762
at(Nttba(dp3783
g135
(dp3784
g137
g3759
sg138
(lp3785
(dp3786
g141
g178
(I0
I1
I1
tRp3787
sg144
g3764
sasstbsg145
g3752
sbatba(lp3788
g56
(g57
(I0
tS'b'
tRp3789
((I1
(L1L
tg60
I00
(lp3790
g3752
at(Nttba(dp3791
g135
(dp3792
g137
g3749
sg138
(lp3793
(dp3794
g141
g178
(I0
I1
I1
tRp3795
sg144
g3754
sasstbsg145
g3742
sbatba(lp3796
g56
(g57
(I0
tS'b'
tRp3797
((I1
(L1L
tg60
I00
(lp3798
g3742
at(Nttba(dp3799
g135
(dp3800
g137
g3739
sg138
(lp3801
(dp3802
g141
g178
(I0
I1
I1
tRp3803
sg144
g3744
sasstbsg145
S'Expr'
p3804
sbag1
(g49
g3
NtRp3805
(dp3806
g52
g1
(g53
g3
NtRp3807
((lp3808
g56
(g57
(I0
tS'b'
tRp3809
((I1
(L0L
tg60
I00
(lt(Nttba(lp3810
g56
(g64
(I0
tS'b'
tRp3811
(I1
(L0L
tg60
I00
(ltba(lp3812
g56
(g57
(I0
tS'b'
tRp3813
((I1
(L0L
tg60
I00
(lt(Nttba(dp3814
g135
(dp3815
g137
g3808
sg138
(lp3816
(dp3817
g141
g56
(g64
(I0
tS'b'
tRp3818
(I1
(L0L
tg143
I00
S''
tbsg144
g3811
sasstbsg145
S'+'
sbag1
(g49
g3
NtRp3819
(dp3820
g52
g1
(g53
g3
NtRp3821
((lp3822
g56
(g57
(I0
tS'b'
tRp3823
((I1
(L1L
tg60
I00
(lp3824
S'Val'
p3825
at(Nttba(lp3826
g56
(g64
(I0
tS'b'
tRp3827
(I1
(L1L
tg60
I00
(lp3828
g1
(g49
g3
NtRp3829
(dp3830
g52
g1
(g53
g3
NtRp3831
((lp3832
g56
(g57
(I0
tS'b'
tRp3833
((I1
(L1L
tg60
I00
(lp3834
S'Number'
p3835
at(Nttba(lp3836
g56
(g64
(I0
tS'b'
tRp3837
(I1
(L1L
tg60
I00
(lp3838
g1
(g49
g3
NtRp3839
(dp3840
g52
g1
(g53
g3
NtRp3841
((lp3842
g56
(g57
(I0
tS'b'
tRp3843
((I1
(L1L
tg60
I00
(lp3844
S'Int'
p3845
at(Nttba(lp3846
g56
(g64
(I0
tS'b'
tRp3847
(I1
(L1L
tg60
I00
(lp3848
g1
(g49
g3
NtRp3849
(dp3850
g52
g1
(g53
g3
NtRp3851
((lp3852
g56
(g57
(I0
tS'b'
tRp3853
((I1
(L1L
tg60
I00
(lp3854
S'_1_'
p3855
at(Nttba(lp3856
g56
(g64
(I0
tS'b'
tRp3857
(I1
(L1L
tg60
I00
(lp3858
g1
(g49
g3
NtRp3859
(dp3860
g52
g1
(g53
g3
NtRp3861
((lp3862
g56
(g57
(I0
tS'b'
tRp3863
((I1
(L0L
tg60
I00
(lt(Nttba(lp3864
g56
(g64
(I0
tS'b'
tRp3865
(I1
(L0L
tg60
I00
(ltba(lp3866
g56
(g57
(I0
tS'b'
tRp3867
((I1
(L0L
tg60
I00
(lt(Nttba(dp3868
g135
(dp3869
g137
g3862
sg138
(lp3870
(dp3871
g141
g56
(g64
(I0
tS'b'
tRp3872
(I1
(L0L
tg143
I00
S''
tbsg144
g3865
sasstbsg145
S'1'
sbatba(lp3873
g56
(g57
(I0
tS'b'
tRp3874
((I1
(L1L
tg60
I00
(lp3875
g3855
at(Nttba(dp3876
g135
(dp3877
g137
g3852
sg138
(lp3878
(dp3879
g141
g178
(I0
I1
I1
tRp3880
sg144
g3857
sasstbsg145
g3845
sbatba(lp3881
g56
(g57
(I0
tS'b'
tRp3882
((I1
(L1L
tg60
I00
(lp3883
g3845
at(Nttba(dp3884
g135
(dp3885
g137
g3842
sg138
(lp3886
(dp3887
g141
g178
(I0
I1
I1
tRp3888
sg144
g3847
sasstbsg145
g3835
sbatba(lp3889
g56
(g57
(I0
tS'b'
tRp3890
((I1
(L1L
tg60
I00
(lp3891
g3835
at(Nttba(dp3892
g135
(dp3893
g137
g3832
sg138
(lp3894
(dp3895
g141
g178
(I0
I1
I1
tRp3896
sg144
g3837
sasstbsg145
g3825
sbatba(lp3897
g56
(g57
(I0
tS'b'
tRp3898
((I1
(L1L
tg60
I00
(lp3899
g3825
at(Nttba(dp3900
g135
(dp3901
g137
g3822
sg138
(lp3902
(dp3903
g141
g178
(I0
I1
I1
tRp3904
sg144
g3827
sasstbsg145
S'Expr'
p3905
sbatba(lp3906
g56
(g57
(I0
tS'b'
tRp3907
((I1
(L3L
tg60
I00
(lp3908
g3730
ag3731
ag3732
at(Nttba(dp3909
g135
(dp3910
g137
g3727
sg138
(lp3911
(dp3912
g141
g178
(I0
I3
I1
tRp3913
sg144
g3734
sasstbsg145
g3720
sbatba(lp3914
g56
(g57
(I0
tS'b'
tRp3915
((I1
(L1L
tg60
I00
(lp3916
g3720
at(Nttba(dp3917
g135
(dp3918
g137
g3717
sg138
(lp3919
(dp3920
g141
g178
(I0
I1
I1
tRp3921
sg144
g3722
sasstbsg145
g3710
sbatba(lp3922
g56
(g57
(I0
tS'b'
tRp3923
((I1
(L1L
tg60
I00
(lp3924
g3710
at(Nttba(dp3925
g135
(dp3926
g137
g3707
sg138
(lp3927
(dp3928
g141
g178
(I0
I1
I1
tRp3929
sg144
g3712
sasstbsg145
g3700
sbatba(lp3930
g56
(g57
(I0
tS'b'
tRp3931
((I1
(L1L
tg60
I00
(lp3932
g3700
at(Nttba(dp3933
g135
(dp3934
g137
g3697
sg138
(lp3935
(dp3936
g141
g178
(I0
I1
I1
tRp3937
sg144
g3702
sasstbsg145
g3607
sbag1
(g49
g3
NtRp3938
(dp3939
g52
g1
(g53
g3
NtRp3940
((lp3941
g56
(g57
(I0
tS'b'
tRp3942
((I1
(L0L
tg60
I00
(lt(Nttba(lp3943
g56
(g64
(I0
tS'b'
tRp3944
(I1
(L0L
tg60
I00
(ltba(lp3945
g56
(g57
(I0
tS'b'
tRp3946
((I1
(L0L
tg60
I00
(lt(Nttba(dp3947
g135
(dp3948
g137
g3941
sg138
(lp3949
(dp3950
g141
g56
(g64
(I0
tS'b'
tRp3951
(I1
(L0L
tg143
I00
S''
tbsg144
g3944
sasstbsg145
S')'
sbatba(lp3952
g56
(g57
(I0
tS'b'
tRp3953
((I1
(L4L
tg60
I00
(lp3954
g3605
ag3606
ag3607
ag3608
at(Nttba(dp3955
g135
(dp3956
g137
g3602
sg138
(lp3957
(dp3958
g141
g178
(I0
I4
I1
tRp3959
sg144
g3610
sasstbsg145
g3595
sbatba(lp3960
g56
(g57
(I0
tS'b'
tRp3961
((I1
(L1L
tg60
I00
(lp3962
g3595
at(Nttba(dp3963
g135
(dp3964
g137
g3592
sg138
(lp3965
(dp3966
g141
g178
(I0
I1
I1
tRp3967
sg144
g3597
sasstbsg145
g3368
sbatba(lp3968
g56
(g57
(I0
tS'b'
tRp3969
((I1
(L3L
tg60
I00
(lp3970
g3366
ag3367
ag3368
at(Nttba(dp3971
g135
(dp3972
g137
g3363
sg138
(lp3973
(dp3974
g141
g178
(I0
I3
I1
tRp3975
sg144
g3370
sasstbsg145
g3356
sbatba(lp3976
g56
(g57
(I0
tS'b'
tRp3977
((I1
(L1L
tg60
I00
(lp3978
g3356
at(Nttba(dp3979
g135
(dp3980
g137
g3353
sg138
(lp3981
(dp3982
g141
g178
(I0
I1
I1
tRp3983
sg144
g3358
sasstbsg145
g3345
sbag1
(g49
g3
NtRp3984
(dp3985
g52
g1
(g53
g3
NtRp3986
((lp3987
g56
(g57
(I0
tS'b'
tRp3988
((I1
(L0L
tg60
I00
(lt(Nttba(lp3989
g56
(g64
(I0
tS'b'
tRp3990
(I1
(L0L
tg60
I00
(ltba(lp3991
g56
(g57
(I0
tS'b'
tRp3992
((I1
(L0L
tg60
I00
(lt(Nttba(dp3993
g135
(dp3994
g137
g3987
sg138
(lp3995
(dp3996
g141
g56
(g64
(I0
tS'b'
tRp3997
(I1
(L0L
tg143
I00
S''
tbsg144
g3990
sasstbsg145
S';'
sbatba(lp3998
g56
(g57
(I0
tS'b'
tRp3999
((I1
(L2L
tg60
I00
(lp4000
g3345
ag3346
at(Nttba(dp4001
g135
(dp4002
g137
g3342
sg138
(lp4003
(dp4004
g141
g178
(I0
I2
I1
tRp4005
sg144
g3348
sasstbsg145
g3335
sbatba(lp4006
g56
(g57
(I0
tS'b'
tRp4007
((I1
(L1L
tg60
I00
(lp4008
g3335
at(Nttba(dp4009
g135
(dp4010
g137
g3332
sg138
(lp4011
(dp4012
g141
g178
(I0
I1
I1
tRp4013
sg144
g3337
sasstbsg145
g3325
sbatba(lp4014
g56
(g57
(I0
tS'b'
tRp4015
((I1
(L1L
tg60
I00
(lp4016
g3325
at(Nttba(dp4017
g135
(dp4018
g137
g3322
sg138
(lp4019
(dp4020
g141
g178
(I0
I1
I1
tRp4021
sg144
g3327
sasstbsg145
g3281
sbag1
(g49
g3
NtRp4022
(dp4023
g52
g1
(g53
g3
NtRp4024
((lp4025
g56
(g57
(I0
tS'b'
tRp4026
((I1
(L1L
tg60
I00
(lp4027
S'_$blockend_'
p4028
at(Nttba(lp4029
g56
(g64
(I0
tS'b'
tRp4030
(I1
(L1L
tg60
I00
(lp4031
g1
(g49
g3
NtRp4032
(dp4033
g52
g1
(g53
g3
NtRp4034
((lp4035
g56
(g57
(I0
tS'b'
tRp4036
((I1
(L0L
tg60
I00
(lt(Nttba(lp4037
g56
(g64
(I0
tS'b'
tRp4038
(I1
(L0L
tg60
I00
(ltba(lp4039
g56
(g57
(I0
tS'b'
tRp4040
((I1
(L0L
tg60
I00
(lt(Nttba(dp4041
g135
(dp4042
g137
g4035
sg138
(lp4043
(dp4044
g141
g56
(g64
(I0
tS'b'
tRp4045
(I1
(L0L
tg143
I00
S''
tbsg144
g4038
sasstbsg145
S'$blockend'
p4046
sbatba(lp4047
g56
(g57
(I0
tS'b'
tRp4048
((I1
(L1L
tg60
I00
(lp4049
g4028
at(Nttba(dp4050
g135
(dp4051
g137
g4025
sg138
(lp4052
(dp4053
g141
g178
(I0
I1
I1
tRp4054
sg144
g4030
sasstbsg145
g3282
sbatba(lp4055
g56
(g57
(I0
tS'b'
tRp4056
((I1
(L3L
tg60
I00
(lp4057
g3280
ag3281
ag3282
at(Nttba(dp4058
g135
(dp4059
g137
g3277
sg138
(lp4060
(dp4061
g141
g178
(I0
I3
I1
tRp4062
sg144
g3284
sasstbsg145
S'Block'
p4063
sbag1
(g49
g3
NtRp4064
(dp4065
g52
g1
(g53
g3
NtRp4066
((lp4067
g56
(g57
(I0
tS'b'
tRp4068
((I1
(L1L
tg60
I00
(lp4069
S'_else_'
p4070
at(Nttba(lp4071
g56
(g64
(I0
tS'b'
tRp4072
(I1
(L1L
tg60
I00
(lp4073
g1
(g49
g3
NtRp4074
(dp4075
g52
g1
(g53
g3
NtRp4076
((lp4077
g56
(g57
(I0
tS'b'
tRp4078
((I1
(L0L
tg60
I00
(lt(Nttba(lp4079
g56
(g64
(I0
tS'b'
tRp4080
(I1
(L0L
tg60
I00
(ltba(lp4081
g56
(g57
(I0
tS'b'
tRp4082
((I1
(L0L
tg60
I00
(lt(Nttba(dp4083
g135
(dp4084
g137
g4077
sg138
(lp4085
(dp4086
g141
g56
(g64
(I0
tS'b'
tRp4087
(I1
(L0L
tg143
I00
S''
tbsg144
g4080
sasstbsg145
S'else'
p4088
sbatba(lp4089
g56
(g57
(I0
tS'b'
tRp4090
((I1
(L1L
tg60
I00
(lp4091
g4070
at(Nttba(dp4092
g135
(dp4093
g137
g4067
sg138
(lp4094
(dp4095
g141
g178
(I0
I1
I1
tRp4096
sg144
g4072
sasstbsg145
g3027
sbag1
(g49
g3
NtRp4097
(dp4098
g52
g1
(g53
g3
NtRp4099
((lp4100
g56
(g57
(I0
tS'b'
tRp4101
((I1
(L3L
tg60
I00
(lp4102
S'Blockbegin'
p4103
aS'Prog'
p4104
aS'Blockend'
p4105
at(Nttba(lp4106
g56
(g64
(I0
tS'b'
tRp4107
(I1
(L3L
tg60
I00
(lp4108
g1
(g49
g3
NtRp4109
(dp4110
g52
g1
(g53
g3
NtRp4111
((lp4112
g56
(g57
(I0
tS'b'
tRp4113
((I1
(L1L
tg60
I00
(lp4114
S'_:$blockbegin_'
p4115
at(Nttba(lp4116
g56
(g64
(I0
tS'b'
tRp4117
(I1
(L1L
tg60
I00
(lp4118
g1
(g49
g3
NtRp4119
(dp4120
g52
g1
(g53
g3
NtRp4121
((lp4122
g56
(g57
(I0
tS'b'
tRp4123
((I1
(L0L
tg60
I00
(lt(Nttba(lp4124
g56
(g64
(I0
tS'b'
tRp4125
(I1
(L0L
tg60
I00
(ltba(lp4126
g56
(g57
(I0
tS'b'
tRp4127
((I1
(L0L
tg60
I00
(lt(Nttba(dp4128
g135
(dp4129
g137
g4122
sg138
(lp4130
(dp4131
g141
g56
(g64
(I0
tS'b'
tRp4132
(I1
(L0L
tg143
I00
S''
tbsg144
g4125
sasstbsg145
S':$blockbegin'
p4133
sbatba(lp4134
g56
(g57
(I0
tS'b'
tRp4135
((I1
(L1L
tg60
I00
(lp4136
g4115
at(Nttba(dp4137
g135
(dp4138
g137
g4112
sg138
(lp4139
(dp4140
g141
g178
(I0
I1
I1
tRp4141
sg144
g4117
sasstbsg145
g4103
sbag1
(g49
g3
NtRp4142
(dp4143
g52
g1
(g53
g3
NtRp4144
((lp4145
g56
(g57
(I0
tS'b'
tRp4146
((I1
(L1L
tg60
I00
(lp4147
S'Stmt'
p4148
at(Nttba(lp4149
g56
(g64
(I0
tS'b'
tRp4150
(I1
(L1L
tg60
I00
(lp4151
g1
(g49
g3
NtRp4152
(dp4153
g52
g1
(g53
g3
NtRp4154
((lp4155
g56
(g57
(I0
tS'b'
tRp4156
((I1
(L1L
tg60
I00
(lp4157
S'Single_stmt'
p4158
at(Nttba(lp4159
g56
(g64
(I0
tS'b'
tRp4160
(I1
(L1L
tg60
I00
(lp4161
g1
(g49
g3
NtRp4162
(dp4163
g52
g1
(g53
g3
NtRp4164
((lp4165
g56
(g57
(I0
tS'b'
tRp4166
((I1
(L2L
tg60
I00
(lp4167
S'Stmts'
p4168
aS'_;_'
p4169
at(Nttba(lp4170
g56
(g64
(I0
tS'b'
tRp4171
(I1
(L2L
tg60
I00
(lp4172
g1
(g49
g3
NtRp4173
(dp4174
g52
g1
(g53
g3
NtRp4175
((lp4176
g56
(g57
(I0
tS'b'
tRp4177
((I1
(L1L
tg60
I00
(lp4178
S'_pass_'
p4179
at(Nttba(lp4180
g56
(g64
(I0
tS'b'
tRp4181
(I1
(L1L
tg60
I00
(lp4182
g1
(g49
g3
NtRp4183
(dp4184
g52
g1
(g53
g3
NtRp4185
((lp4186
g56
(g57
(I0
tS'b'
tRp4187
((I1
(L0L
tg60
I00
(lt(Nttba(lp4188
g56
(g64
(I0
tS'b'
tRp4189
(I1
(L0L
tg60
I00
(ltba(lp4190
g56
(g57
(I0
tS'b'
tRp4191
((I1
(L0L
tg60
I00
(lt(Nttba(dp4192
g135
(dp4193
g137
g4186
sg138
(lp4194
(dp4195
g141
g56
(g64
(I0
tS'b'
tRp4196
(I1
(L0L
tg143
I00
S''
tbsg144
g4189
sasstbsg145
S'pass'
p4197
sbatba(lp4198
g56
(g57
(I0
tS'b'
tRp4199
((I1
(L1L
tg60
I00
(lp4200
g4179
at(Nttba(dp4201
g135
(dp4202
g137
g4176
sg138
(lp4203
(dp4204
g141
g178
(I0
I1
I1
tRp4205
sg144
g4181
sasstbsg145
g4168
sbag1
(g49
g3
NtRp4206
(dp4207
g52
g1
(g53
g3
NtRp4208
((lp4209
g56
(g57
(I0
tS'b'
tRp4210
((I1
(L0L
tg60
I00
(lt(Nttba(lp4211
g56
(g64
(I0
tS'b'
tRp4212
(I1
(L0L
tg60
I00
(ltba(lp4213
g56
(g57
(I0
tS'b'
tRp4214
((I1
(L0L
tg60
I00
(lt(Nttba(dp4215
g135
(dp4216
g137
g4209
sg138
(lp4217
(dp4218
g141
g56
(g64
(I0
tS'b'
tRp4219
(I1
(L0L
tg143
I00
S''
tbsg144
g4212
sasstbsg145
S';'
sbatba(lp4220
g56
(g57
(I0
tS'b'
tRp4221
((I1
(L2L
tg60
I00
(lp4222
g4168
ag4169
at(Nttba(dp4223
g135
(dp4224
g137
g4165
sg138
(lp4225
(dp4226
g141
g178
(I0
I2
I1
tRp4227
sg144
g4171
sasstbsg145
g4158
sbatba(lp4228
g56
(g57
(I0
tS'b'
tRp4229
((I1
(L1L
tg60
I00
(lp4230
g4158
at(Nttba(dp4231
g135
(dp4232
g137
g4155
sg138
(lp4233
(dp4234
g141
g178
(I0
I1
I1
tRp4235
sg144
g4160
sasstbsg145
g4148
sbatba(lp4236
g56
(g57
(I0
tS'b'
tRp4237
((I1
(L1L
tg60
I00
(lp4238
g4148
at(Nttba(dp4239
g135
(dp4240
g137
g4145
sg138
(lp4241
(dp4242
g141
g178
(I0
I1
I1
tRp4243
sg144
g4150
sasstbsg145
g4104
sbag1
(g49
g3
NtRp4244
(dp4245
g52
g1
(g53
g3
NtRp4246
((lp4247
g56
(g57
(I0
tS'b'
tRp4248
((I1
(L1L
tg60
I00
(lp4249
S'_$blockend_'
p4250
at(Nttba(lp4251
g56
(g64
(I0
tS'b'
tRp4252
(I1
(L1L
tg60
I00
(lp4253
g1
(g49
g3
NtRp4254
(dp4255
g52
g1
(g53
g3
NtRp4256
((lp4257
g56
(g57
(I0
tS'b'
tRp4258
((I1
(L0L
tg60
I00
(lt(Nttba(lp4259
g56
(g64
(I0
tS'b'
tRp4260
(I1
(L0L
tg60
I00
(ltba(lp4261
g56
(g57
(I0
tS'b'
tRp4262
((I1
(L0L
tg60
I00
(lt(Nttba(dp4263
g135
(dp4264
g137
g4257
sg138
(lp4265
(dp4266
g141
g56
(g64
(I0
tS'b'
tRp4267
(I1
(L0L
tg143
I00
S''
tbsg144
g4260
sasstbsg145
S'$blockend'
p4268
sbatba(lp4269
g56
(g57
(I0
tS'b'
tRp4270
((I1
(L1L
tg60
I00
(lp4271
g4250
at(Nttba(dp4272
g135
(dp4273
g137
g4247
sg138
(lp4274
(dp4275
g141
g178
(I0
I1
I1
tRp4276
sg144
g4252
sasstbsg145
g4105
sbatba(lp4277
g56
(g57
(I0
tS'b'
tRp4278
((I1
(L3L
tg60
I00
(lp4279
g4103
ag4104
ag4105
at(Nttba(dp4280
g135
(dp4281
g137
g4100
sg138
(lp4282
(dp4283
g141
g178
(I0
I3
I1
tRp4284
sg144
g4107
sasstbsg145
S'Block'
p4285
sbatba(lp4286
g56
(g57
(I0
tS'b'
tRp4287
((I1
(L4L
tg60
I00
(lp4288
g3025
ag3026
ag3027
ag3028
at(Nttba(dp4289
g135
(dp4290
g137
g3022
sg138
(lp4291
(dp4292
g141
g178
(I0
I4
I1
tRp4293
sg144
g3030
sasstbsg145
g3015
sbatba(lp4294
g56
(g57
(I0
tS'b'
tRp4295
((I1
(L1L
tg60
I00
(lp4296
g3015
at(Nttba(dp4297
g135
(dp4298
g137
g3012
sg138
(lp4299
(dp4300
g141
g178
(I0
I1
I1
tRp4301
sg144
g3017
sasstbsg145
g3005
sbatba(lp4302
g56
(g57
(I0
tS'b'
tRp4303
((I1
(L1L
tg60
I00
(lp4304
g3005
at(Nttba(dp4305
g135
(dp4306
g137
g3002
sg138
(lp4307
(dp4308
g141
g178
(I0
I1
I1
tRp4309
sg144
g3007
sasstbsg145
g2995
sbatba(lp4310
g56
(g57
(I0
tS'b'
tRp4311
((I1
(L1L
tg60
I00
(lp4312
g2995
at(Nttba(dp4313
g135
(dp4314
g137
g2992
sg138
(lp4315
(dp4316
g141
g178
(I0
I1
I1
tRp4317
sg144
g2997
sasstbsg145
g2951
sbag1
(g49
g3
NtRp4318
(dp4319
g52
g1
(g53
g3
NtRp4320
((lp4321
g56
(g57
(I0
tS'b'
tRp4322
((I1
(L1L
tg60
I00
(lp4323
S'_$blockend_'
p4324
at(Nttba(lp4325
g56
(g64
(I0
tS'b'
tRp4326
(I1
(L1L
tg60
I00
(lp4327
g1
(g49
g3
NtRp4328
(dp4329
g52
g1
(g53
g3
NtRp4330
((lp4331
g56
(g57
(I0
tS'b'
tRp4332
((I1
(L0L
tg60
I00
(lt(Nttba(lp4333
g56
(g64
(I0
tS'b'
tRp4334
(I1
(L0L
tg60
I00
(ltba(lp4335
g56
(g57
(I0
tS'b'
tRp4336
((I1
(L0L
tg60
I00
(lt(Nttba(dp4337
g135
(dp4338
g137
g4331
sg138
(lp4339
(dp4340
g141
g56
(g64
(I0
tS'b'
tRp4341
(I1
(L0L
tg143
I00
S''
tbsg144
g4334
sasstbsg145
S'$blockend'
p4342
sbatba(lp4343
g56
(g57
(I0
tS'b'
tRp4344
((I1
(L1L
tg60
I00
(lp4345
g4324
at(Nttba(dp4346
g135
(dp4347
g137
g4321
sg138
(lp4348
(dp4349
g141
g178
(I0
I1
I1
tRp4350
sg144
g4326
sasstbsg145
g2952
sbatba(lp4351
g56
(g57
(I0
tS'b'
tRp4352
((I1
(L3L
tg60
I00
(lp4353
g2950
ag2951
ag2952
at(Nttba(dp4354
g135
(dp4355
g137
g2947
sg138
(lp4356
(dp4357
g141
g178
(I0
I3
I1
tRp4358
sg144
g2954
sasstbsg145
g2355
sbatba(lp4359
g56
(g57
(I0
tS'b'
tRp4360
((I1
(L2L
tg60
I00
(lp4361
g2354
ag2355
at(Nttba(dp4362
g135
(dp4363
g137
g2351
sg138
(lp4364
(dp4365
g141
g178
(I0
I2
I1
tRp4366
sg144
g2357
sasstbsg145
g2344
sbatba(lp4367
g56
(g57
(I0
tS'b'
tRp4368
((I1
(L1L
tg60
I00
(lp4369
g2344
at(Nttba(dp4370
g135
(dp4371
g137
g2341
sg138
(lp4372
(dp4373
g141
g178
(I0
I1
I1
tRp4374
sg144
g2346
sasstbsg145
S'Stmt'
p4375
sbag1
(g49
g3
NtRp4376
(dp4377
g52
g1
(g53
g3
NtRp4378
((lp4379
g56
(g57
(I0
tS'b'
tRp4380
((I1
(L1L
tg60
I00
(lp4381
S'Single_stmt'
p4382
at(Nttba(lp4383
g56
(g64
(I0
tS'b'
tRp4384
(I1
(L1L
tg60
I00
(lp4385
g1
(g49
g3
NtRp4386
(dp4387
g52
g1
(g53
g3
NtRp4388
((lp4389
g56
(g57
(I0
tS'b'
tRp4390
((I1
(L2L
tg60
I00
(lp4391
S'Stmts'
p4392
aS'_;_'
p4393
at(Nttba(lp4394
g56
(g64
(I0
tS'b'
tRp4395
(I1
(L2L
tg60
I00
(lp4396
g1
(g49
g3
NtRp4397
(dp4398
g52
g1
(g53
g3
NtRp4399
((lp4400
g56
(g57
(I0
tS'b'
tRp4401
((I1
(L2L
tg60
I00
(lp4402
S'_print_'
p4403
aS'Exprlist'
p4404
at(Nttba(lp4405
g56
(g64
(I0
tS'b'
tRp4406
(I1
(L2L
tg60
I00
(lp4407
g1
(g49
g3
NtRp4408
(dp4409
g52
g1
(g53
g3
NtRp4410
((lp4411
g56
(g57
(I0
tS'b'
tRp4412
((I1
(L0L
tg60
I00
(lt(Nttba(lp4413
g56
(g64
(I0
tS'b'
tRp4414
(I1
(L0L
tg60
I00
(ltba(lp4415
g56
(g57
(I0
tS'b'
tRp4416
((I1
(L0L
tg60
I00
(lt(Nttba(dp4417
g135
(dp4418
g137
g4411
sg138
(lp4419
(dp4420
g141
g56
(g64
(I0
tS'b'
tRp4421
(I1
(L0L
tg143
I00
S''
tbsg144
g4414
sasstbsg145
S'print'
p4422
sbag1
(g49
g3
NtRp4423
(dp4424
g52
g1
(g53
g3
NtRp4425
((lp4426
g56
(g57
(I0
tS'b'
tRp4427
((I1
(L1L
tg60
I00
(lp4428
S'Expr'
p4429
at(Nttba(lp4430
g56
(g64
(I0
tS'b'
tRp4431
(I1
(L1L
tg60
I00
(lp4432
g1
(g49
g3
NtRp4433
(dp4434
g52
g1
(g53
g3
NtRp4435
((lp4436
g56
(g57
(I0
tS'b'
tRp4437
((I1
(L1L
tg60
I00
(lp4438
S'Val'
p4439
at(Nttba(lp4440
g56
(g64
(I0
tS'b'
tRp4441
(I1
(L1L
tg60
I00
(lp4442
g1
(g49
g3
NtRp4443
(dp4444
g52
g1
(g53
g3
NtRp4445
((lp4446
g56
(g57
(I0
tS'b'
tRp4447
((I1
(L1L
tg60
I00
(lp4448
S'Var'
p4449
at(Nttba(lp4450
g56
(g64
(I0
tS'b'
tRp4451
(I1
(L1L
tg60
I00
(lp4452
g1
(g49
g3
NtRp4453
(dp4454
g52
g1
(g53
g3
NtRp4455
((lp4456
g56
(g57
(I0
tS'b'
tRp4457
((I1
(L1L
tg60
I00
(lp4458
S'_L_'
p4459
at(Nttba(lp4460
g56
(g64
(I0
tS'b'
tRp4461
(I1
(L1L
tg60
I00
(lp4462
g1
(g49
g3
NtRp4463
(dp4464
g52
g1
(g53
g3
NtRp4465
((lp4466
g56
(g57
(I0
tS'b'
tRp4467
((I1
(L0L
tg60
I00
(lt(Nttba(lp4468
g56
(g64
(I0
tS'b'
tRp4469
(I1
(L0L
tg60
I00
(ltba(lp4470
g56
(g57
(I0
tS'b'
tRp4471
((I1
(L0L
tg60
I00
(lt(Nttba(dp4472
g135
(dp4473
g137
g4466
sg138
(lp4474
(dp4475
g141
g56
(g64
(I0
tS'b'
tRp4476
(I1
(L0L
tg143
I00
S''
tbsg144
g4469
sasstbsg145
S'L'
sbatba(lp4477
g56
(g57
(I0
tS'b'
tRp4478
((I1
(L1L
tg60
I00
(lp4479
g4459
at(Nttba(dp4480
g135
(dp4481
g137
g4456
sg138
(lp4482
(dp4483
g141
g178
(I0
I1
I1
tRp4484
sg144
g4461
sasstbsg145
g4449
sbatba(lp4485
g56
(g57
(I0
tS'b'
tRp4486
((I1
(L1L
tg60
I00
(lp4487
g4449
at(Nttba(dp4488
g135
(dp4489
g137
g4446
sg138
(lp4490
(dp4491
g141
g178
(I0
I1
I1
tRp4492
sg144
g4451
sasstbsg145
g4439
sbatba(lp4493
g56
(g57
(I0
tS'b'
tRp4494
((I1
(L1L
tg60
I00
(lp4495
g4439
at(Nttba(dp4496
g135
(dp4497
g137
g4436
sg138
(lp4498
(dp4499
g141
g178
(I0
I1
I1
tRp4500
sg144
g4441
sasstbsg145
g4429
sbatba(lp4501
g56
(g57
(I0
tS'b'
tRp4502
((I1
(L1L
tg60
I00
(lp4503
g4429
at(Nttba(dp4504
g135
(dp4505
g137
g4426
sg138
(lp4506
(dp4507
g141
g178
(I0
I1
I1
tRp4508
sg144
g4431
sasstbsg145
g4404
sbatba(lp4509
g56
(g57
(I0
tS'b'
tRp4510
((I1
(L2L
tg60
I00
(lp4511
g4403
ag4404
at(Nttba(dp4512
g135
(dp4513
g137
g4400
sg138
(lp4514
(dp4515
g141
g178
(I0
I2
I1
tRp4516
sg144
g4406
sasstbsg145
g4392
sbag1
(g49
g3
NtRp4517
(dp4518
g52
g1
(g53
g3
NtRp4519
((lp4520
g56
(g57
(I0
tS'b'
tRp4521
((I1
(L0L
tg60
I00
(lt(Nttba(lp4522
g56
(g64
(I0
tS'b'
tRp4523
(I1
(L0L
tg60
I00
(ltba(lp4524
g56
(g57
(I0
tS'b'
tRp4525
((I1
(L0L
tg60
I00
(lt(Nttba(dp4526
g135
(dp4527
g137
g4520
sg138
(lp4528
(dp4529
g141
g56
(g64
(I0
tS'b'
tRp4530
(I1
(L0L
tg143
I00
S''
tbsg144
g4523
sasstbsg145
S';'
sbatba(lp4531
g56
(g57
(I0
tS'b'
tRp4532
((I1
(L2L
tg60
I00
(lp4533
g4392
ag4393
at(Nttba(dp4534
g135
(dp4535
g137
g4389
sg138
(lp4536
(dp4537
g141
g178
(I0
I2
I1
tRp4538
sg144
g4395
sasstbsg145
g4382
sbatba(lp4539
g56
(g57
(I0
tS'b'
tRp4540
((I1
(L1L
tg60
I00
(lp4541
g4382
at(Nttba(dp4542
g135
(dp4543
g137
g4379
sg138
(lp4544
(dp4545
g141
g178
(I0
I1
I1
tRp4546
sg144
g4384
sasstbsg145
S'Stmt'
p4547
sbatba(lp4548
g56
(g57
(I0
tS'b'
tRp4549
((I1
(L4L
tg60
I00
(lp4550
g73
ag74
ag75
ag76
at(Nttba(dp4551
g135
(dp4552
g137
g70
sg138
(lp4553
(dp4554
g141
g178
(I0
I4
I1
tRp4555
sg144
g78
sasstbsg145
g62
sbatba(lp4556
g56
(g57
(I0
tS'b'
tRp4557
((I1
(L1L
tg60
I00
(lp4558
g62
at(Nttba(dp4559
g135
(dp4560
g137
g55
sg138
(lp4561
(dp4562
g141
g178
(I0
I1
I1
tRp4563
sg144
g65
sasstbsg145
g48
sbsS'pos'
p4564
g50
sb.