ccopy_reg
_reconstructor
p1
(ctree
Tree
p2
c__builtin__
object
p3
NtRp4
(dp5
S'patterns'
p6
c__builtin__
set
p7
((ltRp8
sS'root'
p9
g1
(ctree
vertex
p10
g3
NtRp11
(dp12
S'_data'
p13
g1
(cpandas.core.internals
SingleBlockManager
p14
g3
NtRp15
((lp16
cnumpy.core.multiarray
_reconstruct
p17
(cpandas.core.index
Index
p18
(I0
tS'b'
tRp19
((I1
(L1L
tcnumpy
dtype
p20
(S'O8'
I0
I1
tRp21
(I3
S'|'
NNNI-1
I-1
I63
tbI00
(lp22
S'Prog'
p23
at(Nttba(lp24
g17
(cnumpy
ndarray
p25
(I0
tS'b'
tRp26
(I1
(L1L
tg21
I00
(lp27
g1
(g10
g3
NtRp28
(dp29
g13
g1
(g14
g3
NtRp30
((lp31
g17
(g18
(I0
tS'b'
tRp32
((I1
(L4L
tg21
I00
(lp33
S'Stmt1'
p34
aS'Stmt2'
p35
aS'Stmt3'
p36
aS'Stmt4'
p37
at(Nttba(lp38
g17
(g25
(I0
tS'b'
tRp39
(I1
(L4L
tg21
I00
(lp40
g1
(g10
g3
NtRp41
(dp42
g13
g1
(g14
g3
NtRp43
((lp44
g17
(g18
(I0
tS'b'
tRp45
((I1
(L1L
tg21
I00
(lp46
S'Single_stmt'
p47
at(Nttba(lp48
g17
(g25
(I0
tS'b'
tRp49
(I1
(L1L
tg21
I00
(lp50
g1
(g10
g3
NtRp51
(dp52
g13
g1
(g14
g3
NtRp53
((lp54
g17
(g18
(I0
tS'b'
tRp55
((I1
(L2L
tg21
I00
(lp56
S'Exprlist'
p57
aS'_;_'
p58
at(Nttba(lp59
g17
(g25
(I0
tS'b'
tRp60
(I1
(L2L
tg21
I00
(lp61
g1
(g10
g3
NtRp62
(dp63
g13
g1
(g14
g3
NtRp64
((lp65
g17
(g18
(I0
tS'b'
tRp66
((I1
(L1L
tg21
I00
(lp67
S'Expr'
p68
at(Nttba(lp69
g17
(g25
(I0
tS'b'
tRp70
(I1
(L1L
tg21
I00
(lp71
g1
(g10
g3
NtRp72
(dp73
g13
g1
(g14
g3
NtRp74
((lp75
g17
(g18
(I0
tS'b'
tRp76
((I1
(L1L
tg21
I00
(lp77
S'Val'
p78
at(Nttba(lp79
g17
(g25
(I0
tS'b'
tRp80
(I1
(L1L
tg21
I00
(lp81
g1
(g10
g3
NtRp82
(dp83
g13
g1
(g14
g3
NtRp84
((lp85
g17
(g18
(I0
tS'b'
tRp86
((I1
(L1L
tg21
I00
(lp87
S'String'
p88
at(Nttba(lp89
g17
(g25
(I0
tS'b'
tRp90
(I1
(L1L
tg21
I00
(lp91
g1
(g10
g3
NtRp92
(dp93
g13
g1
(g14
g3
NtRp94
((lp95
g17
(g18
(I0
tS'b'
tRp96
((I1
(L1L
tg21
I00
(lp97
S'Str_val'
p98
at(Nttba(lp99
g17
(g25
(I0
tS'b'
tRp100
(I1
(L1L
tg21
I00
(lp101
g1
(g10
g3
NtRp102
(dp103
g13
g1
(g14
g3
NtRp104
((lp105
g17
(g18
(I0
tS'b'
tRp106
((I1
(L1L
tg21
I00
(lp107
S'_"""\r\nTestprogramm fuer codegen\r\n"""_'
p108
at(Nttba(lp109
g17
(g25
(I0
tS'b'
tRp110
(I1
(L1L
tg21
I00
(lp111
g1
(g10
g3
NtRp112
(dp113
g13
g1
(g14
g3
NtRp114
((lp115
g17
(g18
(I0
tS'b'
tRp116
((I1
(L0L
tg21
I00
(lt(Nttba(lp117
g17
(g25
(I0
tS'b'
tRp118
(I1
(L0L
tg21
I00
(ltba(lp119
g116
atbsS'name'
p120
S'"\nTestprogramm fuer codegen\n"'
p121
sbatba(lp122
g106
atbsg120
g98
sbatba(lp123
g96
atbsg120
g88
sbatba(lp124
g86
atbsg120
g78
sbatba(lp125
g17
(g18
(I0
tS'b'
tRp126
((I1
(L1L
tg21
I00
(lp127
g78
at(Nttbatbsg120
S'Expr'
p128
sbatba(lp129
g66
atbsg120
g57
sbag1
(g10
g3
NtRp130
(dp131
g13
g1
(g14
g3
NtRp132
((lp133
g17
(g18
(I0
tS'b'
tRp134
((I1
(L0L
tg21
I00
(lt(Nttba(lp135
g17
(g25
(I0
tS'b'
tRp136
(I1
(L0L
tg21
I00
(ltba(lp137
g134
atbsg120
S';'
sbatba(lp138
g55
atbsg120
g47
sbatba(lp139
g45
atbsg120
S'Stmt'
p140
sbag1
(g10
g3
NtRp141
(dp142
g13
g1
(g14
g3
NtRp143
((lp144
g17
(g18
(I0
tS'b'
tRp145
((I1
(L1L
tg21
I00
(lp146
S'Block_stmt'
p147
at(Nttba(lp148
g17
(g25
(I0
tS'b'
tRp149
(I1
(L1L
tg21
I00
(lp150
g1
(g10
g3
NtRp151
(dp152
g13
g1
(g14
g3
NtRp153
((lp154
g17
(g18
(I0
tS'b'
tRp155
((I1
(L2L
tg21
I00
(lp156
S'Block_head'
p157
aS'Block'
p158
at(Nttba(lp159
g17
(g25
(I0
tS'b'
tRp160
(I1
(L2L
tg21
I00
(lp161
g1
(g10
g3
NtRp162
(dp163
g13
g1
(g14
g3
NtRp164
((lp165
g17
(g18
(I0
tS'b'
tRp166
((I1
(L1L
tg21
I00
(lp167
S'Func'
p168
at(Nttba(lp169
g17
(g25
(I0
tS'b'
tRp170
(I1
(L1L
tg21
I00
(lp171
g1
(g10
g3
NtRp172
(dp173
g13
g1
(g14
g3
NtRp174
((lp175
g17
(g18
(I0
tS'b'
tRp176
((I1
(L5L
tg21
I00
(lp177
S'_def_'
p178
aS'Id'
p179
aS'_(_'
p180
aS'Paramlist'
p181
aS'_)_'
p182
at(Nttba(lp183
g17
(g25
(I0
tS'b'
tRp184
(I1
(L5L
tg21
I00
(lp185
g1
(g10
g3
NtRp186
(dp187
g13
g1
(g14
g3
NtRp188
((lp189
g17
(g18
(I0
tS'b'
tRp190
((I1
(L0L
tg21
I00
(lt(Nttba(lp191
g17
(g25
(I0
tS'b'
tRp192
(I1
(L0L
tg21
I00
(ltba(lp193
g190
atbsg120
S'def'
p194
sbag1
(g10
g3
NtRp195
(dp196
g13
g1
(g14
g3
NtRp197
((lp198
g17
(g18
(I0
tS'b'
tRp199
((I1
(L1L
tg21
I00
(lp200
S'_f_'
p201
at(Nttba(lp202
g17
(g25
(I0
tS'b'
tRp203
(I1
(L1L
tg21
I00
(lp204
g1
(g10
g3
NtRp205
(dp206
g13
g1
(g14
g3
NtRp207
((lp208
g17
(g18
(I0
tS'b'
tRp209
((I1
(L0L
tg21
I00
(lt(Nttba(lp210
g17
(g25
(I0
tS'b'
tRp211
(I1
(L0L
tg21
I00
(ltba(lp212
g209
atbsg120
S'f'
sbatba(lp213
g199
atbsg120
g179
sbag1
(g10
g3
NtRp214
(dp215
g13
g1
(g14
g3
NtRp216
((lp217
g17
(g18
(I0
tS'b'
tRp218
((I1
(L0L
tg21
I00
(lt(Nttba(lp219
g17
(g25
(I0
tS'b'
tRp220
(I1
(L0L
tg21
I00
(ltba(lp221
g218
atbsg120
S'('
sbag1
(g10
g3
NtRp222
(dp223
g13
g1
(g14
g3
NtRp224
((lp225
g17
(g18
(I0
tS'b'
tRp226
((I1
(L1L
tg21
I00
(lp227
S'Pos_paramlist'
p228
at(Nttba(lp229
g17
(g25
(I0
tS'b'
tRp230
(I1
(L1L
tg21
I00
(lp231
g1
(g10
g3
NtRp232
(dp233
g13
g1
(g14
g3
NtRp234
((lp235
g17
(g18
(I0
tS'b'
tRp236
((I1
(L1L
tg21
I00
(lp237
S'Pos_paramtuple'
p238
at(Nttba(lp239
g17
(g25
(I0
tS'b'
tRp240
(I1
(L1L
tg21
I00
(lp241
g1
(g10
g3
NtRp242
(dp243
g13
g1
(g14
g3
NtRp244
((lp245
g17
(g18
(I0
tS'b'
tRp246
((I1
(L1L
tg21
I00
(lp247
S'Simple_var'
p248
at(Nttba(lp249
g17
(g25
(I0
tS'b'
tRp250
(I1
(L1L
tg21
I00
(lp251
g1
(g10
g3
NtRp252
(dp253
g13
g1
(g14
g3
NtRp254
((lp255
g17
(g18
(I0
tS'b'
tRp256
((I1
(L1L
tg21
I00
(lp257
S'Id'
p258
at(Nttba(lp259
g17
(g25
(I0
tS'b'
tRp260
(I1
(L1L
tg21
I00
(lp261
g1
(g10
g3
NtRp262
(dp263
g13
g1
(g14
g3
NtRp264
((lp265
g17
(g18
(I0
tS'b'
tRp266
((I1
(L1L
tg21
I00
(lp267
S'_x_'
p268
at(Nttba(lp269
g17
(g25
(I0
tS'b'
tRp270
(I1
(L1L
tg21
I00
(lp271
g1
(g10
g3
NtRp272
(dp273
g13
g1
(g14
g3
NtRp274
((lp275
g17
(g18
(I0
tS'b'
tRp276
((I1
(L0L
tg21
I00
(lt(Nttba(lp277
g17
(g25
(I0
tS'b'
tRp278
(I1
(L0L
tg21
I00
(ltba(lp279
g276
atbsg120
S'x'
sbatba(lp280
g266
atbsg120
g258
sbatba(lp281
g256
atbsg120
g248
sbatba(lp282
g246
atbsg120
g238
sbatba(lp283
g236
atbsg120
g228
sbatba(lp284
g226
atbsg120
g181
sbag1
(g10
g3
NtRp285
(dp286
g13
g1
(g14
g3
NtRp287
((lp288
g17
(g18
(I0
tS'b'
tRp289
((I1
(L0L
tg21
I00
(lt(Nttba(lp290
g17
(g25
(I0
tS'b'
tRp291
(I1
(L0L
tg21
I00
(ltba(lp292
g289
atbsg120
S')'
sbatba(lp293
g176
atbsg120
g168
sbatba(lp294
g166
atbsg120
g157
sbag1
(g10
g3
NtRp295
(dp296
g13
g1
(g14
g3
NtRp297
((lp298
g17
(g18
(I0
tS'b'
tRp299
((I1
(L3L
tg21
I00
(lp300
S'Blockbegin'
p301
aS'Prog'
p302
aS'Blockend'
p303
at(Nttba(lp304
g17
(g25
(I0
tS'b'
tRp305
(I1
(L3L
tg21
I00
(lp306
g1
(g10
g3
NtRp307
(dp308
g13
g1
(g14
g3
NtRp309
((lp310
g17
(g18
(I0
tS'b'
tRp311
((I1
(L1L
tg21
I00
(lp312
S'_:$blockbegin_'
p313
at(Nttba(lp314
g17
(g25
(I0
tS'b'
tRp315
(I1
(L1L
tg21
I00
(lp316
g1
(g10
g3
NtRp317
(dp318
g13
g1
(g14
g3
NtRp319
((lp320
g17
(g18
(I0
tS'b'
tRp321
((I1
(L0L
tg21
I00
(lt(Nttba(lp322
g17
(g25
(I0
tS'b'
tRp323
(I1
(L0L
tg21
I00
(ltba(lp324
g321
atbsg120
S':$blockbegin'
p325
sbatba(lp326
g311
atbsg120
g301
sbag1
(g10
g3
NtRp327
(dp328
g13
g1
(g14
g3
NtRp329
((lp330
g17
(g18
(I0
tS'b'
tRp331
((I1
(L2L
tg21
I00
(lp332
S'Stmt1'
p333
aS'Stmt2'
p334
at(Nttba(lp335
g17
(g25
(I0
tS'b'
tRp336
(I1
(L2L
tg21
I00
(lp337
g1
(g10
g3
NtRp338
(dp339
g13
g1
(g14
g3
NtRp340
((lp341
g17
(g18
(I0
tS'b'
tRp342
((I1
(L1L
tg21
I00
(lp343
S'Single_stmt'
p344
at(Nttba(lp345
g17
(g25
(I0
tS'b'
tRp346
(I1
(L1L
tg21
I00
(lp347
g1
(g10
g3
NtRp348
(dp349
g13
g1
(g14
g3
NtRp350
((lp351
g17
(g18
(I0
tS'b'
tRp352
((I1
(L2L
tg21
I00
(lp353
S'Exprlist'
p354
aS'_;_'
p355
at(Nttba(lp356
g17
(g25
(I0
tS'b'
tRp357
(I1
(L2L
tg21
I00
(lp358
g1
(g10
g3
NtRp359
(dp360
g13
g1
(g14
g3
NtRp361
((lp362
g17
(g18
(I0
tS'b'
tRp363
((I1
(L1L
tg21
I00
(lp364
S'Expr'
p365
at(Nttba(lp366
g17
(g25
(I0
tS'b'
tRp367
(I1
(L1L
tg21
I00
(lp368
g1
(g10
g3
NtRp369
(dp370
g13
g1
(g14
g3
NtRp371
((lp372
g17
(g18
(I0
tS'b'
tRp373
((I1
(L1L
tg21
I00
(lp374
S'Val'
p375
at(Nttba(lp376
g17
(g25
(I0
tS'b'
tRp377
(I1
(L1L
tg21
I00
(lp378
g1
(g10
g3
NtRp379
(dp380
g13
g1
(g14
g3
NtRp381
((lp382
g17
(g18
(I0
tS'b'
tRp383
((I1
(L1L
tg21
I00
(lp384
S'String'
p385
at(Nttba(lp386
g17
(g25
(I0
tS'b'
tRp387
(I1
(L1L
tg21
I00
(lp388
g1
(g10
g3
NtRp389
(dp390
g13
g1
(g14
g3
NtRp391
((lp392
g17
(g18
(I0
tS'b'
tRp393
((I1
(L1L
tg21
I00
(lp394
S'Str_val'
p395
at(Nttba(lp396
g17
(g25
(I0
tS'b'
tRp397
(I1
(L1L
tg21
I00
(lp398
g1
(g10
g3
NtRp399
(dp400
g13
g1
(g14
g3
NtRp401
((lp402
g17
(g18
(I0
tS'b'
tRp403
((I1
(L1L
tg21
I00
(lp404
S'_"""rechnen"""_'
p405
at(Nttba(lp406
g17
(g25
(I0
tS'b'
tRp407
(I1
(L1L
tg21
I00
(lp408
g1
(g10
g3
NtRp409
(dp410
g13
g1
(g14
g3
NtRp411
((lp412
g17
(g18
(I0
tS'b'
tRp413
((I1
(L0L
tg21
I00
(lt(Nttba(lp414
g17
(g25
(I0
tS'b'
tRp415
(I1
(L0L
tg21
I00
(ltba(lp416
g413
atbsg120
S'"rechnen"'
p417
sbatba(lp418
g403
atbsg120
g395
sbatba(lp419
g393
atbsg120
g385
sbatba(lp420
g383
atbsg120
g375
sbatba(lp421
g17
(g18
(I0
tS'b'
tRp422
((I1
(L1L
tg21
I00
(lp423
g375
at(Nttbatbsg120
S'Expr'
p424
sbatba(lp425
g363
atbsg120
g354
sbag1
(g10
g3
NtRp426
(dp427
g13
g1
(g14
g3
NtRp428
((lp429
g17
(g18
(I0
tS'b'
tRp430
((I1
(L0L
tg21
I00
(lt(Nttba(lp431
g17
(g25
(I0
tS'b'
tRp432
(I1
(L0L
tg21
I00
(ltba(lp433
g430
atbsg120
S';'
sbatba(lp434
g352
atbsg120
g344
sbatba(lp435
g342
atbsg120
S'Stmt'
p436
sbag1
(g10
g3
NtRp437
(dp438
g13
g1
(g14
g3
NtRp439
((lp440
g17
(g18
(I0
tS'b'
tRp441
((I1
(L1L
tg21
I00
(lp442
S'Single_stmt'
p443
at(Nttba(lp444
g17
(g25
(I0
tS'b'
tRp445
(I1
(L1L
tg21
I00
(lp446
g1
(g10
g3
NtRp447
(dp448
g13
g1
(g14
g3
NtRp449
((lp450
g17
(g18
(I0
tS'b'
tRp451
((I1
(L2L
tg21
I00
(lp452
S'Func_stmt'
p453
aS'_;_'
p454
at(Nttba(lp455
g17
(g25
(I0
tS'b'
tRp456
(I1
(L2L
tg21
I00
(lp457
g1
(g10
g3
NtRp458
(dp459
g13
g1
(g14
g3
NtRp460
((lp461
g17
(g18
(I0
tS'b'
tRp462
((I1
(L2L
tg21
I00
(lp463
S'_return_'
p464
aS'Exprlist'
p465
at(Nttba(lp466
g17
(g25
(I0
tS'b'
tRp467
(I1
(L2L
tg21
I00
(lp468
g1
(g10
g3
NtRp469
(dp470
g13
g1
(g14
g3
NtRp471
((lp472
g17
(g18
(I0
tS'b'
tRp473
((I1
(L0L
tg21
I00
(lt(Nttba(lp474
g17
(g25
(I0
tS'b'
tRp475
(I1
(L0L
tg21
I00
(ltba(lp476
g473
atbsg120
S'return'
p477
sbag1
(g10
g3
NtRp478
(dp479
g13
g1
(g14
g3
NtRp480
((lp481
g17
(g18
(I0
tS'b'
tRp482
((I1
(L1L
tg21
I00
(lp483
S'Expr'
p484
at(Nttba(lp485
g17
(g25
(I0
tS'b'
tRp486
(I1
(L1L
tg21
I00
(lp487
g1
(g10
g3
NtRp488
(dp489
g13
g1
(g14
g3
NtRp490
((lp491
g17
(g18
(I0
tS'b'
tRp492
((I1
(L1L
tg21
I00
(lp493
S'Dash_calc'
p494
at(Nttba(lp495
g17
(g25
(I0
tS'b'
tRp496
(I1
(L1L
tg21
I00
(lp497
g1
(g10
g3
NtRp498
(dp499
g13
g1
(g14
g3
NtRp500
((lp501
g17
(g18
(I0
tS'b'
tRp502
((I1
(L3L
tg21
I00
(lp503
S'Expr1'
p504
aS'_+_'
p505
aS'Expr2'
p506
at(Nttba(lp507
g17
(g25
(I0
tS'b'
tRp508
(I1
(L3L
tg21
I00
(lp509
g1
(g10
g3
NtRp510
(dp511
g13
g1
(g14
g3
NtRp512
((lp513
g17
(g18
(I0
tS'b'
tRp514
((I1
(L1L
tg21
I00
(lp515
S'Dash_calc'
p516
at(Nttba(lp517
g17
(g25
(I0
tS'b'
tRp518
(I1
(L1L
tg21
I00
(lp519
g1
(g10
g3
NtRp520
(dp521
g13
g1
(g14
g3
NtRp522
((lp523
g17
(g18
(I0
tS'b'
tRp524
((I1
(L3L
tg21
I00
(lp525
S'Expr1'
p526
aS'_+_'
p527
aS'Expr2'
p528
at(Nttba(lp529
g17
(g25
(I0
tS'b'
tRp530
(I1
(L3L
tg21
I00
(lp531
g1
(g10
g3
NtRp532
(dp533
g13
g1
(g14
g3
NtRp534
((lp535
g17
(g18
(I0
tS'b'
tRp536
((I1
(L1L
tg21
I00
(lp537
S'Dash_calc'
p538
at(Nttba(lp539
g17
(g25
(I0
tS'b'
tRp540
(I1
(L1L
tg21
I00
(lp541
g1
(g10
g3
NtRp542
(dp543
g13
g1
(g14
g3
NtRp544
((lp545
g17
(g18
(I0
tS'b'
tRp546
((I1
(L3L
tg21
I00
(lp547
S'Expr1'
p548
aS'_-_'
p549
aS'Expr2'
p550
at(Nttba(lp551
g17
(g25
(I0
tS'b'
tRp552
(I1
(L3L
tg21
I00
(lp553
g1
(g10
g3
NtRp554
(dp555
g13
g1
(g14
g3
NtRp556
((lp557
g17
(g18
(I0
tS'b'
tRp558
((I1
(L1L
tg21
I00
(lp559
S'Dash_calc'
p560
at(Nttba(lp561
g17
(g25
(I0
tS'b'
tRp562
(I1
(L1L
tg21
I00
(lp563
g1
(g10
g3
NtRp564
(dp565
g13
g1
(g14
g3
NtRp566
((lp567
g17
(g18
(I0
tS'b'
tRp568
((I1
(L3L
tg21
I00
(lp569
S'Expr1'
p570
aS'_-_'
p571
aS'Expr2'
p572
at(Nttba(lp573
g17
(g25
(I0
tS'b'
tRp574
(I1
(L3L
tg21
I00
(lp575
g1
(g10
g3
NtRp576
(dp577
g13
g1
(g14
g3
NtRp578
((lp579
g17
(g18
(I0
tS'b'
tRp580
((I1
(L1L
tg21
I00
(lp581
S'Dash_calc'
p582
at(Nttba(lp583
g17
(g25
(I0
tS'b'
tRp584
(I1
(L1L
tg21
I00
(lp585
g1
(g10
g3
NtRp586
(dp587
g13
g1
(g14
g3
NtRp588
((lp589
g17
(g18
(I0
tS'b'
tRp590
((I1
(L3L
tg21
I00
(lp591
S'Expr1'
p592
aS'_+_'
p593
aS'Expr2'
p594
at(Nttba(lp595
g17
(g25
(I0
tS'b'
tRp596
(I1
(L3L
tg21
I00
(lp597
g1
(g10
g3
NtRp598
(dp599
g13
g1
(g14
g3
NtRp600
((lp601
g17
(g18
(I0
tS'b'
tRp602
((I1
(L1L
tg21
I00
(lp603
S'Exponentiation'
p604
at(Nttba(lp605
g17
(g25
(I0
tS'b'
tRp606
(I1
(L1L
tg21
I00
(lp607
g1
(g10
g3
NtRp608
(dp609
g13
g1
(g14
g3
NtRp610
((lp611
g17
(g18
(I0
tS'b'
tRp612
((I1
(L3L
tg21
I00
(lp613
S'Expr1'
p614
aS'_**_'
p615
aS'Expr2'
p616
at(Nttba(lp617
g17
(g25
(I0
tS'b'
tRp618
(I1
(L3L
tg21
I00
(lp619
g1
(g10
g3
NtRp620
(dp621
g13
g1
(g14
g3
NtRp622
((lp623
g17
(g18
(I0
tS'b'
tRp624
((I1
(L1L
tg21
I00
(lp625
S'Val'
p626
at(Nttba(lp627
g17
(g25
(I0
tS'b'
tRp628
(I1
(L1L
tg21
I00
(lp629
g1
(g10
g3
NtRp630
(dp631
g13
g1
(g14
g3
NtRp632
((lp633
g17
(g18
(I0
tS'b'
tRp634
((I1
(L1L
tg21
I00
(lp635
S'Var'
p636
at(Nttba(lp637
g17
(g25
(I0
tS'b'
tRp638
(I1
(L1L
tg21
I00
(lp639
g1
(g10
g3
NtRp640
(dp641
g13
g1
(g14
g3
NtRp642
((lp643
g17
(g18
(I0
tS'b'
tRp644
((I1
(L1L
tg21
I00
(lp645
S'Id'
p646
at(Nttba(lp647
g17
(g25
(I0
tS'b'
tRp648
(I1
(L1L
tg21
I00
(lp649
g1
(g10
g3
NtRp650
(dp651
g13
g1
(g14
g3
NtRp652
((lp653
g17
(g18
(I0
tS'b'
tRp654
((I1
(L1L
tg21
I00
(lp655
S'_x_'
p656
at(Nttba(lp657
g17
(g25
(I0
tS'b'
tRp658
(I1
(L1L
tg21
I00
(lp659
g1
(g10
g3
NtRp660
(dp661
g13
g1
(g14
g3
NtRp662
((lp663
g17
(g18
(I0
tS'b'
tRp664
((I1
(L0L
tg21
I00
(lt(Nttba(lp665
g17
(g25
(I0
tS'b'
tRp666
(I1
(L0L
tg21
I00
(ltba(lp667
g664
atbsg120
S'x'
sbatba(lp668
g654
atbsg120
g646
sbatba(lp669
g644
atbsg120
g636
sbatba(lp670
g634
atbsg120
g626
sbatba(lp671
g17
(g18
(I0
tS'b'
tRp672
((I1
(L1L
tg21
I00
(lp673
g626
at(Nttbatbsg120
S'Expr'
p674
sbag1
(g10
g3
NtRp675
(dp676
g13
g1
(g14
g3
NtRp677
((lp678
g17
(g18
(I0
tS'b'
tRp679
((I1
(L0L
tg21
I00
(lt(Nttba(lp680
g17
(g25
(I0
tS'b'
tRp681
(I1
(L0L
tg21
I00
(ltba(lp682
g679
atbsg120
S'**'
p683
sbag1
(g10
g3
NtRp684
(dp685
g13
g1
(g14
g3
NtRp686
((lp687
g17
(g18
(I0
tS'b'
tRp688
((I1
(L1L
tg21
I00
(lp689
S'Val'
p690
at(Nttba(lp691
g17
(g25
(I0
tS'b'
tRp692
(I1
(L1L
tg21
I00
(lp693
g1
(g10
g3
NtRp694
(dp695
g13
g1
(g14
g3
NtRp696
((lp697
g17
(g18
(I0
tS'b'
tRp698
((I1
(L1L
tg21
I00
(lp699
S'Number'
p700
at(Nttba(lp701
g17
(g25
(I0
tS'b'
tRp702
(I1
(L1L
tg21
I00
(lp703
g1
(g10
g3
NtRp704
(dp705
g13
g1
(g14
g3
NtRp706
((lp707
g17
(g18
(I0
tS'b'
tRp708
((I1
(L1L
tg21
I00
(lp709
S'Int'
p710
at(Nttba(lp711
g17
(g25
(I0
tS'b'
tRp712
(I1
(L1L
tg21
I00
(lp713
g1
(g10
g3
NtRp714
(dp715
g13
g1
(g14
g3
NtRp716
((lp717
g17
(g18
(I0
tS'b'
tRp718
((I1
(L1L
tg21
I00
(lp719
S'_2_'
p720
at(Nttba(lp721
g17
(g25
(I0
tS'b'
tRp722
(I1
(L1L
tg21
I00
(lp723
g1
(g10
g3
NtRp724
(dp725
g13
g1
(g14
g3
NtRp726
((lp727
g17
(g18
(I0
tS'b'
tRp728
((I1
(L0L
tg21
I00
(lt(Nttba(lp729
g17
(g25
(I0
tS'b'
tRp730
(I1
(L0L
tg21
I00
(ltba(lp731
g728
atbsg120
S'2'
sbatba(lp732
g718
atbsg120
g710
sbatba(lp733
g708
atbsg120
g700
sbatba(lp734
g698
atbsg120
g690
sbatba(lp735
g17
(g18
(I0
tS'b'
tRp736
((I1
(L1L
tg21
I00
(lp737
g690
at(Nttbatbsg120
S'Expr'
p738
sbatba(lp739
g612
atbsg120
g604
sbatba(lp740
g602
atbsg120
S'Expr'
p741
sbag1
(g10
g3
NtRp742
(dp743
g13
g1
(g14
g3
NtRp744
((lp745
g17
(g18
(I0
tS'b'
tRp746
((I1
(L0L
tg21
I00
(lt(Nttba(lp747
g17
(g25
(I0
tS'b'
tRp748
(I1
(L0L
tg21
I00
(ltba(lp749
g746
atbsg120
S'+'
sbag1
(g10
g3
NtRp750
(dp751
g13
g1
(g14
g3
NtRp752
((lp753
g17
(g18
(I0
tS'b'
tRp754
((I1
(L1L
tg21
I00
(lp755
S'Dot_calc'
p756
at(Nttba(lp757
g17
(g25
(I0
tS'b'
tRp758
(I1
(L1L
tg21
I00
(lp759
g1
(g10
g3
NtRp760
(dp761
g13
g1
(g14
g3
NtRp762
((lp763
g17
(g18
(I0
tS'b'
tRp764
((I1
(L3L
tg21
I00
(lp765
S'Expr1'
p766
aS'_*_'
p767
aS'Expr2'
p768
at(Nttba(lp769
g17
(g25
(I0
tS'b'
tRp770
(I1
(L3L
tg21
I00
(lp771
g1
(g10
g3
NtRp772
(dp773
g13
g1
(g14
g3
NtRp774
((lp775
g17
(g18
(I0
tS'b'
tRp776
((I1
(L1L
tg21
I00
(lp777
S'Val'
p778
at(Nttba(lp779
g17
(g25
(I0
tS'b'
tRp780
(I1
(L1L
tg21
I00
(lp781
g1
(g10
g3
NtRp782
(dp783
g13
g1
(g14
g3
NtRp784
((lp785
g17
(g18
(I0
tS'b'
tRp786
((I1
(L1L
tg21
I00
(lp787
S'Var'
p788
at(Nttba(lp789
g17
(g25
(I0
tS'b'
tRp790
(I1
(L1L
tg21
I00
(lp791
g1
(g10
g3
NtRp792
(dp793
g13
g1
(g14
g3
NtRp794
((lp795
g17
(g18
(I0
tS'b'
tRp796
((I1
(L1L
tg21
I00
(lp797
S'Id'
p798
at(Nttba(lp799
g17
(g25
(I0
tS'b'
tRp800
(I1
(L1L
tg21
I00
(lp801
g1
(g10
g3
NtRp802
(dp803
g13
g1
(g14
g3
NtRp804
((lp805
g17
(g18
(I0
tS'b'
tRp806
((I1
(L1L
tg21
I00
(lp807
S'_x_'
p808
at(Nttba(lp809
g17
(g25
(I0
tS'b'
tRp810
(I1
(L1L
tg21
I00
(lp811
g1
(g10
g3
NtRp812
(dp813
g13
g1
(g14
g3
NtRp814
((lp815
g17
(g18
(I0
tS'b'
tRp816
((I1
(L0L
tg21
I00
(lt(Nttba(lp817
g17
(g25
(I0
tS'b'
tRp818
(I1
(L0L
tg21
I00
(ltba(lp819
g816
atbsg120
S'x'
sbatba(lp820
g806
atbsg120
g798
sbatba(lp821
g796
atbsg120
g788
sbatba(lp822
g786
atbsg120
g778
sbatba(lp823
g17
(g18
(I0
tS'b'
tRp824
((I1
(L1L
tg21
I00
(lp825
g778
at(Nttbatbsg120
S'Expr'
p826
sbag1
(g10
g3
NtRp827
(dp828
g13
g1
(g14
g3
NtRp829
((lp830
g17
(g18
(I0
tS'b'
tRp831
((I1
(L0L
tg21
I00
(lt(Nttba(lp832
g17
(g25
(I0
tS'b'
tRp833
(I1
(L0L
tg21
I00
(ltba(lp834
g831
atbsg120
S'*'
sbag1
(g10
g3
NtRp835
(dp836
g13
g1
(g14
g3
NtRp837
((lp838
g17
(g18
(I0
tS'b'
tRp839
((I1
(L1L
tg21
I00
(lp840
S'Val'
p841
at(Nttba(lp842
g17
(g25
(I0
tS'b'
tRp843
(I1
(L1L
tg21
I00
(lp844
g1
(g10
g3
NtRp845
(dp846
g13
g1
(g14
g3
NtRp847
((lp848
g17
(g18
(I0
tS'b'
tRp849
((I1
(L1L
tg21
I00
(lp850
S'Number'
p851
at(Nttba(lp852
g17
(g25
(I0
tS'b'
tRp853
(I1
(L1L
tg21
I00
(lp854
g1
(g10
g3
NtRp855
(dp856
g13
g1
(g14
g3
NtRp857
((lp858
g17
(g18
(I0
tS'b'
tRp859
((I1
(L1L
tg21
I00
(lp860
S'Int'
p861
at(Nttba(lp862
g17
(g25
(I0
tS'b'
tRp863
(I1
(L1L
tg21
I00
(lp864
g1
(g10
g3
NtRp865
(dp866
g13
g1
(g14
g3
NtRp867
((lp868
g17
(g18
(I0
tS'b'
tRp869
((I1
(L1L
tg21
I00
(lp870
S'_4_'
p871
at(Nttba(lp872
g17
(g25
(I0
tS'b'
tRp873
(I1
(L1L
tg21
I00
(lp874
g1
(g10
g3
NtRp875
(dp876
g13
g1
(g14
g3
NtRp877
((lp878
g17
(g18
(I0
tS'b'
tRp879
((I1
(L0L
tg21
I00
(lt(Nttba(lp880
g17
(g25
(I0
tS'b'
tRp881
(I1
(L0L
tg21
I00
(ltba(lp882
g879
atbsg120
S'4'
sbatba(lp883
g869
atbsg120
g861
sbatba(lp884
g859
atbsg120
g851
sbatba(lp885
g849
atbsg120
g841
sbatba(lp886
g17
(g18
(I0
tS'b'
tRp887
((I1
(L1L
tg21
I00
(lp888
g841
at(Nttbatbsg120
S'Expr'
p889
sbatba(lp890
g764
atbsg120
g756
sbatba(lp891
g754
atbsg120
S'Expr'
p892
sbatba(lp893
g590
atbsg120
g582
sbatba(lp894
g580
atbsg120
S'Expr'
p895
sbag1
(g10
g3
NtRp896
(dp897
g13
g1
(g14
g3
NtRp898
((lp899
g17
(g18
(I0
tS'b'
tRp900
((I1
(L0L
tg21
I00
(lt(Nttba(lp901
g17
(g25
(I0
tS'b'
tRp902
(I1
(L0L
tg21
I00
(ltba(lp903
g900
atbsg120
S'-'
sbag1
(g10
g3
NtRp904
(dp905
g13
g1
(g14
g3
NtRp906
((lp907
g17
(g18
(I0
tS'b'
tRp908
((I1
(L1L
tg21
I00
(lp909
S'Dot_calc'
p910
at(Nttba(lp911
g17
(g25
(I0
tS'b'
tRp912
(I1
(L1L
tg21
I00
(lp913
g1
(g10
g3
NtRp914
(dp915
g13
g1
(g14
g3
NtRp916
((lp917
g17
(g18
(I0
tS'b'
tRp918
((I1
(L3L
tg21
I00
(lp919
S'Expr1'
p920
aS'_/_'
p921
aS'Expr2'
p922
at(Nttba(lp923
g17
(g25
(I0
tS'b'
tRp924
(I1
(L3L
tg21
I00
(lp925
g1
(g10
g3
NtRp926
(dp927
g13
g1
(g14
g3
NtRp928
((lp929
g17
(g18
(I0
tS'b'
tRp930
((I1
(L1L
tg21
I00
(lp931
S'Brackets'
p932
at(Nttba(lp933
g17
(g25
(I0
tS'b'
tRp934
(I1
(L1L
tg21
I00
(lp935
g1
(g10
g3
NtRp936
(dp937
g13
g1
(g14
g3
NtRp938
((lp939
g17
(g18
(I0
tS'b'
tRp940
((I1
(L3L
tg21
I00
(lp941
S'_(_'
p942
aS'Expr'
p943
aS'_)_'
p944
at(Nttba(lp945
g17
(g25
(I0
tS'b'
tRp946
(I1
(L3L
tg21
I00
(lp947
g1
(g10
g3
NtRp948
(dp949
g13
g1
(g14
g3
NtRp950
((lp951
g17
(g18
(I0
tS'b'
tRp952
((I1
(L0L
tg21
I00
(lt(Nttba(lp953
g17
(g25
(I0
tS'b'
tRp954
(I1
(L0L
tg21
I00
(ltba(lp955
g952
atbsg120
S'('
sbag1
(g10
g3
NtRp956
(dp957
g13
g1
(g14
g3
NtRp958
((lp959
g17
(g18
(I0
tS'b'
tRp960
((I1
(L1L
tg21
I00
(lp961
S'Dash_calc'
p962
at(Nttba(lp963
g17
(g25
(I0
tS'b'
tRp964
(I1
(L1L
tg21
I00
(lp965
g1
(g10
g3
NtRp966
(dp967
g13
g1
(g14
g3
NtRp968
((lp969
g17
(g18
(I0
tS'b'
tRp970
((I1
(L3L
tg21
I00
(lp971
S'Expr1'
p972
aS'_-_'
p973
aS'Expr2'
p974
at(Nttba(lp975
g17
(g25
(I0
tS'b'
tRp976
(I1
(L3L
tg21
I00
(lp977
g1
(g10
g3
NtRp978
(dp979
g13
g1
(g14
g3
NtRp980
((lp981
g17
(g18
(I0
tS'b'
tRp982
((I1
(L1L
tg21
I00
(lp983
S'Val'
p984
at(Nttba(lp985
g17
(g25
(I0
tS'b'
tRp986
(I1
(L1L
tg21
I00
(lp987
g1
(g10
g3
NtRp988
(dp989
g13
g1
(g14
g3
NtRp990
((lp991
g17
(g18
(I0
tS'b'
tRp992
((I1
(L1L
tg21
I00
(lp993
S'Var'
p994
at(Nttba(lp995
g17
(g25
(I0
tS'b'
tRp996
(I1
(L1L
tg21
I00
(lp997
g1
(g10
g3
NtRp998
(dp999
g13
g1
(g14
g3
NtRp1000
((lp1001
g17
(g18
(I0
tS'b'
tRp1002
((I1
(L1L
tg21
I00
(lp1003
S'Id'
p1004
at(Nttba(lp1005
g17
(g25
(I0
tS'b'
tRp1006
(I1
(L1L
tg21
I00
(lp1007
g1
(g10
g3
NtRp1008
(dp1009
g13
g1
(g14
g3
NtRp1010
((lp1011
g17
(g18
(I0
tS'b'
tRp1012
((I1
(L1L
tg21
I00
(lp1013
S'_x_'
p1014
at(Nttba(lp1015
g17
(g25
(I0
tS'b'
tRp1016
(I1
(L1L
tg21
I00
(lp1017
g1
(g10
g3
NtRp1018
(dp1019
g13
g1
(g14
g3
NtRp1020
((lp1021
g17
(g18
(I0
tS'b'
tRp1022
((I1
(L0L
tg21
I00
(lt(Nttba(lp1023
g17
(g25
(I0
tS'b'
tRp1024
(I1
(L0L
tg21
I00
(ltba(lp1025
g1022
atbsg120
S'x'
sbatba(lp1026
g1012
atbsg120
g1004
sbatba(lp1027
g1002
atbsg120
g994
sbatba(lp1028
g992
atbsg120
g984
sbatba(lp1029
g17
(g18
(I0
tS'b'
tRp1030
((I1
(L1L
tg21
I00
(lp1031
g984
at(Nttbatbsg120
S'Expr'
p1032
sbag1
(g10
g3
NtRp1033
(dp1034
g13
g1
(g14
g3
NtRp1035
((lp1036
g17
(g18
(I0
tS'b'
tRp1037
((I1
(L0L
tg21
I00
(lt(Nttba(lp1038
g17
(g25
(I0
tS'b'
tRp1039
(I1
(L0L
tg21
I00
(ltba(lp1040
g1037
atbsg120
S'-'
sbag1
(g10
g3
NtRp1041
(dp1042
g13
g1
(g14
g3
NtRp1043
((lp1044
g17
(g18
(I0
tS'b'
tRp1045
((I1
(L1L
tg21
I00
(lp1046
S'Val'
p1047
at(Nttba(lp1048
g17
(g25
(I0
tS'b'
tRp1049
(I1
(L1L
tg21
I00
(lp1050
g1
(g10
g3
NtRp1051
(dp1052
g13
g1
(g14
g3
NtRp1053
((lp1054
g17
(g18
(I0
tS'b'
tRp1055
((I1
(L1L
tg21
I00
(lp1056
S'Number'
p1057
at(Nttba(lp1058
g17
(g25
(I0
tS'b'
tRp1059
(I1
(L1L
tg21
I00
(lp1060
g1
(g10
g3
NtRp1061
(dp1062
g13
g1
(g14
g3
NtRp1063
((lp1064
g17
(g18
(I0
tS'b'
tRp1065
((I1
(L1L
tg21
I00
(lp1066
S'Int'
p1067
at(Nttba(lp1068
g17
(g25
(I0
tS'b'
tRp1069
(I1
(L1L
tg21
I00
(lp1070
g1
(g10
g3
NtRp1071
(dp1072
g13
g1
(g14
g3
NtRp1073
((lp1074
g17
(g18
(I0
tS'b'
tRp1075
((I1
(L1L
tg21
I00
(lp1076
S'_3_'
p1077
at(Nttba(lp1078
g17
(g25
(I0
tS'b'
tRp1079
(I1
(L1L
tg21
I00
(lp1080
g1
(g10
g3
NtRp1081
(dp1082
g13
g1
(g14
g3
NtRp1083
((lp1084
g17
(g18
(I0
tS'b'
tRp1085
((I1
(L0L
tg21
I00
(lt(Nttba(lp1086
g17
(g25
(I0
tS'b'
tRp1087
(I1
(L0L
tg21
I00
(ltba(lp1088
g1085
atbsg120
S'3'
sbatba(lp1089
g1075
atbsg120
g1067
sbatba(lp1090
g1065
atbsg120
g1057
sbatba(lp1091
g1055
atbsg120
g1047
sbatba(lp1092
g17
(g18
(I0
tS'b'
tRp1093
((I1
(L1L
tg21
I00
(lp1094
g1047
at(Nttbatbsg120
S'Expr'
p1095
sbatba(lp1096
g970
atbsg120
g962
sbatba(lp1097
g960
atbsg120
S'Expr'
p1098
sbag1
(g10
g3
NtRp1099
(dp1100
g13
g1
(g14
g3
NtRp1101
((lp1102
g17
(g18
(I0
tS'b'
tRp1103
((I1
(L0L
tg21
I00
(lt(Nttba(lp1104
g17
(g25
(I0
tS'b'
tRp1105
(I1
(L0L
tg21
I00
(ltba(lp1106
g1103
atbsg120
S')'
sbatba(lp1107
g940
atbsg120
g932
sbatba(lp1108
g930
atbsg120
S'Expr'
p1109
sbag1
(g10
g3
NtRp1110
(dp1111
g13
g1
(g14
g3
NtRp1112
((lp1113
g17
(g18
(I0
tS'b'
tRp1114
((I1
(L0L
tg21
I00
(lt(Nttba(lp1115
g17
(g25
(I0
tS'b'
tRp1116
(I1
(L0L
tg21
I00
(ltba(lp1117
g1114
atbsg120
S'/'
sbag1
(g10
g3
NtRp1118
(dp1119
g13
g1
(g14
g3
NtRp1120
((lp1121
g17
(g18
(I0
tS'b'
tRp1122
((I1
(L1L
tg21
I00
(lp1123
S'Val'
p1124
at(Nttba(lp1125
g17
(g25
(I0
tS'b'
tRp1126
(I1
(L1L
tg21
I00
(lp1127
g1
(g10
g3
NtRp1128
(dp1129
g13
g1
(g14
g3
NtRp1130
((lp1131
g17
(g18
(I0
tS'b'
tRp1132
((I1
(L1L
tg21
I00
(lp1133
S'Var'
p1134
at(Nttba(lp1135
g17
(g25
(I0
tS'b'
tRp1136
(I1
(L1L
tg21
I00
(lp1137
g1
(g10
g3
NtRp1138
(dp1139
g13
g1
(g14
g3
NtRp1140
((lp1141
g17
(g18
(I0
tS'b'
tRp1142
((I1
(L1L
tg21
I00
(lp1143
S'Id'
p1144
at(Nttba(lp1145
g17
(g25
(I0
tS'b'
tRp1146
(I1
(L1L
tg21
I00
(lp1147
g1
(g10
g3
NtRp1148
(dp1149
g13
g1
(g14
g3
NtRp1150
((lp1151
g17
(g18
(I0
tS'b'
tRp1152
((I1
(L1L
tg21
I00
(lp1153
S'_x_'
p1154
at(Nttba(lp1155
g17
(g25
(I0
tS'b'
tRp1156
(I1
(L1L
tg21
I00
(lp1157
g1
(g10
g3
NtRp1158
(dp1159
g13
g1
(g14
g3
NtRp1160
((lp1161
g17
(g18
(I0
tS'b'
tRp1162
((I1
(L0L
tg21
I00
(lt(Nttba(lp1163
g17
(g25
(I0
tS'b'
tRp1164
(I1
(L0L
tg21
I00
(ltba(lp1165
g1162
atbsg120
S'x'
sbatba(lp1166
g1152
atbsg120
g1144
sbatba(lp1167
g1142
atbsg120
g1134
sbatba(lp1168
g1132
atbsg120
g1124
sbatba(lp1169
g17
(g18
(I0
tS'b'
tRp1170
((I1
(L1L
tg21
I00
(lp1171
g1124
at(Nttbatbsg120
S'Expr'
p1172
sbatba(lp1173
g918
atbsg120
g910
sbatba(lp1174
g908
atbsg120
S'Expr'
p1175
sbatba(lp1176
g568
atbsg120
g560
sbatba(lp1177
g558
atbsg120
S'Expr'
p1178
sbag1
(g10
g3
NtRp1179
(dp1180
g13
g1
(g14
g3
NtRp1181
((lp1182
g17
(g18
(I0
tS'b'
tRp1183
((I1
(L0L
tg21
I00
(lt(Nttba(lp1184
g17
(g25
(I0
tS'b'
tRp1185
(I1
(L0L
tg21
I00
(ltba(lp1186
g1183
atbsg120
S'-'
sbag1
(g10
g3
NtRp1187
(dp1188
g13
g1
(g14
g3
NtRp1189
((lp1190
g17
(g18
(I0
tS'b'
tRp1191
((I1
(L1L
tg21
I00
(lp1192
S'Val'
p1193
at(Nttba(lp1194
g17
(g25
(I0
tS'b'
tRp1195
(I1
(L1L
tg21
I00
(lp1196
g1
(g10
g3
NtRp1197
(dp1198
g13
g1
(g14
g3
NtRp1199
((lp1200
g17
(g18
(I0
tS'b'
tRp1201
((I1
(L1L
tg21
I00
(lp1202
S'Number'
p1203
at(Nttba(lp1204
g17
(g25
(I0
tS'b'
tRp1205
(I1
(L1L
tg21
I00
(lp1206
g1
(g10
g3
NtRp1207
(dp1208
g13
g1
(g14
g3
NtRp1209
((lp1210
g17
(g18
(I0
tS'b'
tRp1211
((I1
(L1L
tg21
I00
(lp1212
S'Float'
p1213
at(Nttba(lp1214
g17
(g25
(I0
tS'b'
tRp1215
(I1
(L1L
tg21
I00
(lp1216
g1
(g10
g3
NtRp1217
(dp1218
g13
g1
(g14
g3
NtRp1219
((lp1220
g17
(g18
(I0
tS'b'
tRp1221
((I1
(L1L
tg21
I00
(lp1222
S'_1.3e2_'
p1223
at(Nttba(lp1224
g17
(g25
(I0
tS'b'
tRp1225
(I1
(L1L
tg21
I00
(lp1226
g1
(g10
g3
NtRp1227
(dp1228
g13
g1
(g14
g3
NtRp1229
((lp1230
g17
(g18
(I0
tS'b'
tRp1231
((I1
(L0L
tg21
I00
(lt(Nttba(lp1232
g17
(g25
(I0
tS'b'
tRp1233
(I1
(L0L
tg21
I00
(ltba(lp1234
g1231
atbsg120
S'1.3e2'
p1235
sbatba(lp1236
g1221
atbsg120
g1213
sbatba(lp1237
g1211
atbsg120
g1203
sbatba(lp1238
g1201
atbsg120
g1193
sbatba(lp1239
g17
(g18
(I0
tS'b'
tRp1240
((I1
(L1L
tg21
I00
(lp1241
g1193
at(Nttbatbsg120
S'Expr'
p1242
sbatba(lp1243
g546
atbsg120
g538
sbatba(lp1244
g536
atbsg120
S'Expr'
p1245
sbag1
(g10
g3
NtRp1246
(dp1247
g13
g1
(g14
g3
NtRp1248
((lp1249
g17
(g18
(I0
tS'b'
tRp1250
((I1
(L0L
tg21
I00
(lt(Nttba(lp1251
g17
(g25
(I0
tS'b'
tRp1252
(I1
(L0L
tg21
I00
(ltba(lp1253
g1250
atbsg120
S'+'
sbag1
(g10
g3
NtRp1254
(dp1255
g13
g1
(g14
g3
NtRp1256
((lp1257
g17
(g18
(I0
tS'b'
tRp1258
((I1
(L1L
tg21
I00
(lp1259
S'Val'
p1260
at(Nttba(lp1261
g17
(g25
(I0
tS'b'
tRp1262
(I1
(L1L
tg21
I00
(lp1263
g1
(g10
g3
NtRp1264
(dp1265
g13
g1
(g14
g3
NtRp1266
((lp1267
g17
(g18
(I0
tS'b'
tRp1268
((I1
(L1L
tg21
I00
(lp1269
S'Number'
p1270
at(Nttba(lp1271
g17
(g25
(I0
tS'b'
tRp1272
(I1
(L1L
tg21
I00
(lp1273
g1
(g10
g3
NtRp1274
(dp1275
g13
g1
(g14
g3
NtRp1276
((lp1277
g17
(g18
(I0
tS'b'
tRp1278
((I1
(L1L
tg21
I00
(lp1279
S'Int'
p1280
at(Nttba(lp1281
g17
(g25
(I0
tS'b'
tRp1282
(I1
(L1L
tg21
I00
(lp1283
g1
(g10
g3
NtRp1284
(dp1285
g13
g1
(g14
g3
NtRp1286
((lp1287
g17
(g18
(I0
tS'b'
tRp1288
((I1
(L1L
tg21
I00
(lp1289
S'_2_'
p1290
at(Nttba(lp1291
g17
(g25
(I0
tS'b'
tRp1292
(I1
(L1L
tg21
I00
(lp1293
g1
(g10
g3
NtRp1294
(dp1295
g13
g1
(g14
g3
NtRp1296
((lp1297
g17
(g18
(I0
tS'b'
tRp1298
((I1
(L0L
tg21
I00
(lt(Nttba(lp1299
g17
(g25
(I0
tS'b'
tRp1300
(I1
(L0L
tg21
I00
(ltba(lp1301
g1298
atbsg120
S'2'
sbatba(lp1302
g1288
atbsg120
g1280
sbatba(lp1303
g1278
atbsg120
g1270
sbatba(lp1304
g1268
atbsg120
g1260
sbatba(lp1305
g17
(g18
(I0
tS'b'
tRp1306
((I1
(L1L
tg21
I00
(lp1307
g1260
at(Nttbatbsg120
S'Expr'
p1308
sbatba(lp1309
g524
atbsg120
g516
sbatba(lp1310
g514
atbsg120
S'Expr'
p1311
sbag1
(g10
g3
NtRp1312
(dp1313
g13
g1
(g14
g3
NtRp1314
((lp1315
g17
(g18
(I0
tS'b'
tRp1316
((I1
(L0L
tg21
I00
(lt(Nttba(lp1317
g17
(g25
(I0
tS'b'
tRp1318
(I1
(L0L
tg21
I00
(ltba(lp1319
g1316
atbsg120
S'+'
sbag1
(g10
g3
NtRp1320
(dp1321
g13
g1
(g14
g3
NtRp1322
((lp1323
g17
(g18
(I0
tS'b'
tRp1324
((I1
(L1L
tg21
I00
(lp1325
S'Val'
p1326
at(Nttba(lp1327
g17
(g25
(I0
tS'b'
tRp1328
(I1
(L1L
tg21
I00
(lp1329
g1
(g10
g3
NtRp1330
(dp1331
g13
g1
(g14
g3
NtRp1332
((lp1333
g17
(g18
(I0
tS'b'
tRp1334
((I1
(L1L
tg21
I00
(lp1335
S'Number'
p1336
at(Nttba(lp1337
g17
(g25
(I0
tS'b'
tRp1338
(I1
(L1L
tg21
I00
(lp1339
g1
(g10
g3
NtRp1340
(dp1341
g13
g1
(g14
g3
NtRp1342
((lp1343
g17
(g18
(I0
tS'b'
tRp1344
((I1
(L1L
tg21
I00
(lp1345
S'Int'
p1346
at(Nttba(lp1347
g17
(g25
(I0
tS'b'
tRp1348
(I1
(L1L
tg21
I00
(lp1349
g1
(g10
g3
NtRp1350
(dp1351
g13
g1
(g14
g3
NtRp1352
((lp1353
g17
(g18
(I0
tS'b'
tRp1354
((I1
(L1L
tg21
I00
(lp1355
S'_5_'
p1356
at(Nttba(lp1357
g17
(g25
(I0
tS'b'
tRp1358
(I1
(L1L
tg21
I00
(lp1359
g1
(g10
g3
NtRp1360
(dp1361
g13
g1
(g14
g3
NtRp1362
((lp1363
g17
(g18
(I0
tS'b'
tRp1364
((I1
(L0L
tg21
I00
(lt(Nttba(lp1365
g17
(g25
(I0
tS'b'
tRp1366
(I1
(L0L
tg21
I00
(ltba(lp1367
g1364
atbsg120
S'5'
sbatba(lp1368
g1354
atbsg120
g1346
sbatba(lp1369
g1344
atbsg120
g1336
sbatba(lp1370
g1334
atbsg120
g1326
sbatba(lp1371
g17
(g18
(I0
tS'b'
tRp1372
((I1
(L1L
tg21
I00
(lp1373
g1326
at(Nttbatbsg120
S'Expr'
p1374
sbatba(lp1375
g502
atbsg120
g494
sbatba(lp1376
g492
atbsg120
S'Expr'
p1377
sbatba(lp1378
g482
atbsg120
g465
sbatba(lp1379
g462
atbsg120
g453
sbag1
(g10
g3
NtRp1380
(dp1381
g13
g1
(g14
g3
NtRp1382
((lp1383
g17
(g18
(I0
tS'b'
tRp1384
((I1
(L0L
tg21
I00
(lt(Nttba(lp1385
g17
(g25
(I0
tS'b'
tRp1386
(I1
(L0L
tg21
I00
(ltba(lp1387
g1384
atbsg120
S';'
sbatba(lp1388
g451
atbsg120
g443
sbatba(lp1389
g441
atbsg120
S'Stmt'
p1390
sbatba(lp1391
g331
atbsg120
g302
sbag1
(g10
g3
NtRp1392
(dp1393
g13
g1
(g14
g3
NtRp1394
((lp1395
g17
(g18
(I0
tS'b'
tRp1396
((I1
(L1L
tg21
I00
(lp1397
S'_$blockend_'
p1398
at(Nttba(lp1399
g17
(g25
(I0
tS'b'
tRp1400
(I1
(L1L
tg21
I00
(lp1401
g1
(g10
g3
NtRp1402
(dp1403
g13
g1
(g14
g3
NtRp1404
((lp1405
g17
(g18
(I0
tS'b'
tRp1406
((I1
(L0L
tg21
I00
(lt(Nttba(lp1407
g17
(g25
(I0
tS'b'
tRp1408
(I1
(L0L
tg21
I00
(ltba(lp1409
g1406
atbsg120
S'$blockend'
p1410
sbatba(lp1411
g1396
atbsg120
g303
sbatba(lp1412
g299
atbsg120
g158
sbatba(lp1413
g155
atbsg120
g147
sbatba(lp1414
g145
atbsg120
S'Stmt'
p1415
sbag1
(g10
g3
NtRp1416
(dp1417
g13
g1
(g14
g3
NtRp1418
((lp1419
g17
(g18
(I0
tS'b'
tRp1420
((I1
(L1L
tg21
I00
(lp1421
S'Single_stmt'
p1422
at(Nttba(lp1423
g17
(g25
(I0
tS'b'
tRp1424
(I1
(L1L
tg21
I00
(lp1425
g1
(g10
g3
NtRp1426
(dp1427
g13
g1
(g14
g3
NtRp1428
((lp1429
g17
(g18
(I0
tS'b'
tRp1430
((I1
(L2L
tg21
I00
(lp1431
S'Assign_stmt'
p1432
aS'_;_'
p1433
at(Nttba(lp1434
g17
(g25
(I0
tS'b'
tRp1435
(I1
(L2L
tg21
I00
(lp1436
g1
(g10
g3
NtRp1437
(dp1438
g13
g1
(g14
g3
NtRp1439
((lp1440
g17
(g18
(I0
tS'b'
tRp1441
((I1
(L1L
tg21
I00
(lp1442
S'Assign'
p1443
at(Nttba(lp1444
g17
(g25
(I0
tS'b'
tRp1445
(I1
(L1L
tg21
I00
(lp1446
g1
(g10
g3
NtRp1447
(dp1448
g13
g1
(g14
g3
NtRp1449
((lp1450
g17
(g18
(I0
tS'b'
tRp1451
((I1
(L3L
tg21
I00
(lp1452
S'Varlist'
p1453
aS'_=_'
p1454
aS'Exprlist'
p1455
at(Nttba(lp1456
g17
(g25
(I0
tS'b'
tRp1457
(I1
(L3L
tg21
I00
(lp1458
g1
(g10
g3
NtRp1459
(dp1460
g13
g1
(g14
g3
NtRp1461
((lp1462
g17
(g18
(I0
tS'b'
tRp1463
((I1
(L1L
tg21
I00
(lp1464
S'Vartuple'
p1465
at(Nttba(lp1466
g17
(g25
(I0
tS'b'
tRp1467
(I1
(L1L
tg21
I00
(lp1468
g1
(g10
g3
NtRp1469
(dp1470
g13
g1
(g14
g3
NtRp1471
((lp1472
g17
(g18
(I0
tS'b'
tRp1473
((I1
(L1L
tg21
I00
(lp1474
S'Var'
p1475
at(Nttba(lp1476
g17
(g25
(I0
tS'b'
tRp1477
(I1
(L1L
tg21
I00
(lp1478
g1
(g10
g3
NtRp1479
(dp1480
g13
g1
(g14
g3
NtRp1481
((lp1482
g17
(g18
(I0
tS'b'
tRp1483
((I1
(L1L
tg21
I00
(lp1484
S'Id'
p1485
at(Nttba(lp1486
g17
(g25
(I0
tS'b'
tRp1487
(I1
(L1L
tg21
I00
(lp1488
g1
(g10
g3
NtRp1489
(dp1490
g13
g1
(g14
g3
NtRp1491
((lp1492
g17
(g18
(I0
tS'b'
tRp1493
((I1
(L1L
tg21
I00
(lp1494
S'_S_'
p1495
at(Nttba(lp1496
g17
(g25
(I0
tS'b'
tRp1497
(I1
(L1L
tg21
I00
(lp1498
g1
(g10
g3
NtRp1499
(dp1500
g13
g1
(g14
g3
NtRp1501
((lp1502
g17
(g18
(I0
tS'b'
tRp1503
((I1
(L0L
tg21
I00
(lt(Nttba(lp1504
g17
(g25
(I0
tS'b'
tRp1505
(I1
(L0L
tg21
I00
(ltba(lp1506
g1503
atbsg120
S'S'
sbatba(lp1507
g1493
atbsg120
g1485
sbatba(lp1508
g1483
atbsg120
g1475
sbatba(lp1509
g1473
atbsg120
g1465
sbatba(lp1510
g1463
atbsg120
g1453
sbag1
(g10
g3
NtRp1511
(dp1512
g13
g1
(g14
g3
NtRp1513
((lp1514
g17
(g18
(I0
tS'b'
tRp1515
((I1
(L0L
tg21
I00
(lt(Nttba(lp1516
g17
(g25
(I0
tS'b'
tRp1517
(I1
(L0L
tg21
I00
(ltba(lp1518
g1515
atbsg120
S'='
sbag1
(g10
g3
NtRp1519
(dp1520
g13
g1
(g14
g3
NtRp1521
((lp1522
g17
(g18
(I0
tS'b'
tRp1523
((I1
(L1L
tg21
I00
(lp1524
S'Expr'
p1525
at(Nttba(lp1526
g17
(g25
(I0
tS'b'
tRp1527
(I1
(L1L
tg21
I00
(lp1528
g1
(g10
g3
NtRp1529
(dp1530
g13
g1
(g14
g3
NtRp1531
((lp1532
g17
(g18
(I0
tS'b'
tRp1533
((I1
(L1L
tg21
I00
(lp1534
S'Val'
p1535
at(Nttba(lp1536
g17
(g25
(I0
tS'b'
tRp1537
(I1
(L1L
tg21
I00
(lp1538
g1
(g10
g3
NtRp1539
(dp1540
g13
g1
(g14
g3
NtRp1541
((lp1542
g17
(g18
(I0
tS'b'
tRp1543
((I1
(L1L
tg21
I00
(lp1544
S'String'
p1545
at(Nttba(lp1546
g17
(g25
(I0
tS'b'
tRp1547
(I1
(L1L
tg21
I00
(lp1548
g1
(g10
g3
NtRp1549
(dp1550
g13
g1
(g14
g3
NtRp1551
((lp1552
g17
(g18
(I0
tS'b'
tRp1553
((I1
(L1L
tg21
I00
(lp1554
S'Str_val'
p1555
at(Nttba(lp1556
g17
(g25
(I0
tS'b'
tRp1557
(I1
(L1L
tg21
I00
(lp1558
g1
(g10
g3
NtRp1559
(dp1560
g13
g1
(g14
g3
NtRp1561
((lp1562
g17
(g18
(I0
tS'b'
tRp1563
((I1
(L1L
tg21
I00
(lp1564
S"_'abc\\n'_"
p1565
at(Nttba(lp1566
g17
(g25
(I0
tS'b'
tRp1567
(I1
(L1L
tg21
I00
(lp1568
g1
(g10
g3
NtRp1569
(dp1570
g13
g1
(g14
g3
NtRp1571
((lp1572
g17
(g18
(I0
tS'b'
tRp1573
((I1
(L0L
tg21
I00
(lt(Nttba(lp1574
g17
(g25
(I0
tS'b'
tRp1575
(I1
(L0L
tg21
I00
(ltba(lp1576
g1573
atbsg120
S'"abc\\n"'
p1577
sbatba(lp1578
g1563
atbsg120
g1555
sbatba(lp1579
g1553
atbsg120
g1545
sbatba(lp1580
g1543
atbsg120
g1535
sbatba(lp1581
g17
(g18
(I0
tS'b'
tRp1582
((I1
(L1L
tg21
I00
(lp1583
g1535
at(Nttbatbsg120
S'Expr'
p1584
sbatba(lp1585
g1523
atbsg120
g1455
sbatba(lp1586
g1451
atbsg120
g1443
sbatba(lp1587
g1441
atbsg120
g1432
sbag1
(g10
g3
NtRp1588
(dp1589
g13
g1
(g14
g3
NtRp1590
((lp1591
g17
(g18
(I0
tS'b'
tRp1592
((I1
(L0L
tg21
I00
(lt(Nttba(lp1593
g17
(g25
(I0
tS'b'
tRp1594
(I1
(L0L
tg21
I00
(ltba(lp1595
g1592
atbsg120
S';'
sbatba(lp1596
g1430
atbsg120
g1422
sbatba(lp1597
g1420
atbsg120
S'Stmt'
p1598
sbag1
(g10
g3
NtRp1599
(dp1600
g13
g1
(g14
g3
NtRp1601
((lp1602
g17
(g18
(I0
tS'b'
tRp1603
((I1
(L1L
tg21
I00
(lp1604
S'Block_stmt'
p1605
at(Nttba(lp1606
g17
(g25
(I0
tS'b'
tRp1607
(I1
(L1L
tg21
I00
(lp1608
g1
(g10
g3
NtRp1609
(dp1610
g13
g1
(g14
g3
NtRp1611
((lp1612
g17
(g18
(I0
tS'b'
tRp1613
((I1
(L1L
tg21
I00
(lp1614
S'Ifelse'
p1615
at(Nttba(lp1616
g17
(g25
(I0
tS'b'
tRp1617
(I1
(L1L
tg21
I00
(lp1618
g1
(g10
g3
NtRp1619
(dp1620
g13
g1
(g14
g3
NtRp1621
((lp1622
g17
(g18
(I0
tS'b'
tRp1623
((I1
(L2L
tg21
I00
(lp1624
S'If'
p1625
aS'Block'
p1626
at(Nttba(lp1627
g17
(g25
(I0
tS'b'
tRp1628
(I1
(L2L
tg21
I00
(lp1629
g1
(g10
g3
NtRp1630
(dp1631
g13
g1
(g14
g3
NtRp1632
((lp1633
g17
(g18
(I0
tS'b'
tRp1634
((I1
(L2L
tg21
I00
(lp1635
S'_if_'
p1636
aS'Expr'
p1637
at(Nttba(lp1638
g17
(g25
(I0
tS'b'
tRp1639
(I1
(L2L
tg21
I00
(lp1640
g1
(g10
g3
NtRp1641
(dp1642
g13
g1
(g14
g3
NtRp1643
((lp1644
g17
(g18
(I0
tS'b'
tRp1645
((I1
(L0L
tg21
I00
(lt(Nttba(lp1646
g17
(g25
(I0
tS'b'
tRp1647
(I1
(L0L
tg21
I00
(ltba(lp1648
g1645
atbsg120
S'if'
p1649
sbag1
(g10
g3
NtRp1650
(dp1651
g13
g1
(g14
g3
NtRp1652
((lp1653
g17
(g18
(I0
tS'b'
tRp1654
((I1
(L1L
tg21
I00
(lp1655
S'Comparison'
p1656
at(Nttba(lp1657
g17
(g25
(I0
tS'b'
tRp1658
(I1
(L1L
tg21
I00
(lp1659
g1
(g10
g3
NtRp1660
(dp1661
g13
g1
(g14
g3
NtRp1662
((lp1663
g17
(g18
(I0
tS'b'
tRp1664
((I1
(L3L
tg21
I00
(lp1665
S'Expr1'
p1666
aS'Op_cmp'
p1667
aS'Expr2'
p1668
at(Nttba(lp1669
g17
(g25
(I0
tS'b'
tRp1670
(I1
(L3L
tg21
I00
(lp1671
g1
(g10
g3
NtRp1672
(dp1673
g13
g1
(g14
g3
NtRp1674
((lp1675
g17
(g18
(I0
tS'b'
tRp1676
((I1
(L1L
tg21
I00
(lp1677
S'Val'
p1678
at(Nttba(lp1679
g17
(g25
(I0
tS'b'
tRp1680
(I1
(L1L
tg21
I00
(lp1681
g1
(g10
g3
NtRp1682
(dp1683
g13
g1
(g14
g3
NtRp1684
((lp1685
g17
(g18
(I0
tS'b'
tRp1686
((I1
(L1L
tg21
I00
(lp1687
S'Var'
p1688
at(Nttba(lp1689
g17
(g25
(I0
tS'b'
tRp1690
(I1
(L1L
tg21
I00
(lp1691
g1
(g10
g3
NtRp1692
(dp1693
g13
g1
(g14
g3
NtRp1694
((lp1695
g17
(g18
(I0
tS'b'
tRp1696
((I1
(L1L
tg21
I00
(lp1697
S'Id'
p1698
at(Nttba(lp1699
g17
(g25
(I0
tS'b'
tRp1700
(I1
(L1L
tg21
I00
(lp1701
g1
(g10
g3
NtRp1702
(dp1703
g13
g1
(g14
g3
NtRp1704
((lp1705
g17
(g18
(I0
tS'b'
tRp1706
((I1
(L1L
tg21
I00
(lp1707
S'___name___'
p1708
at(Nttba(lp1709
g17
(g25
(I0
tS'b'
tRp1710
(I1
(L1L
tg21
I00
(lp1711
g1
(g10
g3
NtRp1712
(dp1713
g13
g1
(g14
g3
NtRp1714
((lp1715
g17
(g18
(I0
tS'b'
tRp1716
((I1
(L0L
tg21
I00
(lt(Nttba(lp1717
g17
(g25
(I0
tS'b'
tRp1718
(I1
(L0L
tg21
I00
(ltba(lp1719
g1716
atbsg120
S'__name__'
p1720
sbatba(lp1721
g1706
atbsg120
g1698
sbatba(lp1722
g1696
atbsg120
g1688
sbatba(lp1723
g1686
atbsg120
g1678
sbatba(lp1724
g17
(g18
(I0
tS'b'
tRp1725
((I1
(L1L
tg21
I00
(lp1726
g1678
at(Nttbatbsg120
S'Expr'
p1727
sbag1
(g10
g3
NtRp1728
(dp1729
g13
g1
(g14
g3
NtRp1730
((lp1731
g17
(g18
(I0
tS'b'
tRp1732
((I1
(L1L
tg21
I00
(lp1733
S'_==_'
p1734
at(Nttba(lp1735
g17
(g25
(I0
tS'b'
tRp1736
(I1
(L1L
tg21
I00
(lp1737
g1
(g10
g3
NtRp1738
(dp1739
g13
g1
(g14
g3
NtRp1740
((lp1741
g17
(g18
(I0
tS'b'
tRp1742
((I1
(L0L
tg21
I00
(lt(Nttba(lp1743
g17
(g25
(I0
tS'b'
tRp1744
(I1
(L0L
tg21
I00
(ltba(lp1745
g1742
atbsg120
S'=='
p1746
sbatba(lp1747
g1732
atbsg120
g1667
sbag1
(g10
g3
NtRp1748
(dp1749
g13
g1
(g14
g3
NtRp1750
((lp1751
g17
(g18
(I0
tS'b'
tRp1752
((I1
(L1L
tg21
I00
(lp1753
S'Val'
p1754
at(Nttba(lp1755
g17
(g25
(I0
tS'b'
tRp1756
(I1
(L1L
tg21
I00
(lp1757
g1
(g10
g3
NtRp1758
(dp1759
g13
g1
(g14
g3
NtRp1760
((lp1761
g17
(g18
(I0
tS'b'
tRp1762
((I1
(L1L
tg21
I00
(lp1763
S'String'
p1764
at(Nttba(lp1765
g17
(g25
(I0
tS'b'
tRp1766
(I1
(L1L
tg21
I00
(lp1767
g1
(g10
g3
NtRp1768
(dp1769
g13
g1
(g14
g3
NtRp1770
((lp1771
g17
(g18
(I0
tS'b'
tRp1772
((I1
(L1L
tg21
I00
(lp1773
S'Str_val'
p1774
at(Nttba(lp1775
g17
(g25
(I0
tS'b'
tRp1776
(I1
(L1L
tg21
I00
(lp1777
g1
(g10
g3
NtRp1778
(dp1779
g13
g1
(g14
g3
NtRp1780
((lp1781
g17
(g18
(I0
tS'b'
tRp1782
((I1
(L1L
tg21
I00
(lp1783
S"_'__main__'_"
p1784
at(Nttba(lp1785
g17
(g25
(I0
tS'b'
tRp1786
(I1
(L1L
tg21
I00
(lp1787
g1
(g10
g3
NtRp1788
(dp1789
g13
g1
(g14
g3
NtRp1790
((lp1791
g17
(g18
(I0
tS'b'
tRp1792
((I1
(L0L
tg21
I00
(lt(Nttba(lp1793
g17
(g25
(I0
tS'b'
tRp1794
(I1
(L0L
tg21
I00
(ltba(lp1795
g1792
atbsg120
S'"__main__"'
p1796
sbatba(lp1797
g1782
atbsg120
g1774
sbatba(lp1798
g1772
atbsg120
g1764
sbatba(lp1799
g1762
atbsg120
g1754
sbatba(lp1800
g17
(g18
(I0
tS'b'
tRp1801
((I1
(L1L
tg21
I00
(lp1802
g1754
at(Nttbatbsg120
S'Expr'
p1803
sbatba(lp1804
g1664
atbsg120
g1656
sbatba(lp1805
g1654
atbsg120
S'Expr'
p1806
sbatba(lp1807
g1634
atbsg120
g1625
sbag1
(g10
g3
NtRp1808
(dp1809
g13
g1
(g14
g3
NtRp1810
((lp1811
g17
(g18
(I0
tS'b'
tRp1812
((I1
(L3L
tg21
I00
(lp1813
S'Blockbegin'
p1814
aS'Prog'
p1815
aS'Blockend'
p1816
at(Nttba(lp1817
g17
(g25
(I0
tS'b'
tRp1818
(I1
(L3L
tg21
I00
(lp1819
g1
(g10
g3
NtRp1820
(dp1821
g13
g1
(g14
g3
NtRp1822
((lp1823
g17
(g18
(I0
tS'b'
tRp1824
((I1
(L1L
tg21
I00
(lp1825
S'_:$blockbegin_'
p1826
at(Nttba(lp1827
g17
(g25
(I0
tS'b'
tRp1828
(I1
(L1L
tg21
I00
(lp1829
g1
(g10
g3
NtRp1830
(dp1831
g13
g1
(g14
g3
NtRp1832
((lp1833
g17
(g18
(I0
tS'b'
tRp1834
((I1
(L0L
tg21
I00
(lt(Nttba(lp1835
g17
(g25
(I0
tS'b'
tRp1836
(I1
(L0L
tg21
I00
(ltba(lp1837
g1834
atbsg120
S':$blockbegin'
p1838
sbatba(lp1839
g1824
atbsg120
g1814
sbag1
(g10
g3
NtRp1840
(dp1841
g13
g1
(g14
g3
NtRp1842
((lp1843
g17
(g18
(I0
tS'b'
tRp1844
((I1
(L3L
tg21
I00
(lp1845
S'Stmt1'
p1846
aS'Stmt2'
p1847
aS'Stmt3'
p1848
at(Nttba(lp1849
g17
(g25
(I0
tS'b'
tRp1850
(I1
(L3L
tg21
I00
(lp1851
g1
(g10
g3
NtRp1852
(dp1853
g13
g1
(g14
g3
NtRp1854
((lp1855
g17
(g18
(I0
tS'b'
tRp1856
((I1
(L1L
tg21
I00
(lp1857
S'Single_stmt'
p1858
at(Nttba(lp1859
g17
(g25
(I0
tS'b'
tRp1860
(I1
(L1L
tg21
I00
(lp1861
g1
(g10
g3
NtRp1862
(dp1863
g13
g1
(g14
g3
NtRp1864
((lp1865
g17
(g18
(I0
tS'b'
tRp1866
((I1
(L2L
tg21
I00
(lp1867
S'Assign_stmt'
p1868
aS'_;_'
p1869
at(Nttba(lp1870
g17
(g25
(I0
tS'b'
tRp1871
(I1
(L2L
tg21
I00
(lp1872
g1
(g10
g3
NtRp1873
(dp1874
g13
g1
(g14
g3
NtRp1875
((lp1876
g17
(g18
(I0
tS'b'
tRp1877
((I1
(L1L
tg21
I00
(lp1878
S'Assign'
p1879
at(Nttba(lp1880
g17
(g25
(I0
tS'b'
tRp1881
(I1
(L1L
tg21
I00
(lp1882
g1
(g10
g3
NtRp1883
(dp1884
g13
g1
(g14
g3
NtRp1885
((lp1886
g17
(g18
(I0
tS'b'
tRp1887
((I1
(L3L
tg21
I00
(lp1888
S'Varlist'
p1889
aS'_=_'
p1890
aS'Exprlist'
p1891
at(Nttba(lp1892
g17
(g25
(I0
tS'b'
tRp1893
(I1
(L3L
tg21
I00
(lp1894
g1
(g10
g3
NtRp1895
(dp1896
g13
g1
(g14
g3
NtRp1897
((lp1898
g17
(g18
(I0
tS'b'
tRp1899
((I1
(L1L
tg21
I00
(lp1900
S'Vartuple'
p1901
at(Nttba(lp1902
g17
(g25
(I0
tS'b'
tRp1903
(I1
(L1L
tg21
I00
(lp1904
g1
(g10
g3
NtRp1905
(dp1906
g13
g1
(g14
g3
NtRp1907
((lp1908
g17
(g18
(I0
tS'b'
tRp1909
((I1
(L1L
tg21
I00
(lp1910
S'Var'
p1911
at(Nttba(lp1912
g17
(g25
(I0
tS'b'
tRp1913
(I1
(L1L
tg21
I00
(lp1914
g1
(g10
g3
NtRp1915
(dp1916
g13
g1
(g14
g3
NtRp1917
((lp1918
g17
(g18
(I0
tS'b'
tRp1919
((I1
(L1L
tg21
I00
(lp1920
S'Id'
p1921
at(Nttba(lp1922
g17
(g25
(I0
tS'b'
tRp1923
(I1
(L1L
tg21
I00
(lp1924
g1
(g10
g3
NtRp1925
(dp1926
g13
g1
(g14
g3
NtRp1927
((lp1928
g17
(g18
(I0
tS'b'
tRp1929
((I1
(L1L
tg21
I00
(lp1930
S'_L_'
p1931
at(Nttba(lp1932
g17
(g25
(I0
tS'b'
tRp1933
(I1
(L1L
tg21
I00
(lp1934
g1
(g10
g3
NtRp1935
(dp1936
g13
g1
(g14
g3
NtRp1937
((lp1938
g17
(g18
(I0
tS'b'
tRp1939
((I1
(L0L
tg21
I00
(lt(Nttba(lp1940
g17
(g25
(I0
tS'b'
tRp1941
(I1
(L0L
tg21
I00
(ltba(lp1942
g1939
atbsg120
S'L'
sbatba(lp1943
g1929
atbsg120
g1921
sbatba(lp1944
g1919
atbsg120
g1911
sbatba(lp1945
g1909
atbsg120
g1901
sbatba(lp1946
g1899
atbsg120
g1889
sbag1
(g10
g3
NtRp1947
(dp1948
g13
g1
(g14
g3
NtRp1949
((lp1950
g17
(g18
(I0
tS'b'
tRp1951
((I1
(L0L
tg21
I00
(lt(Nttba(lp1952
g17
(g25
(I0
tS'b'
tRp1953
(I1
(L0L
tg21
I00
(ltba(lp1954
g1951
atbsg120
S'='
sbag1
(g10
g3
NtRp1955
(dp1956
g13
g1
(g14
g3
NtRp1957
((lp1958
g17
(g18
(I0
tS'b'
tRp1959
((I1
(L1L
tg21
I00
(lp1960
S'Expr'
p1961
at(Nttba(lp1962
g17
(g25
(I0
tS'b'
tRp1963
(I1
(L1L
tg21
I00
(lp1964
g1
(g10
g3
NtRp1965
(dp1966
g13
g1
(g14
g3
NtRp1967
((lp1968
g17
(g18
(I0
tS'b'
tRp1969
((I1
(L1L
tg21
I00
(lp1970
S'Dot_calc'
p1971
at(Nttba(lp1972
g17
(g25
(I0
tS'b'
tRp1973
(I1
(L1L
tg21
I00
(lp1974
g1
(g10
g3
NtRp1975
(dp1976
g13
g1
(g14
g3
NtRp1977
((lp1978
g17
(g18
(I0
tS'b'
tRp1979
((I1
(L3L
tg21
I00
(lp1980
S'Expr1'
p1981
aS'_*_'
p1982
aS'Expr2'
p1983
at(Nttba(lp1984
g17
(g25
(I0
tS'b'
tRp1985
(I1
(L3L
tg21
I00
(lp1986
g1
(g10
g3
NtRp1987
(dp1988
g13
g1
(g14
g3
NtRp1989
((lp1990
g17
(g18
(I0
tS'b'
tRp1991
((I1
(L1L
tg21
I00
(lp1992
S'Val'
p1993
at(Nttba(lp1994
g17
(g25
(I0
tS'b'
tRp1995
(I1
(L1L
tg21
I00
(lp1996
g1
(g10
g3
NtRp1997
(dp1998
g13
g1
(g14
g3
NtRp1999
((lp2000
g17
(g18
(I0
tS'b'
tRp2001
((I1
(L1L
tg21
I00
(lp2002
S'List'
p2003
at(Nttba(lp2004
g17
(g25
(I0
tS'b'
tRp2005
(I1
(L1L
tg21
I00
(lp2006
g1
(g10
g3
NtRp2007
(dp2008
g13
g1
(g14
g3
NtRp2009
((lp2010
g17
(g18
(I0
tS'b'
tRp2011
((I1
(L3L
tg21
I00
(lp2012
S'_[_'
p2013
aS'Exprlist'
p2014
aS'_]_'
p2015
at(Nttba(lp2016
g17
(g25
(I0
tS'b'
tRp2017
(I1
(L3L
tg21
I00
(lp2018
g1
(g10
g3
NtRp2019
(dp2020
g13
g1
(g14
g3
NtRp2021
((lp2022
g17
(g18
(I0
tS'b'
tRp2023
((I1
(L0L
tg21
I00
(lt(Nttba(lp2024
g17
(g25
(I0
tS'b'
tRp2025
(I1
(L0L
tg21
I00
(ltba(lp2026
g2023
atbsg120
S'['
sbag1
(g10
g3
NtRp2027
(dp2028
g13
g1
(g14
g3
NtRp2029
((lp2030
g17
(g18
(I0
tS'b'
tRp2031
((I1
(L1L
tg21
I00
(lp2032
S'Expr'
p2033
at(Nttba(lp2034
g17
(g25
(I0
tS'b'
tRp2035
(I1
(L1L
tg21
I00
(lp2036
g1
(g10
g3
NtRp2037
(dp2038
g13
g1
(g14
g3
NtRp2039
((lp2040
g17
(g18
(I0
tS'b'
tRp2041
((I1
(L1L
tg21
I00
(lp2042
S'Dash_calc'
p2043
at(Nttba(lp2044
g17
(g25
(I0
tS'b'
tRp2045
(I1
(L1L
tg21
I00
(lp2046
g1
(g10
g3
NtRp2047
(dp2048
g13
g1
(g14
g3
NtRp2049
((lp2050
g17
(g18
(I0
tS'b'
tRp2051
((I1
(L3L
tg21
I00
(lp2052
S'Expr1'
p2053
aS'_+_'
p2054
aS'Expr2'
p2055
at(Nttba(lp2056
g17
(g25
(I0
tS'b'
tRp2057
(I1
(L3L
tg21
I00
(lp2058
g1
(g10
g3
NtRp2059
(dp2060
g13
g1
(g14
g3
NtRp2061
((lp2062
g17
(g18
(I0
tS'b'
tRp2063
((I1
(L1L
tg21
I00
(lp2064
S'Val'
p2065
at(Nttba(lp2066
g17
(g25
(I0
tS'b'
tRp2067
(I1
(L1L
tg21
I00
(lp2068
g1
(g10
g3
NtRp2069
(dp2070
g13
g1
(g14
g3
NtRp2071
((lp2072
g17
(g18
(I0
tS'b'
tRp2073
((I1
(L1L
tg21
I00
(lp2074
S'Number'
p2075
at(Nttba(lp2076
g17
(g25
(I0
tS'b'
tRp2077
(I1
(L1L
tg21
I00
(lp2078
g1
(g10
g3
NtRp2079
(dp2080
g13
g1
(g14
g3
NtRp2081
((lp2082
g17
(g18
(I0
tS'b'
tRp2083
((I1
(L1L
tg21
I00
(lp2084
S'Int'
p2085
at(Nttba(lp2086
g17
(g25
(I0
tS'b'
tRp2087
(I1
(L1L
tg21
I00
(lp2088
g1
(g10
g3
NtRp2089
(dp2090
g13
g1
(g14
g3
NtRp2091
((lp2092
g17
(g18
(I0
tS'b'
tRp2093
((I1
(L1L
tg21
I00
(lp2094
S'_1_'
p2095
at(Nttba(lp2096
g17
(g25
(I0
tS'b'
tRp2097
(I1
(L1L
tg21
I00
(lp2098
g1
(g10
g3
NtRp2099
(dp2100
g13
g1
(g14
g3
NtRp2101
((lp2102
g17
(g18
(I0
tS'b'
tRp2103
((I1
(L0L
tg21
I00
(lt(Nttba(lp2104
g17
(g25
(I0
tS'b'
tRp2105
(I1
(L0L
tg21
I00
(ltba(lp2106
g2103
atbsg120
S'1'
sbatba(lp2107
g2093
atbsg120
g2085
sbatba(lp2108
g2083
atbsg120
g2075
sbatba(lp2109
g2073
atbsg120
g2065
sbatba(lp2110
g17
(g18
(I0
tS'b'
tRp2111
((I1
(L1L
tg21
I00
(lp2112
g2065
at(Nttbatbsg120
S'Expr'
p2113
sbag1
(g10
g3
NtRp2114
(dp2115
g13
g1
(g14
g3
NtRp2116
((lp2117
g17
(g18
(I0
tS'b'
tRp2118
((I1
(L0L
tg21
I00
(lt(Nttba(lp2119
g17
(g25
(I0
tS'b'
tRp2120
(I1
(L0L
tg21
I00
(ltba(lp2121
g2118
atbsg120
S'+'
sbag1
(g10
g3
NtRp2122
(dp2123
g13
g1
(g14
g3
NtRp2124
((lp2125
g17
(g18
(I0
tS'b'
tRp2126
((I1
(L1L
tg21
I00
(lp2127
S'Val'
p2128
at(Nttba(lp2129
g17
(g25
(I0
tS'b'
tRp2130
(I1
(L1L
tg21
I00
(lp2131
g1
(g10
g3
NtRp2132
(dp2133
g13
g1
(g14
g3
NtRp2134
((lp2135
g17
(g18
(I0
tS'b'
tRp2136
((I1
(L1L
tg21
I00
(lp2137
S'Number'
p2138
at(Nttba(lp2139
g17
(g25
(I0
tS'b'
tRp2140
(I1
(L1L
tg21
I00
(lp2141
g1
(g10
g3
NtRp2142
(dp2143
g13
g1
(g14
g3
NtRp2144
((lp2145
g17
(g18
(I0
tS'b'
tRp2146
((I1
(L1L
tg21
I00
(lp2147
S'Int'
p2148
at(Nttba(lp2149
g17
(g25
(I0
tS'b'
tRp2150
(I1
(L1L
tg21
I00
(lp2151
g1
(g10
g3
NtRp2152
(dp2153
g13
g1
(g14
g3
NtRp2154
((lp2155
g17
(g18
(I0
tS'b'
tRp2156
((I1
(L1L
tg21
I00
(lp2157
S'_1_'
p2158
at(Nttba(lp2159
g17
(g25
(I0
tS'b'
tRp2160
(I1
(L1L
tg21
I00
(lp2161
g1
(g10
g3
NtRp2162
(dp2163
g13
g1
(g14
g3
NtRp2164
((lp2165
g17
(g18
(I0
tS'b'
tRp2166
((I1
(L0L
tg21
I00
(lt(Nttba(lp2167
g17
(g25
(I0
tS'b'
tRp2168
(I1
(L0L
tg21
I00
(ltba(lp2169
g2166
atbsg120
S'1'
sbatba(lp2170
g2156
atbsg120
g2148
sbatba(lp2171
g2146
atbsg120
g2138
sbatba(lp2172
g2136
atbsg120
g2128
sbatba(lp2173
g17
(g18
(I0
tS'b'
tRp2174
((I1
(L1L
tg21
I00
(lp2175
g2128
at(Nttbatbsg120
S'Expr'
p2176
sbatba(lp2177
g2051
atbsg120
g2043
sbatba(lp2178
g2041
atbsg120
S'Expr'
p2179
sbatba(lp2180
g2031
atbsg120
g2014
sbag1
(g10
g3
NtRp2181
(dp2182
g13
g1
(g14
g3
NtRp2183
((lp2184
g17
(g18
(I0
tS'b'
tRp2185
((I1
(L0L
tg21
I00
(lt(Nttba(lp2186
g17
(g25
(I0
tS'b'
tRp2187
(I1
(L0L
tg21
I00
(ltba(lp2188
g2185
atbsg120
S']'
sbatba(lp2189
g2011
atbsg120
g2003
sbatba(lp2190
g2001
atbsg120
g1993
sbatba(lp2191
g17
(g18
(I0
tS'b'
tRp2192
((I1
(L1L
tg21
I00
(lp2193
g1993
at(Nttbatbsg120
S'Expr'
p2194
sbag1
(g10
g3
NtRp2195
(dp2196
g13
g1
(g14
g3
NtRp2197
((lp2198
g17
(g18
(I0
tS'b'
tRp2199
((I1
(L0L
tg21
I00
(lt(Nttba(lp2200
g17
(g25
(I0
tS'b'
tRp2201
(I1
(L0L
tg21
I00
(ltba(lp2202
g2199
atbsg120
S'*'
sbag1
(g10
g3
NtRp2203
(dp2204
g13
g1
(g14
g3
NtRp2205
((lp2206
g17
(g18
(I0
tS'b'
tRp2207
((I1
(L1L
tg21
I00
(lp2208
S'Val'
p2209
at(Nttba(lp2210
g17
(g25
(I0
tS'b'
tRp2211
(I1
(L1L
tg21
I00
(lp2212
g1
(g10
g3
NtRp2213
(dp2214
g13
g1
(g14
g3
NtRp2215
((lp2216
g17
(g18
(I0
tS'b'
tRp2217
((I1
(L1L
tg21
I00
(lp2218
S'Number'
p2219
at(Nttba(lp2220
g17
(g25
(I0
tS'b'
tRp2221
(I1
(L1L
tg21
I00
(lp2222
g1
(g10
g3
NtRp2223
(dp2224
g13
g1
(g14
g3
NtRp2225
((lp2226
g17
(g18
(I0
tS'b'
tRp2227
((I1
(L1L
tg21
I00
(lp2228
S'Int'
p2229
at(Nttba(lp2230
g17
(g25
(I0
tS'b'
tRp2231
(I1
(L1L
tg21
I00
(lp2232
g1
(g10
g3
NtRp2233
(dp2234
g13
g1
(g14
g3
NtRp2235
((lp2236
g17
(g18
(I0
tS'b'
tRp2237
((I1
(L1L
tg21
I00
(lp2238
S'_10_'
p2239
at(Nttba(lp2240
g17
(g25
(I0
tS'b'
tRp2241
(I1
(L1L
tg21
I00
(lp2242
g1
(g10
g3
NtRp2243
(dp2244
g13
g1
(g14
g3
NtRp2245
((lp2246
g17
(g18
(I0
tS'b'
tRp2247
((I1
(L0L
tg21
I00
(lt(Nttba(lp2248
g17
(g25
(I0
tS'b'
tRp2249
(I1
(L0L
tg21
I00
(ltba(lp2250
g2247
atbsg120
S'10'
p2251
sbatba(lp2252
g2237
atbsg120
g2229
sbatba(lp2253
g2227
atbsg120
g2219
sbatba(lp2254
g2217
atbsg120
g2209
sbatba(lp2255
g17
(g18
(I0
tS'b'
tRp2256
((I1
(L1L
tg21
I00
(lp2257
g2209
at(Nttbatbsg120
S'Expr'
p2258
sbatba(lp2259
g1979
atbsg120
g1971
sbatba(lp2260
g1969
atbsg120
S'Expr'
p2261
sbatba(lp2262
g1959
atbsg120
g1891
sbatba(lp2263
g1887
atbsg120
g1879
sbatba(lp2264
g1877
atbsg120
g1868
sbag1
(g10
g3
NtRp2265
(dp2266
g13
g1
(g14
g3
NtRp2267
((lp2268
g17
(g18
(I0
tS'b'
tRp2269
((I1
(L0L
tg21
I00
(lt(Nttba(lp2270
g17
(g25
(I0
tS'b'
tRp2271
(I1
(L0L
tg21
I00
(ltba(lp2272
g2269
atbsg120
S';'
sbatba(lp2273
g1866
atbsg120
g1858
sbatba(lp2274
g1856
atbsg120
S'Stmt'
p2275
sbag1
(g10
g3
NtRp2276
(dp2277
g13
g1
(g14
g3
NtRp2278
((lp2279
g17
(g18
(I0
tS'b'
tRp2280
((I1
(L1L
tg21
I00
(lp2281
S'Block_stmt'
p2282
at(Nttba(lp2283
g17
(g25
(I0
tS'b'
tRp2284
(I1
(L1L
tg21
I00
(lp2285
g1
(g10
g3
NtRp2286
(dp2287
g13
g1
(g14
g3
NtRp2288
((lp2289
g17
(g18
(I0
tS'b'
tRp2290
((I1
(L2L
tg21
I00
(lp2291
S'Block_head'
p2292
aS'Block'
p2293
at(Nttba(lp2294
g17
(g25
(I0
tS'b'
tRp2295
(I1
(L2L
tg21
I00
(lp2296
g1
(g10
g3
NtRp2297
(dp2298
g13
g1
(g14
g3
NtRp2299
((lp2300
g17
(g18
(I0
tS'b'
tRp2301
((I1
(L1L
tg21
I00
(lp2302
S'Loop'
p2303
at(Nttba(lp2304
g17
(g25
(I0
tS'b'
tRp2305
(I1
(L1L
tg21
I00
(lp2306
g1
(g10
g3
NtRp2307
(dp2308
g13
g1
(g14
g3
NtRp2309
((lp2310
g17
(g18
(I0
tS'b'
tRp2311
((I1
(L1L
tg21
I00
(lp2312
S'For'
p2313
at(Nttba(lp2314
g17
(g25
(I0
tS'b'
tRp2315
(I1
(L1L
tg21
I00
(lp2316
g1
(g10
g3
NtRp2317
(dp2318
g13
g1
(g14
g3
NtRp2319
((lp2320
g17
(g18
(I0
tS'b'
tRp2321
((I1
(L4L
tg21
I00
(lp2322
S'_for_'
p2323
aS'Varlist'
p2324
aS'_in_'
p2325
aS'Exprlist'
p2326
at(Nttba(lp2327
g17
(g25
(I0
tS'b'
tRp2328
(I1
(L4L
tg21
I00
(lp2329
g1
(g10
g3
NtRp2330
(dp2331
g13
g1
(g14
g3
NtRp2332
((lp2333
g17
(g18
(I0
tS'b'
tRp2334
((I1
(L0L
tg21
I00
(lt(Nttba(lp2335
g17
(g25
(I0
tS'b'
tRp2336
(I1
(L0L
tg21
I00
(ltba(lp2337
g2334
atbsg120
S'for'
p2338
sbag1
(g10
g3
NtRp2339
(dp2340
g13
g1
(g14
g3
NtRp2341
((lp2342
g17
(g18
(I0
tS'b'
tRp2343
((I1
(L1L
tg21
I00
(lp2344
S'Vartuple'
p2345
at(Nttba(lp2346
g17
(g25
(I0
tS'b'
tRp2347
(I1
(L1L
tg21
I00
(lp2348
g1
(g10
g3
NtRp2349
(dp2350
g13
g1
(g14
g3
NtRp2351
((lp2352
g17
(g18
(I0
tS'b'
tRp2353
((I1
(L1L
tg21
I00
(lp2354
S'Var'
p2355
at(Nttba(lp2356
g17
(g25
(I0
tS'b'
tRp2357
(I1
(L1L
tg21
I00
(lp2358
g1
(g10
g3
NtRp2359
(dp2360
g13
g1
(g14
g3
NtRp2361
((lp2362
g17
(g18
(I0
tS'b'
tRp2363
((I1
(L1L
tg21
I00
(lp2364
S'Id'
p2365
at(Nttba(lp2366
g17
(g25
(I0
tS'b'
tRp2367
(I1
(L1L
tg21
I00
(lp2368
g1
(g10
g3
NtRp2369
(dp2370
g13
g1
(g14
g3
NtRp2371
((lp2372
g17
(g18
(I0
tS'b'
tRp2373
((I1
(L1L
tg21
I00
(lp2374
S'_i_'
p2375
at(Nttba(lp2376
g17
(g25
(I0
tS'b'
tRp2377
(I1
(L1L
tg21
I00
(lp2378
g1
(g10
g3
NtRp2379
(dp2380
g13
g1
(g14
g3
NtRp2381
((lp2382
g17
(g18
(I0
tS'b'
tRp2383
((I1
(L0L
tg21
I00
(lt(Nttba(lp2384
g17
(g25
(I0
tS'b'
tRp2385
(I1
(L0L
tg21
I00
(ltba(lp2386
g2383
atbsg120
S'i'
sbatba(lp2387
g2373
atbsg120
g2365
sbatba(lp2388
g2363
atbsg120
g2355
sbatba(lp2389
g2353
atbsg120
g2345
sbatba(lp2390
g2343
atbsg120
g2324
sbag1
(g10
g3
NtRp2391
(dp2392
g13
g1
(g14
g3
NtRp2393
((lp2394
g17
(g18
(I0
tS'b'
tRp2395
((I1
(L0L
tg21
I00
(lt(Nttba(lp2396
g17
(g25
(I0
tS'b'
tRp2397
(I1
(L0L
tg21
I00
(ltba(lp2398
g2395
atbsg120
S'in'
p2399
sbag1
(g10
g3
NtRp2400
(dp2401
g13
g1
(g14
g3
NtRp2402
((lp2403
g17
(g18
(I0
tS'b'
tRp2404
((I1
(L1L
tg21
I00
(lp2405
S'Expr'
p2406
at(Nttba(lp2407
g17
(g25
(I0
tS'b'
tRp2408
(I1
(L1L
tg21
I00
(lp2409
g1
(g10
g3
NtRp2410
(dp2411
g13
g1
(g14
g3
NtRp2412
((lp2413
g17
(g18
(I0
tS'b'
tRp2414
((I1
(L1L
tg21
I00
(lp2415
S'Funccall'
p2416
at(Nttba(lp2417
g17
(g25
(I0
tS'b'
tRp2418
(I1
(L1L
tg21
I00
(lp2419
g1
(g10
g3
NtRp2420
(dp2421
g13
g1
(g14
g3
NtRp2422
((lp2423
g17
(g18
(I0
tS'b'
tRp2424
((I1
(L4L
tg21
I00
(lp2425
S'Expr'
p2426
aS'_(_'
p2427
aS'Arglist'
p2428
aS'_)_'
p2429
at(Nttba(lp2430
g17
(g25
(I0
tS'b'
tRp2431
(I1
(L4L
tg21
I00
(lp2432
g1
(g10
g3
NtRp2433
(dp2434
g13
g1
(g14
g3
NtRp2435
((lp2436
g17
(g18
(I0
tS'b'
tRp2437
((I1
(L1L
tg21
I00
(lp2438
S'Val'
p2439
at(Nttba(lp2440
g17
(g25
(I0
tS'b'
tRp2441
(I1
(L1L
tg21
I00
(lp2442
g1
(g10
g3
NtRp2443
(dp2444
g13
g1
(g14
g3
NtRp2445
((lp2446
g17
(g18
(I0
tS'b'
tRp2447
((I1
(L1L
tg21
I00
(lp2448
S'Var'
p2449
at(Nttba(lp2450
g17
(g25
(I0
tS'b'
tRp2451
(I1
(L1L
tg21
I00
(lp2452
g1
(g10
g3
NtRp2453
(dp2454
g13
g1
(g14
g3
NtRp2455
((lp2456
g17
(g18
(I0
tS'b'
tRp2457
((I1
(L1L
tg21
I00
(lp2458
S'Id'
p2459
at(Nttba(lp2460
g17
(g25
(I0
tS'b'
tRp2461
(I1
(L1L
tg21
I00
(lp2462
g1
(g10
g3
NtRp2463
(dp2464
g13
g1
(g14
g3
NtRp2465
((lp2466
g17
(g18
(I0
tS'b'
tRp2467
((I1
(L1L
tg21
I00
(lp2468
S'_range_'
p2469
at(Nttba(lp2470
g17
(g25
(I0
tS'b'
tRp2471
(I1
(L1L
tg21
I00
(lp2472
g1
(g10
g3
NtRp2473
(dp2474
g13
g1
(g14
g3
NtRp2475
((lp2476
g17
(g18
(I0
tS'b'
tRp2477
((I1
(L0L
tg21
I00
(lt(Nttba(lp2478
g17
(g25
(I0
tS'b'
tRp2479
(I1
(L0L
tg21
I00
(ltba(lp2480
g2477
atbsg120
S'range'
p2481
sbatba(lp2482
g2467
atbsg120
g2459
sbatba(lp2483
g2457
atbsg120
g2449
sbatba(lp2484
g2447
atbsg120
g2439
sbatba(lp2485
g17
(g18
(I0
tS'b'
tRp2486
((I1
(L1L
tg21
I00
(lp2487
g2439
at(Nttbatbsg120
S'Expr'
p2488
sbag1
(g10
g3
NtRp2489
(dp2490
g13
g1
(g14
g3
NtRp2491
((lp2492
g17
(g18
(I0
tS'b'
tRp2493
((I1
(L0L
tg21
I00
(lt(Nttba(lp2494
g17
(g25
(I0
tS'b'
tRp2495
(I1
(L0L
tg21
I00
(ltba(lp2496
g2493
atbsg120
S'('
sbag1
(g10
g3
NtRp2497
(dp2498
g13
g1
(g14
g3
NtRp2499
((lp2500
g17
(g18
(I0
tS'b'
tRp2501
((I1
(L1L
tg21
I00
(lp2502
S'Pos_arglist'
p2503
at(Nttba(lp2504
g17
(g25
(I0
tS'b'
tRp2505
(I1
(L1L
tg21
I00
(lp2506
g1
(g10
g3
NtRp2507
(dp2508
g13
g1
(g14
g3
NtRp2509
((lp2510
g17
(g18
(I0
tS'b'
tRp2511
((I1
(L1L
tg21
I00
(lp2512
S'Pos_arg'
p2513
at(Nttba(lp2514
g17
(g25
(I0
tS'b'
tRp2515
(I1
(L1L
tg21
I00
(lp2516
g1
(g10
g3
NtRp2517
(dp2518
g13
g1
(g14
g3
NtRp2519
((lp2520
g17
(g18
(I0
tS'b'
tRp2521
((I1
(L1L
tg21
I00
(lp2522
S'Expr'
p2523
at(Nttba(lp2524
g17
(g25
(I0
tS'b'
tRp2525
(I1
(L1L
tg21
I00
(lp2526
g1
(g10
g3
NtRp2527
(dp2528
g13
g1
(g14
g3
NtRp2529
((lp2530
g17
(g18
(I0
tS'b'
tRp2531
((I1
(L1L
tg21
I00
(lp2532
S'Funccall'
p2533
at(Nttba(lp2534
g17
(g25
(I0
tS'b'
tRp2535
(I1
(L1L
tg21
I00
(lp2536
g1
(g10
g3
NtRp2537
(dp2538
g13
g1
(g14
g3
NtRp2539
((lp2540
g17
(g18
(I0
tS'b'
tRp2541
((I1
(L4L
tg21
I00
(lp2542
S'Expr'
p2543
aS'_(_'
p2544
aS'Arglist'
p2545
aS'_)_'
p2546
at(Nttba(lp2547
g17
(g25
(I0
tS'b'
tRp2548
(I1
(L4L
tg21
I00
(lp2549
g1
(g10
g3
NtRp2550
(dp2551
g13
g1
(g14
g3
NtRp2552
((lp2553
g17
(g18
(I0
tS'b'
tRp2554
((I1
(L1L
tg21
I00
(lp2555
S'Val'
p2556
at(Nttba(lp2557
g17
(g25
(I0
tS'b'
tRp2558
(I1
(L1L
tg21
I00
(lp2559
g1
(g10
g3
NtRp2560
(dp2561
g13
g1
(g14
g3
NtRp2562
((lp2563
g17
(g18
(I0
tS'b'
tRp2564
((I1
(L1L
tg21
I00
(lp2565
S'Var'
p2566
at(Nttba(lp2567
g17
(g25
(I0
tS'b'
tRp2568
(I1
(L1L
tg21
I00
(lp2569
g1
(g10
g3
NtRp2570
(dp2571
g13
g1
(g14
g3
NtRp2572
((lp2573
g17
(g18
(I0
tS'b'
tRp2574
((I1
(L1L
tg21
I00
(lp2575
S'Id'
p2576
at(Nttba(lp2577
g17
(g25
(I0
tS'b'
tRp2578
(I1
(L1L
tg21
I00
(lp2579
g1
(g10
g3
NtRp2580
(dp2581
g13
g1
(g14
g3
NtRp2582
((lp2583
g17
(g18
(I0
tS'b'
tRp2584
((I1
(L1L
tg21
I00
(lp2585
S'_len_'
p2586
at(Nttba(lp2587
g17
(g25
(I0
tS'b'
tRp2588
(I1
(L1L
tg21
I00
(lp2589
g1
(g10
g3
NtRp2590
(dp2591
g13
g1
(g14
g3
NtRp2592
((lp2593
g17
(g18
(I0
tS'b'
tRp2594
((I1
(L0L
tg21
I00
(lt(Nttba(lp2595
g17
(g25
(I0
tS'b'
tRp2596
(I1
(L0L
tg21
I00
(ltba(lp2597
g2594
atbsg120
S'len'
p2598
sbatba(lp2599
g2584
atbsg120
g2576
sbatba(lp2600
g2574
atbsg120
g2566
sbatba(lp2601
g2564
atbsg120
g2556
sbatba(lp2602
g17
(g18
(I0
tS'b'
tRp2603
((I1
(L1L
tg21
I00
(lp2604
g2556
at(Nttbatbsg120
S'Expr'
p2605
sbag1
(g10
g3
NtRp2606
(dp2607
g13
g1
(g14
g3
NtRp2608
((lp2609
g17
(g18
(I0
tS'b'
tRp2610
((I1
(L0L
tg21
I00
(lt(Nttba(lp2611
g17
(g25
(I0
tS'b'
tRp2612
(I1
(L0L
tg21
I00
(ltba(lp2613
g2610
atbsg120
S'('
sbag1
(g10
g3
NtRp2614
(dp2615
g13
g1
(g14
g3
NtRp2616
((lp2617
g17
(g18
(I0
tS'b'
tRp2618
((I1
(L1L
tg21
I00
(lp2619
S'Pos_arglist'
p2620
at(Nttba(lp2621
g17
(g25
(I0
tS'b'
tRp2622
(I1
(L1L
tg21
I00
(lp2623
g1
(g10
g3
NtRp2624
(dp2625
g13
g1
(g14
g3
NtRp2626
((lp2627
g17
(g18
(I0
tS'b'
tRp2628
((I1
(L1L
tg21
I00
(lp2629
S'Pos_arg'
p2630
at(Nttba(lp2631
g17
(g25
(I0
tS'b'
tRp2632
(I1
(L1L
tg21
I00
(lp2633
g1
(g10
g3
NtRp2634
(dp2635
g13
g1
(g14
g3
NtRp2636
((lp2637
g17
(g18
(I0
tS'b'
tRp2638
((I1
(L1L
tg21
I00
(lp2639
S'Expr'
p2640
at(Nttba(lp2641
g17
(g25
(I0
tS'b'
tRp2642
(I1
(L1L
tg21
I00
(lp2643
g1
(g10
g3
NtRp2644
(dp2645
g13
g1
(g14
g3
NtRp2646
((lp2647
g17
(g18
(I0
tS'b'
tRp2648
((I1
(L1L
tg21
I00
(lp2649
S'Val'
p2650
at(Nttba(lp2651
g17
(g25
(I0
tS'b'
tRp2652
(I1
(L1L
tg21
I00
(lp2653
g1
(g10
g3
NtRp2654
(dp2655
g13
g1
(g14
g3
NtRp2656
((lp2657
g17
(g18
(I0
tS'b'
tRp2658
((I1
(L1L
tg21
I00
(lp2659
S'Var'
p2660
at(Nttba(lp2661
g17
(g25
(I0
tS'b'
tRp2662
(I1
(L1L
tg21
I00
(lp2663
g1
(g10
g3
NtRp2664
(dp2665
g13
g1
(g14
g3
NtRp2666
((lp2667
g17
(g18
(I0
tS'b'
tRp2668
((I1
(L1L
tg21
I00
(lp2669
S'Id'
p2670
at(Nttba(lp2671
g17
(g25
(I0
tS'b'
tRp2672
(I1
(L1L
tg21
I00
(lp2673
g1
(g10
g3
NtRp2674
(dp2675
g13
g1
(g14
g3
NtRp2676
((lp2677
g17
(g18
(I0
tS'b'
tRp2678
((I1
(L1L
tg21
I00
(lp2679
S'_L_'
p2680
at(Nttba(lp2681
g17
(g25
(I0
tS'b'
tRp2682
(I1
(L1L
tg21
I00
(lp2683
g1
(g10
g3
NtRp2684
(dp2685
g13
g1
(g14
g3
NtRp2686
((lp2687
g17
(g18
(I0
tS'b'
tRp2688
((I1
(L0L
tg21
I00
(lt(Nttba(lp2689
g17
(g25
(I0
tS'b'
tRp2690
(I1
(L0L
tg21
I00
(ltba(lp2691
g2688
atbsg120
S'L'
sbatba(lp2692
g2678
atbsg120
g2670
sbatba(lp2693
g2668
atbsg120
g2660
sbatba(lp2694
g2658
atbsg120
g2650
sbatba(lp2695
g17
(g18
(I0
tS'b'
tRp2696
((I1
(L1L
tg21
I00
(lp2697
g2650
at(Nttbatbsg120
S'Expr'
p2698
sbatba(lp2699
g2638
atbsg120
g2630
sbatba(lp2700
g2628
atbsg120
g2620
sbatba(lp2701
g2618
atbsg120
g2545
sbag1
(g10
g3
NtRp2702
(dp2703
g13
g1
(g14
g3
NtRp2704
((lp2705
g17
(g18
(I0
tS'b'
tRp2706
((I1
(L0L
tg21
I00
(lt(Nttba(lp2707
g17
(g25
(I0
tS'b'
tRp2708
(I1
(L0L
tg21
I00
(ltba(lp2709
g2706
atbsg120
S')'
sbatba(lp2710
g2541
atbsg120
g2533
sbatba(lp2711
g2531
atbsg120
S'Expr'
p2712
sbatba(lp2713
g2521
atbsg120
g2513
sbatba(lp2714
g2511
atbsg120
g2503
sbatba(lp2715
g2501
atbsg120
g2428
sbag1
(g10
g3
NtRp2716
(dp2717
g13
g1
(g14
g3
NtRp2718
((lp2719
g17
(g18
(I0
tS'b'
tRp2720
((I1
(L0L
tg21
I00
(lt(Nttba(lp2721
g17
(g25
(I0
tS'b'
tRp2722
(I1
(L0L
tg21
I00
(ltba(lp2723
g2720
atbsg120
S')'
sbatba(lp2724
g2424
atbsg120
g2416
sbatba(lp2725
g2414
atbsg120
S'Expr'
p2726
sbatba(lp2727
g2404
atbsg120
g2326
sbatba(lp2728
g2321
atbsg120
g2313
sbatba(lp2729
g2311
atbsg120
g2303
sbatba(lp2730
g2301
atbsg120
g2292
sbag1
(g10
g3
NtRp2731
(dp2732
g13
g1
(g14
g3
NtRp2733
((lp2734
g17
(g18
(I0
tS'b'
tRp2735
((I1
(L3L
tg21
I00
(lp2736
S'Blockbegin'
p2737
aS'Prog'
p2738
aS'Blockend'
p2739
at(Nttba(lp2740
g17
(g25
(I0
tS'b'
tRp2741
(I1
(L3L
tg21
I00
(lp2742
g1
(g10
g3
NtRp2743
(dp2744
g13
g1
(g14
g3
NtRp2745
((lp2746
g17
(g18
(I0
tS'b'
tRp2747
((I1
(L1L
tg21
I00
(lp2748
S'_:$blockbegin_'
p2749
at(Nttba(lp2750
g17
(g25
(I0
tS'b'
tRp2751
(I1
(L1L
tg21
I00
(lp2752
g1
(g10
g3
NtRp2753
(dp2754
g13
g1
(g14
g3
NtRp2755
((lp2756
g17
(g18
(I0
tS'b'
tRp2757
((I1
(L0L
tg21
I00
(lt(Nttba(lp2758
g17
(g25
(I0
tS'b'
tRp2759
(I1
(L0L
tg21
I00
(ltba(lp2760
g2757
atbsg120
S':$blockbegin'
p2761
sbatba(lp2762
g2747
atbsg120
g2737
sbag1
(g10
g3
NtRp2763
(dp2764
g13
g1
(g14
g3
NtRp2765
((lp2766
g17
(g18
(I0
tS'b'
tRp2767
((I1
(L1L
tg21
I00
(lp2768
S'Stmt'
p2769
at(Nttba(lp2770
g17
(g25
(I0
tS'b'
tRp2771
(I1
(L1L
tg21
I00
(lp2772
g1
(g10
g3
NtRp2773
(dp2774
g13
g1
(g14
g3
NtRp2775
((lp2776
g17
(g18
(I0
tS'b'
tRp2777
((I1
(L1L
tg21
I00
(lp2778
S'Block_stmt'
p2779
at(Nttba(lp2780
g17
(g25
(I0
tS'b'
tRp2781
(I1
(L1L
tg21
I00
(lp2782
g1
(g10
g3
NtRp2783
(dp2784
g13
g1
(g14
g3
NtRp2785
((lp2786
g17
(g18
(I0
tS'b'
tRp2787
((I1
(L1L
tg21
I00
(lp2788
S'Ifelse'
p2789
at(Nttba(lp2790
g17
(g25
(I0
tS'b'
tRp2791
(I1
(L1L
tg21
I00
(lp2792
g1
(g10
g3
NtRp2793
(dp2794
g13
g1
(g14
g3
NtRp2795
((lp2796
g17
(g18
(I0
tS'b'
tRp2797
((I1
(L4L
tg21
I00
(lp2798
S'If'
p2799
aS'Block1'
p2800
aS'Else'
p2801
aS'Block2'
p2802
at(Nttba(lp2803
g17
(g25
(I0
tS'b'
tRp2804
(I1
(L4L
tg21
I00
(lp2805
g1
(g10
g3
NtRp2806
(dp2807
g13
g1
(g14
g3
NtRp2808
((lp2809
g17
(g18
(I0
tS'b'
tRp2810
((I1
(L2L
tg21
I00
(lp2811
S'_if_'
p2812
aS'Expr'
p2813
at(Nttba(lp2814
g17
(g25
(I0
tS'b'
tRp2815
(I1
(L2L
tg21
I00
(lp2816
g1
(g10
g3
NtRp2817
(dp2818
g13
g1
(g14
g3
NtRp2819
((lp2820
g17
(g18
(I0
tS'b'
tRp2821
((I1
(L0L
tg21
I00
(lt(Nttba(lp2822
g17
(g25
(I0
tS'b'
tRp2823
(I1
(L0L
tg21
I00
(ltba(lp2824
g2821
atbsg120
S'if'
p2825
sbag1
(g10
g3
NtRp2826
(dp2827
g13
g1
(g14
g3
NtRp2828
((lp2829
g17
(g18
(I0
tS'b'
tRp2830
((I1
(L1L
tg21
I00
(lp2831
S'Comparison'
p2832
at(Nttba(lp2833
g17
(g25
(I0
tS'b'
tRp2834
(I1
(L1L
tg21
I00
(lp2835
g1
(g10
g3
NtRp2836
(dp2837
g13
g1
(g14
g3
NtRp2838
((lp2839
g17
(g18
(I0
tS'b'
tRp2840
((I1
(L3L
tg21
I00
(lp2841
S'Expr1'
p2842
aS'Op_cmp'
p2843
aS'Expr2'
p2844
at(Nttba(lp2845
g17
(g25
(I0
tS'b'
tRp2846
(I1
(L3L
tg21
I00
(lp2847
g1
(g10
g3
NtRp2848
(dp2849
g13
g1
(g14
g3
NtRp2850
((lp2851
g17
(g18
(I0
tS'b'
tRp2852
((I1
(L1L
tg21
I00
(lp2853
S'Val'
p2854
at(Nttba(lp2855
g17
(g25
(I0
tS'b'
tRp2856
(I1
(L1L
tg21
I00
(lp2857
g1
(g10
g3
NtRp2858
(dp2859
g13
g1
(g14
g3
NtRp2860
((lp2861
g17
(g18
(I0
tS'b'
tRp2862
((I1
(L1L
tg21
I00
(lp2863
S'Var'
p2864
at(Nttba(lp2865
g17
(g25
(I0
tS'b'
tRp2866
(I1
(L1L
tg21
I00
(lp2867
g1
(g10
g3
NtRp2868
(dp2869
g13
g1
(g14
g3
NtRp2870
((lp2871
g17
(g18
(I0
tS'b'
tRp2872
((I1
(L1L
tg21
I00
(lp2873
S'Id'
p2874
at(Nttba(lp2875
g17
(g25
(I0
tS'b'
tRp2876
(I1
(L1L
tg21
I00
(lp2877
g1
(g10
g3
NtRp2878
(dp2879
g13
g1
(g14
g3
NtRp2880
((lp2881
g17
(g18
(I0
tS'b'
tRp2882
((I1
(L1L
tg21
I00
(lp2883
S'_i_'
p2884
at(Nttba(lp2885
g17
(g25
(I0
tS'b'
tRp2886
(I1
(L1L
tg21
I00
(lp2887
g1
(g10
g3
NtRp2888
(dp2889
g13
g1
(g14
g3
NtRp2890
((lp2891
g17
(g18
(I0
tS'b'
tRp2892
((I1
(L0L
tg21
I00
(lt(Nttba(lp2893
g17
(g25
(I0
tS'b'
tRp2894
(I1
(L0L
tg21
I00
(ltba(lp2895
g2892
atbsg120
S'i'
sbatba(lp2896
g2882
atbsg120
g2874
sbatba(lp2897
g2872
atbsg120
g2864
sbatba(lp2898
g2862
atbsg120
g2854
sbatba(lp2899
g17
(g18
(I0
tS'b'
tRp2900
((I1
(L1L
tg21
I00
(lp2901
g2854
at(Nttbatbsg120
S'Expr'
p2902
sbag1
(g10
g3
NtRp2903
(dp2904
g13
g1
(g14
g3
NtRp2905
((lp2906
g17
(g18
(I0
tS'b'
tRp2907
((I1
(L1L
tg21
I00
(lp2908
S'_>_'
p2909
at(Nttba(lp2910
g17
(g25
(I0
tS'b'
tRp2911
(I1
(L1L
tg21
I00
(lp2912
g1
(g10
g3
NtRp2913
(dp2914
g13
g1
(g14
g3
NtRp2915
((lp2916
g17
(g18
(I0
tS'b'
tRp2917
((I1
(L0L
tg21
I00
(lt(Nttba(lp2918
g17
(g25
(I0
tS'b'
tRp2919
(I1
(L0L
tg21
I00
(ltba(lp2920
g2917
atbsg120
S'>'
sbatba(lp2921
g2907
atbsg120
g2843
sbag1
(g10
g3
NtRp2922
(dp2923
g13
g1
(g14
g3
NtRp2924
((lp2925
g17
(g18
(I0
tS'b'
tRp2926
((I1
(L1L
tg21
I00
(lp2927
S'Val'
p2928
at(Nttba(lp2929
g17
(g25
(I0
tS'b'
tRp2930
(I1
(L1L
tg21
I00
(lp2931
g1
(g10
g3
NtRp2932
(dp2933
g13
g1
(g14
g3
NtRp2934
((lp2935
g17
(g18
(I0
tS'b'
tRp2936
((I1
(L1L
tg21
I00
(lp2937
S'Number'
p2938
at(Nttba(lp2939
g17
(g25
(I0
tS'b'
tRp2940
(I1
(L1L
tg21
I00
(lp2941
g1
(g10
g3
NtRp2942
(dp2943
g13
g1
(g14
g3
NtRp2944
((lp2945
g17
(g18
(I0
tS'b'
tRp2946
((I1
(L1L
tg21
I00
(lp2947
S'Int'
p2948
at(Nttba(lp2949
g17
(g25
(I0
tS'b'
tRp2950
(I1
(L1L
tg21
I00
(lp2951
g1
(g10
g3
NtRp2952
(dp2953
g13
g1
(g14
g3
NtRp2954
((lp2955
g17
(g18
(I0
tS'b'
tRp2956
((I1
(L1L
tg21
I00
(lp2957
S'_3_'
p2958
at(Nttba(lp2959
g17
(g25
(I0
tS'b'
tRp2960
(I1
(L1L
tg21
I00
(lp2961
g1
(g10
g3
NtRp2962
(dp2963
g13
g1
(g14
g3
NtRp2964
((lp2965
g17
(g18
(I0
tS'b'
tRp2966
((I1
(L0L
tg21
I00
(lt(Nttba(lp2967
g17
(g25
(I0
tS'b'
tRp2968
(I1
(L0L
tg21
I00
(ltba(lp2969
g2966
atbsg120
S'3'
sbatba(lp2970
g2956
atbsg120
g2948
sbatba(lp2971
g2946
atbsg120
g2938
sbatba(lp2972
g2936
atbsg120
g2928
sbatba(lp2973
g17
(g18
(I0
tS'b'
tRp2974
((I1
(L1L
tg21
I00
(lp2975
g2928
at(Nttbatbsg120
S'Expr'
p2976
sbatba(lp2977
g2840
atbsg120
g2832
sbatba(lp2978
g2830
atbsg120
S'Expr'
p2979
sbatba(lp2980
g2810
atbsg120
g2799
sbag1
(g10
g3
NtRp2981
(dp2982
g13
g1
(g14
g3
NtRp2983
((lp2984
g17
(g18
(I0
tS'b'
tRp2985
((I1
(L3L
tg21
I00
(lp2986
S'Blockbegin'
p2987
aS'Prog'
p2988
aS'Blockend'
p2989
at(Nttba(lp2990
g17
(g25
(I0
tS'b'
tRp2991
(I1
(L3L
tg21
I00
(lp2992
g1
(g10
g3
NtRp2993
(dp2994
g13
g1
(g14
g3
NtRp2995
((lp2996
g17
(g18
(I0
tS'b'
tRp2997
((I1
(L1L
tg21
I00
(lp2998
S'_:$blockbegin_'
p2999
at(Nttba(lp3000
g17
(g25
(I0
tS'b'
tRp3001
(I1
(L1L
tg21
I00
(lp3002
g1
(g10
g3
NtRp3003
(dp3004
g13
g1
(g14
g3
NtRp3005
((lp3006
g17
(g18
(I0
tS'b'
tRp3007
((I1
(L0L
tg21
I00
(lt(Nttba(lp3008
g17
(g25
(I0
tS'b'
tRp3009
(I1
(L0L
tg21
I00
(ltba(lp3010
g3007
atbsg120
S':$blockbegin'
p3011
sbatba(lp3012
g2997
atbsg120
g2987
sbag1
(g10
g3
NtRp3013
(dp3014
g13
g1
(g14
g3
NtRp3015
((lp3016
g17
(g18
(I0
tS'b'
tRp3017
((I1
(L1L
tg21
I00
(lp3018
S'Stmt'
p3019
at(Nttba(lp3020
g17
(g25
(I0
tS'b'
tRp3021
(I1
(L1L
tg21
I00
(lp3022
g1
(g10
g3
NtRp3023
(dp3024
g13
g1
(g14
g3
NtRp3025
((lp3026
g17
(g18
(I0
tS'b'
tRp3027
((I1
(L1L
tg21
I00
(lp3028
S'Single_stmt'
p3029
at(Nttba(lp3030
g17
(g25
(I0
tS'b'
tRp3031
(I1
(L1L
tg21
I00
(lp3032
g1
(g10
g3
NtRp3033
(dp3034
g13
g1
(g14
g3
NtRp3035
((lp3036
g17
(g18
(I0
tS'b'
tRp3037
((I1
(L2L
tg21
I00
(lp3038
S'Assign_stmt'
p3039
aS'_;_'
p3040
at(Nttba(lp3041
g17
(g25
(I0
tS'b'
tRp3042
(I1
(L2L
tg21
I00
(lp3043
g1
(g10
g3
NtRp3044
(dp3045
g13
g1
(g14
g3
NtRp3046
((lp3047
g17
(g18
(I0
tS'b'
tRp3048
((I1
(L1L
tg21
I00
(lp3049
S'Assign'
p3050
at(Nttba(lp3051
g17
(g25
(I0
tS'b'
tRp3052
(I1
(L1L
tg21
I00
(lp3053
g1
(g10
g3
NtRp3054
(dp3055
g13
g1
(g14
g3
NtRp3056
((lp3057
g17
(g18
(I0
tS'b'
tRp3058
((I1
(L3L
tg21
I00
(lp3059
S'Varlist'
p3060
aS'_=_'
p3061
aS'Exprlist'
p3062
at(Nttba(lp3063
g17
(g25
(I0
tS'b'
tRp3064
(I1
(L3L
tg21
I00
(lp3065
g1
(g10
g3
NtRp3066
(dp3067
g13
g1
(g14
g3
NtRp3068
((lp3069
g17
(g18
(I0
tS'b'
tRp3070
((I1
(L1L
tg21
I00
(lp3071
S'Vartuple'
p3072
at(Nttba(lp3073
g17
(g25
(I0
tS'b'
tRp3074
(I1
(L1L
tg21
I00
(lp3075
g1
(g10
g3
NtRp3076
(dp3077
g13
g1
(g14
g3
NtRp3078
((lp3079
g17
(g18
(I0
tS'b'
tRp3080
((I1
(L1L
tg21
I00
(lp3081
S'Var'
p3082
at(Nttba(lp3083
g17
(g25
(I0
tS'b'
tRp3084
(I1
(L1L
tg21
I00
(lp3085
g1
(g10
g3
NtRp3086
(dp3087
g13
g1
(g14
g3
NtRp3088
((lp3089
g17
(g18
(I0
tS'b'
tRp3090
((I1
(L4L
tg21
I00
(lp3091
S'Var'
p3092
aS'_[_'
p3093
aS'Slice'
p3094
aS'_]_'
p3095
at(Nttba(lp3096
g17
(g25
(I0
tS'b'
tRp3097
(I1
(L4L
tg21
I00
(lp3098
g1
(g10
g3
NtRp3099
(dp3100
g13
g1
(g14
g3
NtRp3101
((lp3102
g17
(g18
(I0
tS'b'
tRp3103
((I1
(L1L
tg21
I00
(lp3104
S'Id'
p3105
at(Nttba(lp3106
g17
(g25
(I0
tS'b'
tRp3107
(I1
(L1L
tg21
I00
(lp3108
g1
(g10
g3
NtRp3109
(dp3110
g13
g1
(g14
g3
NtRp3111
((lp3112
g17
(g18
(I0
tS'b'
tRp3113
((I1
(L1L
tg21
I00
(lp3114
S'_L_'
p3115
at(Nttba(lp3116
g17
(g25
(I0
tS'b'
tRp3117
(I1
(L1L
tg21
I00
(lp3118
g1
(g10
g3
NtRp3119
(dp3120
g13
g1
(g14
g3
NtRp3121
((lp3122
g17
(g18
(I0
tS'b'
tRp3123
((I1
(L0L
tg21
I00
(lt(Nttba(lp3124
g17
(g25
(I0
tS'b'
tRp3125
(I1
(L0L
tg21
I00
(ltba(lp3126
g3123
atbsg120
S'L'
sbatba(lp3127
g3113
atbsg120
g3105
sbatba(lp3128
g3103
atbsg120
g3092
sbag1
(g10
g3
NtRp3129
(dp3130
g13
g1
(g14
g3
NtRp3131
((lp3132
g17
(g18
(I0
tS'b'
tRp3133
((I1
(L0L
tg21
I00
(lt(Nttba(lp3134
g17
(g25
(I0
tS'b'
tRp3135
(I1
(L0L
tg21
I00
(ltba(lp3136
g3133
atbsg120
S'['
sbag1
(g10
g3
NtRp3137
(dp3138
g13
g1
(g14
g3
NtRp3139
((lp3140
g17
(g18
(I0
tS'b'
tRp3141
((I1
(L1L
tg21
I00
(lp3142
S'Expr'
p3143
at(Nttba(lp3144
g17
(g25
(I0
tS'b'
tRp3145
(I1
(L1L
tg21
I00
(lp3146
g1
(g10
g3
NtRp3147
(dp3148
g13
g1
(g14
g3
NtRp3149
((lp3150
g17
(g18
(I0
tS'b'
tRp3151
((I1
(L1L
tg21
I00
(lp3152
S'Val'
p3153
at(Nttba(lp3154
g17
(g25
(I0
tS'b'
tRp3155
(I1
(L1L
tg21
I00
(lp3156
g1
(g10
g3
NtRp3157
(dp3158
g13
g1
(g14
g3
NtRp3159
((lp3160
g17
(g18
(I0
tS'b'
tRp3161
((I1
(L1L
tg21
I00
(lp3162
S'Var'
p3163
at(Nttba(lp3164
g17
(g25
(I0
tS'b'
tRp3165
(I1
(L1L
tg21
I00
(lp3166
g1
(g10
g3
NtRp3167
(dp3168
g13
g1
(g14
g3
NtRp3169
((lp3170
g17
(g18
(I0
tS'b'
tRp3171
((I1
(L1L
tg21
I00
(lp3172
S'Id'
p3173
at(Nttba(lp3174
g17
(g25
(I0
tS'b'
tRp3175
(I1
(L1L
tg21
I00
(lp3176
g1
(g10
g3
NtRp3177
(dp3178
g13
g1
(g14
g3
NtRp3179
((lp3180
g17
(g18
(I0
tS'b'
tRp3181
((I1
(L1L
tg21
I00
(lp3182
S'_i_'
p3183
at(Nttba(lp3184
g17
(g25
(I0
tS'b'
tRp3185
(I1
(L1L
tg21
I00
(lp3186
g1
(g10
g3
NtRp3187
(dp3188
g13
g1
(g14
g3
NtRp3189
((lp3190
g17
(g18
(I0
tS'b'
tRp3191
((I1
(L0L
tg21
I00
(lt(Nttba(lp3192
g17
(g25
(I0
tS'b'
tRp3193
(I1
(L0L
tg21
I00
(ltba(lp3194
g3191
atbsg120
S'i'
sbatba(lp3195
g3181
atbsg120
g3173
sbatba(lp3196
g3171
atbsg120
g3163
sbatba(lp3197
g3161
atbsg120
g3153
sbatba(lp3198
g17
(g18
(I0
tS'b'
tRp3199
((I1
(L1L
tg21
I00
(lp3200
g3153
at(Nttbatbsg120
S'Expr'
p3201
sbatba(lp3202
g3141
atbsg120
g3094
sbag1
(g10
g3
NtRp3203
(dp3204
g13
g1
(g14
g3
NtRp3205
((lp3206
g17
(g18
(I0
tS'b'
tRp3207
((I1
(L0L
tg21
I00
(lt(Nttba(lp3208
g17
(g25
(I0
tS'b'
tRp3209
(I1
(L0L
tg21
I00
(ltba(lp3210
g3207
atbsg120
S']'
sbatba(lp3211
g3090
atbsg120
g3082
sbatba(lp3212
g3080
atbsg120
g3072
sbatba(lp3213
g3070
atbsg120
g3060
sbag1
(g10
g3
NtRp3214
(dp3215
g13
g1
(g14
g3
NtRp3216
((lp3217
g17
(g18
(I0
tS'b'
tRp3218
((I1
(L0L
tg21
I00
(lt(Nttba(lp3219
g17
(g25
(I0
tS'b'
tRp3220
(I1
(L0L
tg21
I00
(ltba(lp3221
g3218
atbsg120
S'='
sbag1
(g10
g3
NtRp3222
(dp3223
g13
g1
(g14
g3
NtRp3224
((lp3225
g17
(g18
(I0
tS'b'
tRp3226
((I1
(L1L
tg21
I00
(lp3227
S'Expr'
p3228
at(Nttba(lp3229
g17
(g25
(I0
tS'b'
tRp3230
(I1
(L1L
tg21
I00
(lp3231
g1
(g10
g3
NtRp3232
(dp3233
g13
g1
(g14
g3
NtRp3234
((lp3235
g17
(g18
(I0
tS'b'
tRp3236
((I1
(L1L
tg21
I00
(lp3237
S'Funccall'
p3238
at(Nttba(lp3239
g17
(g25
(I0
tS'b'
tRp3240
(I1
(L1L
tg21
I00
(lp3241
g1
(g10
g3
NtRp3242
(dp3243
g13
g1
(g14
g3
NtRp3244
((lp3245
g17
(g18
(I0
tS'b'
tRp3246
((I1
(L4L
tg21
I00
(lp3247
S'Expr'
p3248
aS'_(_'
p3249
aS'Arglist'
p3250
aS'_)_'
p3251
at(Nttba(lp3252
g17
(g25
(I0
tS'b'
tRp3253
(I1
(L4L
tg21
I00
(lp3254
g1
(g10
g3
NtRp3255
(dp3256
g13
g1
(g14
g3
NtRp3257
((lp3258
g17
(g18
(I0
tS'b'
tRp3259
((I1
(L1L
tg21
I00
(lp3260
S'Val'
p3261
at(Nttba(lp3262
g17
(g25
(I0
tS'b'
tRp3263
(I1
(L1L
tg21
I00
(lp3264
g1
(g10
g3
NtRp3265
(dp3266
g13
g1
(g14
g3
NtRp3267
((lp3268
g17
(g18
(I0
tS'b'
tRp3269
((I1
(L1L
tg21
I00
(lp3270
S'Var'
p3271
at(Nttba(lp3272
g17
(g25
(I0
tS'b'
tRp3273
(I1
(L1L
tg21
I00
(lp3274
g1
(g10
g3
NtRp3275
(dp3276
g13
g1
(g14
g3
NtRp3277
((lp3278
g17
(g18
(I0
tS'b'
tRp3279
((I1
(L1L
tg21
I00
(lp3280
S'Id'
p3281
at(Nttba(lp3282
g17
(g25
(I0
tS'b'
tRp3283
(I1
(L1L
tg21
I00
(lp3284
g1
(g10
g3
NtRp3285
(dp3286
g13
g1
(g14
g3
NtRp3287
((lp3288
g17
(g18
(I0
tS'b'
tRp3289
((I1
(L1L
tg21
I00
(lp3290
S'_f_'
p3291
at(Nttba(lp3292
g17
(g25
(I0
tS'b'
tRp3293
(I1
(L1L
tg21
I00
(lp3294
g1
(g10
g3
NtRp3295
(dp3296
g13
g1
(g14
g3
NtRp3297
((lp3298
g17
(g18
(I0
tS'b'
tRp3299
((I1
(L0L
tg21
I00
(lt(Nttba(lp3300
g17
(g25
(I0
tS'b'
tRp3301
(I1
(L0L
tg21
I00
(ltba(lp3302
g3299
atbsg120
S'f'
sbatba(lp3303
g3289
atbsg120
g3281
sbatba(lp3304
g3279
atbsg120
g3271
sbatba(lp3305
g3269
atbsg120
g3261
sbatba(lp3306
g17
(g18
(I0
tS'b'
tRp3307
((I1
(L1L
tg21
I00
(lp3308
g3261
at(Nttbatbsg120
S'Expr'
p3309
sbag1
(g10
g3
NtRp3310
(dp3311
g13
g1
(g14
g3
NtRp3312
((lp3313
g17
(g18
(I0
tS'b'
tRp3314
((I1
(L0L
tg21
I00
(lt(Nttba(lp3315
g17
(g25
(I0
tS'b'
tRp3316
(I1
(L0L
tg21
I00
(ltba(lp3317
g3314
atbsg120
S'('
sbag1
(g10
g3
NtRp3318
(dp3319
g13
g1
(g14
g3
NtRp3320
((lp3321
g17
(g18
(I0
tS'b'
tRp3322
((I1
(L1L
tg21
I00
(lp3323
S'Pos_arglist'
p3324
at(Nttba(lp3325
g17
(g25
(I0
tS'b'
tRp3326
(I1
(L1L
tg21
I00
(lp3327
g1
(g10
g3
NtRp3328
(dp3329
g13
g1
(g14
g3
NtRp3330
((lp3331
g17
(g18
(I0
tS'b'
tRp3332
((I1
(L1L
tg21
I00
(lp3333
S'Pos_arg'
p3334
at(Nttba(lp3335
g17
(g25
(I0
tS'b'
tRp3336
(I1
(L1L
tg21
I00
(lp3337
g1
(g10
g3
NtRp3338
(dp3339
g13
g1
(g14
g3
NtRp3340
((lp3341
g17
(g18
(I0
tS'b'
tRp3342
((I1
(L1L
tg21
I00
(lp3343
S'Expr'
p3344
at(Nttba(lp3345
g17
(g25
(I0
tS'b'
tRp3346
(I1
(L1L
tg21
I00
(lp3347
g1
(g10
g3
NtRp3348
(dp3349
g13
g1
(g14
g3
NtRp3350
((lp3351
g17
(g18
(I0
tS'b'
tRp3352
((I1
(L1L
tg21
I00
(lp3353
S'Dash_calc'
p3354
at(Nttba(lp3355
g17
(g25
(I0
tS'b'
tRp3356
(I1
(L1L
tg21
I00
(lp3357
g1
(g10
g3
NtRp3358
(dp3359
g13
g1
(g14
g3
NtRp3360
((lp3361
g17
(g18
(I0
tS'b'
tRp3362
((I1
(L3L
tg21
I00
(lp3363
S'Expr1'
p3364
aS'_+_'
p3365
aS'Expr2'
p3366
at(Nttba(lp3367
g17
(g25
(I0
tS'b'
tRp3368
(I1
(L3L
tg21
I00
(lp3369
g1
(g10
g3
NtRp3370
(dp3371
g13
g1
(g14
g3
NtRp3372
((lp3373
g17
(g18
(I0
tS'b'
tRp3374
((I1
(L1L
tg21
I00
(lp3375
S'Val'
p3376
at(Nttba(lp3377
g17
(g25
(I0
tS'b'
tRp3378
(I1
(L1L
tg21
I00
(lp3379
g1
(g10
g3
NtRp3380
(dp3381
g13
g1
(g14
g3
NtRp3382
((lp3383
g17
(g18
(I0
tS'b'
tRp3384
((I1
(L1L
tg21
I00
(lp3385
S'Var'
p3386
at(Nttba(lp3387
g17
(g25
(I0
tS'b'
tRp3388
(I1
(L1L
tg21
I00
(lp3389
g1
(g10
g3
NtRp3390
(dp3391
g13
g1
(g14
g3
NtRp3392
((lp3393
g17
(g18
(I0
tS'b'
tRp3394
((I1
(L1L
tg21
I00
(lp3395
S'Id'
p3396
at(Nttba(lp3397
g17
(g25
(I0
tS'b'
tRp3398
(I1
(L1L
tg21
I00
(lp3399
g1
(g10
g3
NtRp3400
(dp3401
g13
g1
(g14
g3
NtRp3402
((lp3403
g17
(g18
(I0
tS'b'
tRp3404
((I1
(L1L
tg21
I00
(lp3405
S'_i_'
p3406
at(Nttba(lp3407
g17
(g25
(I0
tS'b'
tRp3408
(I1
(L1L
tg21
I00
(lp3409
g1
(g10
g3
NtRp3410
(dp3411
g13
g1
(g14
g3
NtRp3412
((lp3413
g17
(g18
(I0
tS'b'
tRp3414
((I1
(L0L
tg21
I00
(lt(Nttba(lp3415
g17
(g25
(I0
tS'b'
tRp3416
(I1
(L0L
tg21
I00
(ltba(lp3417
g3414
atbsg120
S'i'
sbatba(lp3418
g3404
atbsg120
g3396
sbatba(lp3419
g3394
atbsg120
g3386
sbatba(lp3420
g3384
atbsg120
g3376
sbatba(lp3421
g17
(g18
(I0
tS'b'
tRp3422
((I1
(L1L
tg21
I00
(lp3423
g3376
at(Nttbatbsg120
S'Expr'
p3424
sbag1
(g10
g3
NtRp3425
(dp3426
g13
g1
(g14
g3
NtRp3427
((lp3428
g17
(g18
(I0
tS'b'
tRp3429
((I1
(L0L
tg21
I00
(lt(Nttba(lp3430
g17
(g25
(I0
tS'b'
tRp3431
(I1
(L0L
tg21
I00
(ltba(lp3432
g3429
atbsg120
S'+'
sbag1
(g10
g3
NtRp3433
(dp3434
g13
g1
(g14
g3
NtRp3435
((lp3436
g17
(g18
(I0
tS'b'
tRp3437
((I1
(L1L
tg21
I00
(lp3438
S'Val'
p3439
at(Nttba(lp3440
g17
(g25
(I0
tS'b'
tRp3441
(I1
(L1L
tg21
I00
(lp3442
g1
(g10
g3
NtRp3443
(dp3444
g13
g1
(g14
g3
NtRp3445
((lp3446
g17
(g18
(I0
tS'b'
tRp3447
((I1
(L1L
tg21
I00
(lp3448
S'Number'
p3449
at(Nttba(lp3450
g17
(g25
(I0
tS'b'
tRp3451
(I1
(L1L
tg21
I00
(lp3452
g1
(g10
g3
NtRp3453
(dp3454
g13
g1
(g14
g3
NtRp3455
((lp3456
g17
(g18
(I0
tS'b'
tRp3457
((I1
(L1L
tg21
I00
(lp3458
S'Int'
p3459
at(Nttba(lp3460
g17
(g25
(I0
tS'b'
tRp3461
(I1
(L1L
tg21
I00
(lp3462
g1
(g10
g3
NtRp3463
(dp3464
g13
g1
(g14
g3
NtRp3465
((lp3466
g17
(g18
(I0
tS'b'
tRp3467
((I1
(L1L
tg21
I00
(lp3468
S'_1_'
p3469
at(Nttba(lp3470
g17
(g25
(I0
tS'b'
tRp3471
(I1
(L1L
tg21
I00
(lp3472
g1
(g10
g3
NtRp3473
(dp3474
g13
g1
(g14
g3
NtRp3475
((lp3476
g17
(g18
(I0
tS'b'
tRp3477
((I1
(L0L
tg21
I00
(lt(Nttba(lp3478
g17
(g25
(I0
tS'b'
tRp3479
(I1
(L0L
tg21
I00
(ltba(lp3480
g3477
atbsg120
S'1'
sbatba(lp3481
g3467
atbsg120
g3459
sbatba(lp3482
g3457
atbsg120
g3449
sbatba(lp3483
g3447
atbsg120
g3439
sbatba(lp3484
g17
(g18
(I0
tS'b'
tRp3485
((I1
(L1L
tg21
I00
(lp3486
g3439
at(Nttbatbsg120
S'Expr'
p3487
sbatba(lp3488
g3362
atbsg120
g3354
sbatba(lp3489
g3352
atbsg120
S'Expr'
p3490
sbatba(lp3491
g3342
atbsg120
g3334
sbatba(lp3492
g3332
atbsg120
g3324
sbatba(lp3493
g3322
atbsg120
g3250
sbag1
(g10
g3
NtRp3494
(dp3495
g13
g1
(g14
g3
NtRp3496
((lp3497
g17
(g18
(I0
tS'b'
tRp3498
((I1
(L0L
tg21
I00
(lt(Nttba(lp3499
g17
(g25
(I0
tS'b'
tRp3500
(I1
(L0L
tg21
I00
(ltba(lp3501
g3498
atbsg120
S')'
sbatba(lp3502
g3246
atbsg120
g3238
sbatba(lp3503
g3236
atbsg120
S'Expr'
p3504
sbatba(lp3505
g3226
atbsg120
g3062
sbatba(lp3506
g3058
atbsg120
g3050
sbatba(lp3507
g3048
atbsg120
g3039
sbag1
(g10
g3
NtRp3508
(dp3509
g13
g1
(g14
g3
NtRp3510
((lp3511
g17
(g18
(I0
tS'b'
tRp3512
((I1
(L0L
tg21
I00
(lt(Nttba(lp3513
g17
(g25
(I0
tS'b'
tRp3514
(I1
(L0L
tg21
I00
(ltba(lp3515
g3512
atbsg120
S';'
sbatba(lp3516
g3037
atbsg120
g3029
sbatba(lp3517
g3027
atbsg120
g3019
sbatba(lp3518
g3017
atbsg120
g2988
sbag1
(g10
g3
NtRp3519
(dp3520
g13
g1
(g14
g3
NtRp3521
((lp3522
g17
(g18
(I0
tS'b'
tRp3523
((I1
(L1L
tg21
I00
(lp3524
S'_$blockend_'
p3525
at(Nttba(lp3526
g17
(g25
(I0
tS'b'
tRp3527
(I1
(L1L
tg21
I00
(lp3528
g1
(g10
g3
NtRp3529
(dp3530
g13
g1
(g14
g3
NtRp3531
((lp3532
g17
(g18
(I0
tS'b'
tRp3533
((I1
(L0L
tg21
I00
(lt(Nttba(lp3534
g17
(g25
(I0
tS'b'
tRp3535
(I1
(L0L
tg21
I00
(ltba(lp3536
g3533
atbsg120
S'$blockend'
p3537
sbatba(lp3538
g3523
atbsg120
g2989
sbatba(lp3539
g2985
atbsg120
S'Block'
p3540
sbag1
(g10
g3
NtRp3541
(dp3542
g13
g1
(g14
g3
NtRp3543
((lp3544
g17
(g18
(I0
tS'b'
tRp3545
((I1
(L1L
tg21
I00
(lp3546
S'_else_'
p3547
at(Nttba(lp3548
g17
(g25
(I0
tS'b'
tRp3549
(I1
(L1L
tg21
I00
(lp3550
g1
(g10
g3
NtRp3551
(dp3552
g13
g1
(g14
g3
NtRp3553
((lp3554
g17
(g18
(I0
tS'b'
tRp3555
((I1
(L0L
tg21
I00
(lt(Nttba(lp3556
g17
(g25
(I0
tS'b'
tRp3557
(I1
(L0L
tg21
I00
(ltba(lp3558
g3555
atbsg120
S'else'
p3559
sbatba(lp3560
g3545
atbsg120
g2801
sbag1
(g10
g3
NtRp3561
(dp3562
g13
g1
(g14
g3
NtRp3563
((lp3564
g17
(g18
(I0
tS'b'
tRp3565
((I1
(L3L
tg21
I00
(lp3566
S'Blockbegin'
p3567
aS'Prog'
p3568
aS'Blockend'
p3569
at(Nttba(lp3570
g17
(g25
(I0
tS'b'
tRp3571
(I1
(L3L
tg21
I00
(lp3572
g1
(g10
g3
NtRp3573
(dp3574
g13
g1
(g14
g3
NtRp3575
((lp3576
g17
(g18
(I0
tS'b'
tRp3577
((I1
(L1L
tg21
I00
(lp3578
S'_:$blockbegin_'
p3579
at(Nttba(lp3580
g17
(g25
(I0
tS'b'
tRp3581
(I1
(L1L
tg21
I00
(lp3582
g1
(g10
g3
NtRp3583
(dp3584
g13
g1
(g14
g3
NtRp3585
((lp3586
g17
(g18
(I0
tS'b'
tRp3587
((I1
(L0L
tg21
I00
(lt(Nttba(lp3588
g17
(g25
(I0
tS'b'
tRp3589
(I1
(L0L
tg21
I00
(ltba(lp3590
g3587
atbsg120
S':$blockbegin'
p3591
sbatba(lp3592
g3577
atbsg120
g3567
sbag1
(g10
g3
NtRp3593
(dp3594
g13
g1
(g14
g3
NtRp3595
((lp3596
g17
(g18
(I0
tS'b'
tRp3597
((I1
(L1L
tg21
I00
(lp3598
S'Stmt'
p3599
at(Nttba(lp3600
g17
(g25
(I0
tS'b'
tRp3601
(I1
(L1L
tg21
I00
(lp3602
g1
(g10
g3
NtRp3603
(dp3604
g13
g1
(g14
g3
NtRp3605
((lp3606
g17
(g18
(I0
tS'b'
tRp3607
((I1
(L1L
tg21
I00
(lp3608
S'Single_stmt'
p3609
at(Nttba(lp3610
g17
(g25
(I0
tS'b'
tRp3611
(I1
(L1L
tg21
I00
(lp3612
g1
(g10
g3
NtRp3613
(dp3614
g13
g1
(g14
g3
NtRp3615
((lp3616
g17
(g18
(I0
tS'b'
tRp3617
((I1
(L2L
tg21
I00
(lp3618
S'Assign_stmt'
p3619
aS'_;_'
p3620
at(Nttba(lp3621
g17
(g25
(I0
tS'b'
tRp3622
(I1
(L2L
tg21
I00
(lp3623
g1
(g10
g3
NtRp3624
(dp3625
g13
g1
(g14
g3
NtRp3626
((lp3627
g17
(g18
(I0
tS'b'
tRp3628
((I1
(L1L
tg21
I00
(lp3629
S'Aug_assign'
p3630
at(Nttba(lp3631
g17
(g25
(I0
tS'b'
tRp3632
(I1
(L1L
tg21
I00
(lp3633
g1
(g10
g3
NtRp3634
(dp3635
g13
g1
(g14
g3
NtRp3636
((lp3637
g17
(g18
(I0
tS'b'
tRp3638
((I1
(L3L
tg21
I00
(lp3639
S'Var'
p3640
aS'Aug_op'
p3641
aS'Exprlist'
p3642
at(Nttba(lp3643
g17
(g25
(I0
tS'b'
tRp3644
(I1
(L3L
tg21
I00
(lp3645
g1
(g10
g3
NtRp3646
(dp3647
g13
g1
(g14
g3
NtRp3648
((lp3649
g17
(g18
(I0
tS'b'
tRp3650
((I1
(L4L
tg21
I00
(lp3651
S'Var'
p3652
aS'_[_'
p3653
aS'Slice'
p3654
aS'_]_'
p3655
at(Nttba(lp3656
g17
(g25
(I0
tS'b'
tRp3657
(I1
(L4L
tg21
I00
(lp3658
g1
(g10
g3
NtRp3659
(dp3660
g13
g1
(g14
g3
NtRp3661
((lp3662
g17
(g18
(I0
tS'b'
tRp3663
((I1
(L1L
tg21
I00
(lp3664
S'Id'
p3665
at(Nttba(lp3666
g17
(g25
(I0
tS'b'
tRp3667
(I1
(L1L
tg21
I00
(lp3668
g1
(g10
g3
NtRp3669
(dp3670
g13
g1
(g14
g3
NtRp3671
((lp3672
g17
(g18
(I0
tS'b'
tRp3673
((I1
(L1L
tg21
I00
(lp3674
S'_L_'
p3675
at(Nttba(lp3676
g17
(g25
(I0
tS'b'
tRp3677
(I1
(L1L
tg21
I00
(lp3678
g1
(g10
g3
NtRp3679
(dp3680
g13
g1
(g14
g3
NtRp3681
((lp3682
g17
(g18
(I0
tS'b'
tRp3683
((I1
(L0L
tg21
I00
(lt(Nttba(lp3684
g17
(g25
(I0
tS'b'
tRp3685
(I1
(L0L
tg21
I00
(ltba(lp3686
g3683
atbsg120
S'L'
sbatba(lp3687
g3673
atbsg120
g3665
sbatba(lp3688
g3663
atbsg120
g3652
sbag1
(g10
g3
NtRp3689
(dp3690
g13
g1
(g14
g3
NtRp3691
((lp3692
g17
(g18
(I0
tS'b'
tRp3693
((I1
(L0L
tg21
I00
(lt(Nttba(lp3694
g17
(g25
(I0
tS'b'
tRp3695
(I1
(L0L
tg21
I00
(ltba(lp3696
g3693
atbsg120
S'['
sbag1
(g10
g3
NtRp3697
(dp3698
g13
g1
(g14
g3
NtRp3699
((lp3700
g17
(g18
(I0
tS'b'
tRp3701
((I1
(L1L
tg21
I00
(lp3702
S'Expr'
p3703
at(Nttba(lp3704
g17
(g25
(I0
tS'b'
tRp3705
(I1
(L1L
tg21
I00
(lp3706
g1
(g10
g3
NtRp3707
(dp3708
g13
g1
(g14
g3
NtRp3709
((lp3710
g17
(g18
(I0
tS'b'
tRp3711
((I1
(L1L
tg21
I00
(lp3712
S'Val'
p3713
at(Nttba(lp3714
g17
(g25
(I0
tS'b'
tRp3715
(I1
(L1L
tg21
I00
(lp3716
g1
(g10
g3
NtRp3717
(dp3718
g13
g1
(g14
g3
NtRp3719
((lp3720
g17
(g18
(I0
tS'b'
tRp3721
((I1
(L1L
tg21
I00
(lp3722
S'Var'
p3723
at(Nttba(lp3724
g17
(g25
(I0
tS'b'
tRp3725
(I1
(L1L
tg21
I00
(lp3726
g1
(g10
g3
NtRp3727
(dp3728
g13
g1
(g14
g3
NtRp3729
((lp3730
g17
(g18
(I0
tS'b'
tRp3731
((I1
(L1L
tg21
I00
(lp3732
S'Id'
p3733
at(Nttba(lp3734
g17
(g25
(I0
tS'b'
tRp3735
(I1
(L1L
tg21
I00
(lp3736
g1
(g10
g3
NtRp3737
(dp3738
g13
g1
(g14
g3
NtRp3739
((lp3740
g17
(g18
(I0
tS'b'
tRp3741
((I1
(L1L
tg21
I00
(lp3742
S'_i_'
p3743
at(Nttba(lp3744
g17
(g25
(I0
tS'b'
tRp3745
(I1
(L1L
tg21
I00
(lp3746
g1
(g10
g3
NtRp3747
(dp3748
g13
g1
(g14
g3
NtRp3749
((lp3750
g17
(g18
(I0
tS'b'
tRp3751
((I1
(L0L
tg21
I00
(lt(Nttba(lp3752
g17
(g25
(I0
tS'b'
tRp3753
(I1
(L0L
tg21
I00
(ltba(lp3754
g3751
atbsg120
S'i'
sbatba(lp3755
g3741
atbsg120
g3733
sbatba(lp3756
g3731
atbsg120
g3723
sbatba(lp3757
g3721
atbsg120
g3713
sbatba(lp3758
g17
(g18
(I0
tS'b'
tRp3759
((I1
(L1L
tg21
I00
(lp3760
g3713
at(Nttbatbsg120
S'Expr'
p3761
sbatba(lp3762
g3701
atbsg120
g3654
sbag1
(g10
g3
NtRp3763
(dp3764
g13
g1
(g14
g3
NtRp3765
((lp3766
g17
(g18
(I0
tS'b'
tRp3767
((I1
(L0L
tg21
I00
(lt(Nttba(lp3768
g17
(g25
(I0
tS'b'
tRp3769
(I1
(L0L
tg21
I00
(ltba(lp3770
g3767
atbsg120
S']'
sbatba(lp3771
g3650
atbsg120
g3640
sbag1
(g10
g3
NtRp3772
(dp3773
g13
g1
(g14
g3
NtRp3774
((lp3775
g17
(g18
(I0
tS'b'
tRp3776
((I1
(L1L
tg21
I00
(lp3777
S'_+=_'
p3778
at(Nttba(lp3779
g17
(g25
(I0
tS'b'
tRp3780
(I1
(L1L
tg21
I00
(lp3781
g1
(g10
g3
NtRp3782
(dp3783
g13
g1
(g14
g3
NtRp3784
((lp3785
g17
(g18
(I0
tS'b'
tRp3786
((I1
(L0L
tg21
I00
(lt(Nttba(lp3787
g17
(g25
(I0
tS'b'
tRp3788
(I1
(L0L
tg21
I00
(ltba(lp3789
g3786
atbsg120
S'+='
p3790
sbatba(lp3791
g3776
atbsg120
g3641
sbag1
(g10
g3
NtRp3792
(dp3793
g13
g1
(g14
g3
NtRp3794
((lp3795
g17
(g18
(I0
tS'b'
tRp3796
((I1
(L1L
tg21
I00
(lp3797
S'Expr'
p3798
at(Nttba(lp3799
g17
(g25
(I0
tS'b'
tRp3800
(I1
(L1L
tg21
I00
(lp3801
g1
(g10
g3
NtRp3802
(dp3803
g13
g1
(g14
g3
NtRp3804
((lp3805
g17
(g18
(I0
tS'b'
tRp3806
((I1
(L1L
tg21
I00
(lp3807
S'Val'
p3808
at(Nttba(lp3809
g17
(g25
(I0
tS'b'
tRp3810
(I1
(L1L
tg21
I00
(lp3811
g1
(g10
g3
NtRp3812
(dp3813
g13
g1
(g14
g3
NtRp3814
((lp3815
g17
(g18
(I0
tS'b'
tRp3816
((I1
(L1L
tg21
I00
(lp3817
S'Number'
p3818
at(Nttba(lp3819
g17
(g25
(I0
tS'b'
tRp3820
(I1
(L1L
tg21
I00
(lp3821
g1
(g10
g3
NtRp3822
(dp3823
g13
g1
(g14
g3
NtRp3824
((lp3825
g17
(g18
(I0
tS'b'
tRp3826
((I1
(L1L
tg21
I00
(lp3827
S'Int'
p3828
at(Nttba(lp3829
g17
(g25
(I0
tS'b'
tRp3830
(I1
(L1L
tg21
I00
(lp3831
g1
(g10
g3
NtRp3832
(dp3833
g13
g1
(g14
g3
NtRp3834
((lp3835
g17
(g18
(I0
tS'b'
tRp3836
((I1
(L1L
tg21
I00
(lp3837
S'_1_'
p3838
at(Nttba(lp3839
g17
(g25
(I0
tS'b'
tRp3840
(I1
(L1L
tg21
I00
(lp3841
g1
(g10
g3
NtRp3842
(dp3843
g13
g1
(g14
g3
NtRp3844
((lp3845
g17
(g18
(I0
tS'b'
tRp3846
((I1
(L0L
tg21
I00
(lt(Nttba(lp3847
g17
(g25
(I0
tS'b'
tRp3848
(I1
(L0L
tg21
I00
(ltba(lp3849
g3846
atbsg120
S'1'
sbatba(lp3850
g3836
atbsg120
g3828
sbatba(lp3851
g3826
atbsg120
g3818
sbatba(lp3852
g3816
atbsg120
g3808
sbatba(lp3853
g17
(g18
(I0
tS'b'
tRp3854
((I1
(L1L
tg21
I00
(lp3855
g3808
at(Nttbatbsg120
S'Expr'
p3856
sbatba(lp3857
g3796
atbsg120
g3642
sbatba(lp3858
g3638
atbsg120
g3630
sbatba(lp3859
g3628
atbsg120
g3619
sbag1
(g10
g3
NtRp3860
(dp3861
g13
g1
(g14
g3
NtRp3862
((lp3863
g17
(g18
(I0
tS'b'
tRp3864
((I1
(L0L
tg21
I00
(lt(Nttba(lp3865
g17
(g25
(I0
tS'b'
tRp3866
(I1
(L0L
tg21
I00
(ltba(lp3867
g3864
atbsg120
S';'
sbatba(lp3868
g3617
atbsg120
g3609
sbatba(lp3869
g3607
atbsg120
g3599
sbatba(lp3870
g3597
atbsg120
g3568
sbag1
(g10
g3
NtRp3871
(dp3872
g13
g1
(g14
g3
NtRp3873
((lp3874
g17
(g18
(I0
tS'b'
tRp3875
((I1
(L1L
tg21
I00
(lp3876
S'_$blockend_'
p3877
at(Nttba(lp3878
g17
(g25
(I0
tS'b'
tRp3879
(I1
(L1L
tg21
I00
(lp3880
g1
(g10
g3
NtRp3881
(dp3882
g13
g1
(g14
g3
NtRp3883
((lp3884
g17
(g18
(I0
tS'b'
tRp3885
((I1
(L0L
tg21
I00
(lt(Nttba(lp3886
g17
(g25
(I0
tS'b'
tRp3887
(I1
(L0L
tg21
I00
(ltba(lp3888
g3885
atbsg120
S'$blockend'
p3889
sbatba(lp3890
g3875
atbsg120
g3569
sbatba(lp3891
g3565
atbsg120
S'Block'
p3892
sbatba(lp3893
g2797
atbsg120
g2789
sbatba(lp3894
g2787
atbsg120
g2779
sbatba(lp3895
g2777
atbsg120
g2769
sbatba(lp3896
g2767
atbsg120
g2738
sbag1
(g10
g3
NtRp3897
(dp3898
g13
g1
(g14
g3
NtRp3899
((lp3900
g17
(g18
(I0
tS'b'
tRp3901
((I1
(L1L
tg21
I00
(lp3902
S'_$blockend_'
p3903
at(Nttba(lp3904
g17
(g25
(I0
tS'b'
tRp3905
(I1
(L1L
tg21
I00
(lp3906
g1
(g10
g3
NtRp3907
(dp3908
g13
g1
(g14
g3
NtRp3909
((lp3910
g17
(g18
(I0
tS'b'
tRp3911
((I1
(L0L
tg21
I00
(lt(Nttba(lp3912
g17
(g25
(I0
tS'b'
tRp3913
(I1
(L0L
tg21
I00
(ltba(lp3914
g3911
atbsg120
S'$blockend'
p3915
sbatba(lp3916
g3901
atbsg120
g2739
sbatba(lp3917
g2735
atbsg120
g2293
sbatba(lp3918
g2290
atbsg120
g2282
sbatba(lp3919
g2280
atbsg120
S'Stmt'
p3920
sbag1
(g10
g3
NtRp3921
(dp3922
g13
g1
(g14
g3
NtRp3923
((lp3924
g17
(g18
(I0
tS'b'
tRp3925
((I1
(L1L
tg21
I00
(lp3926
S'Block_stmt'
p3927
at(Nttba(lp3928
g17
(g25
(I0
tS'b'
tRp3929
(I1
(L1L
tg21
I00
(lp3930
g1
(g10
g3
NtRp3931
(dp3932
g13
g1
(g14
g3
NtRp3933
((lp3934
g17
(g18
(I0
tS'b'
tRp3935
((I1
(L2L
tg21
I00
(lp3936
S'Block_head'
p3937
aS'Block'
p3938
at(Nttba(lp3939
g17
(g25
(I0
tS'b'
tRp3940
(I1
(L2L
tg21
I00
(lp3941
g1
(g10
g3
NtRp3942
(dp3943
g13
g1
(g14
g3
NtRp3944
((lp3945
g17
(g18
(I0
tS'b'
tRp3946
((I1
(L1L
tg21
I00
(lp3947
S'Loop'
p3948
at(Nttba(lp3949
g17
(g25
(I0
tS'b'
tRp3950
(I1
(L1L
tg21
I00
(lp3951
g1
(g10
g3
NtRp3952
(dp3953
g13
g1
(g14
g3
NtRp3954
((lp3955
g17
(g18
(I0
tS'b'
tRp3956
((I1
(L1L
tg21
I00
(lp3957
S'For'
p3958
at(Nttba(lp3959
g17
(g25
(I0
tS'b'
tRp3960
(I1
(L1L
tg21
I00
(lp3961
g1
(g10
g3
NtRp3962
(dp3963
g13
g1
(g14
g3
NtRp3964
((lp3965
g17
(g18
(I0
tS'b'
tRp3966
((I1
(L4L
tg21
I00
(lp3967
S'_for_'
p3968
aS'Varlist'
p3969
aS'_in_'
p3970
aS'Exprlist'
p3971
at(Nttba(lp3972
g17
(g25
(I0
tS'b'
tRp3973
(I1
(L4L
tg21
I00
(lp3974
g1
(g10
g3
NtRp3975
(dp3976
g13
g1
(g14
g3
NtRp3977
((lp3978
g17
(g18
(I0
tS'b'
tRp3979
((I1
(L0L
tg21
I00
(lt(Nttba(lp3980
g17
(g25
(I0
tS'b'
tRp3981
(I1
(L0L
tg21
I00
(ltba(lp3982
g3979
atbsg120
S'for'
p3983
sbag1
(g10
g3
NtRp3984
(dp3985
g13
g1
(g14
g3
NtRp3986
((lp3987
g17
(g18
(I0
tS'b'
tRp3988
((I1
(L1L
tg21
I00
(lp3989
S'Vartuple'
p3990
at(Nttba(lp3991
g17
(g25
(I0
tS'b'
tRp3992
(I1
(L1L
tg21
I00
(lp3993
g1
(g10
g3
NtRp3994
(dp3995
g13
g1
(g14
g3
NtRp3996
((lp3997
g17
(g18
(I0
tS'b'
tRp3998
((I1
(L1L
tg21
I00
(lp3999
S'Var'
p4000
at(Nttba(lp4001
g17
(g25
(I0
tS'b'
tRp4002
(I1
(L1L
tg21
I00
(lp4003
g1
(g10
g3
NtRp4004
(dp4005
g13
g1
(g14
g3
NtRp4006
((lp4007
g17
(g18
(I0
tS'b'
tRp4008
((I1
(L1L
tg21
I00
(lp4009
S'Id'
p4010
at(Nttba(lp4011
g17
(g25
(I0
tS'b'
tRp4012
(I1
(L1L
tg21
I00
(lp4013
g1
(g10
g3
NtRp4014
(dp4015
g13
g1
(g14
g3
NtRp4016
((lp4017
g17
(g18
(I0
tS'b'
tRp4018
((I1
(L1L
tg21
I00
(lp4019
S'_x_'
p4020
at(Nttba(lp4021
g17
(g25
(I0
tS'b'
tRp4022
(I1
(L1L
tg21
I00
(lp4023
g1
(g10
g3
NtRp4024
(dp4025
g13
g1
(g14
g3
NtRp4026
((lp4027
g17
(g18
(I0
tS'b'
tRp4028
((I1
(L0L
tg21
I00
(lt(Nttba(lp4029
g17
(g25
(I0
tS'b'
tRp4030
(I1
(L0L
tg21
I00
(ltba(lp4031
g4028
atbsg120
S'x'
sbatba(lp4032
g4018
atbsg120
g4010
sbatba(lp4033
g4008
atbsg120
g4000
sbatba(lp4034
g3998
atbsg120
g3990
sbatba(lp4035
g3988
atbsg120
g3969
sbag1
(g10
g3
NtRp4036
(dp4037
g13
g1
(g14
g3
NtRp4038
((lp4039
g17
(g18
(I0
tS'b'
tRp4040
((I1
(L0L
tg21
I00
(lt(Nttba(lp4041
g17
(g25
(I0
tS'b'
tRp4042
(I1
(L0L
tg21
I00
(ltba(lp4043
g4040
atbsg120
S'in'
p4044
sbag1
(g10
g3
NtRp4045
(dp4046
g13
g1
(g14
g3
NtRp4047
((lp4048
g17
(g18
(I0
tS'b'
tRp4049
((I1
(L1L
tg21
I00
(lp4050
S'Expr'
p4051
at(Nttba(lp4052
g17
(g25
(I0
tS'b'
tRp4053
(I1
(L1L
tg21
I00
(lp4054
g1
(g10
g3
NtRp4055
(dp4056
g13
g1
(g14
g3
NtRp4057
((lp4058
g17
(g18
(I0
tS'b'
tRp4059
((I1
(L1L
tg21
I00
(lp4060
S'Val'
p4061
at(Nttba(lp4062
g17
(g25
(I0
tS'b'
tRp4063
(I1
(L1L
tg21
I00
(lp4064
g1
(g10
g3
NtRp4065
(dp4066
g13
g1
(g14
g3
NtRp4067
((lp4068
g17
(g18
(I0
tS'b'
tRp4069
((I1
(L1L
tg21
I00
(lp4070
S'Var'
p4071
at(Nttba(lp4072
g17
(g25
(I0
tS'b'
tRp4073
(I1
(L1L
tg21
I00
(lp4074
g1
(g10
g3
NtRp4075
(dp4076
g13
g1
(g14
g3
NtRp4077
((lp4078
g17
(g18
(I0
tS'b'
tRp4079
((I1
(L1L
tg21
I00
(lp4080
S'Id'
p4081
at(Nttba(lp4082
g17
(g25
(I0
tS'b'
tRp4083
(I1
(L1L
tg21
I00
(lp4084
g1
(g10
g3
NtRp4085
(dp4086
g13
g1
(g14
g3
NtRp4087
((lp4088
g17
(g18
(I0
tS'b'
tRp4089
((I1
(L1L
tg21
I00
(lp4090
S'_L_'
p4091
at(Nttba(lp4092
g17
(g25
(I0
tS'b'
tRp4093
(I1
(L1L
tg21
I00
(lp4094
g1
(g10
g3
NtRp4095
(dp4096
g13
g1
(g14
g3
NtRp4097
((lp4098
g17
(g18
(I0
tS'b'
tRp4099
((I1
(L0L
tg21
I00
(lt(Nttba(lp4100
g17
(g25
(I0
tS'b'
tRp4101
(I1
(L0L
tg21
I00
(ltba(lp4102
g4099
atbsg120
S'L'
sbatba(lp4103
g4089
atbsg120
g4081
sbatba(lp4104
g4079
atbsg120
g4071
sbatba(lp4105
g4069
atbsg120
g4061
sbatba(lp4106
g17
(g18
(I0
tS'b'
tRp4107
((I1
(L1L
tg21
I00
(lp4108
g4061
at(Nttbatbsg120
S'Expr'
p4109
sbatba(lp4110
g4049
atbsg120
g3971
sbatba(lp4111
g3966
atbsg120
g3958
sbatba(lp4112
g3956
atbsg120
g3948
sbatba(lp4113
g3946
atbsg120
g3937
sbag1
(g10
g3
NtRp4114
(dp4115
g13
g1
(g14
g3
NtRp4116
((lp4117
g17
(g18
(I0
tS'b'
tRp4118
((I1
(L3L
tg21
I00
(lp4119
S'Blockbegin'
p4120
aS'Prog'
p4121
aS'Blockend'
p4122
at(Nttba(lp4123
g17
(g25
(I0
tS'b'
tRp4124
(I1
(L3L
tg21
I00
(lp4125
g1
(g10
g3
NtRp4126
(dp4127
g13
g1
(g14
g3
NtRp4128
((lp4129
g17
(g18
(I0
tS'b'
tRp4130
((I1
(L1L
tg21
I00
(lp4131
S'_:$blockbegin_'
p4132
at(Nttba(lp4133
g17
(g25
(I0
tS'b'
tRp4134
(I1
(L1L
tg21
I00
(lp4135
g1
(g10
g3
NtRp4136
(dp4137
g13
g1
(g14
g3
NtRp4138
((lp4139
g17
(g18
(I0
tS'b'
tRp4140
((I1
(L0L
tg21
I00
(lt(Nttba(lp4141
g17
(g25
(I0
tS'b'
tRp4142
(I1
(L0L
tg21
I00
(ltba(lp4143
g4140
atbsg120
S':$blockbegin'
p4144
sbatba(lp4145
g4130
atbsg120
g4120
sbag1
(g10
g3
NtRp4146
(dp4147
g13
g1
(g14
g3
NtRp4148
((lp4149
g17
(g18
(I0
tS'b'
tRp4150
((I1
(L1L
tg21
I00
(lp4151
S'Stmt'
p4152
at(Nttba(lp4153
g17
(g25
(I0
tS'b'
tRp4154
(I1
(L1L
tg21
I00
(lp4155
g1
(g10
g3
NtRp4156
(dp4157
g13
g1
(g14
g3
NtRp4158
((lp4159
g17
(g18
(I0
tS'b'
tRp4160
((I1
(L1L
tg21
I00
(lp4161
S'Single_stmt'
p4162
at(Nttba(lp4163
g17
(g25
(I0
tS'b'
tRp4164
(I1
(L1L
tg21
I00
(lp4165
g1
(g10
g3
NtRp4166
(dp4167
g13
g1
(g14
g3
NtRp4168
((lp4169
g17
(g18
(I0
tS'b'
tRp4170
((I1
(L2L
tg21
I00
(lp4171
S'Print_stmt'
p4172
aS'_;_'
p4173
at(Nttba(lp4174
g17
(g25
(I0
tS'b'
tRp4175
(I1
(L2L
tg21
I00
(lp4176
g1
(g10
g3
NtRp4177
(dp4178
g13
g1
(g14
g3
NtRp4179
((lp4180
g17
(g18
(I0
tS'b'
tRp4181
((I1
(L2L
tg21
I00
(lp4182
S'_print_'
p4183
aS'Exprlist'
p4184
at(Nttba(lp4185
g17
(g25
(I0
tS'b'
tRp4186
(I1
(L2L
tg21
I00
(lp4187
g1
(g10
g3
NtRp4188
(dp4189
g13
g1
(g14
g3
NtRp4190
((lp4191
g17
(g18
(I0
tS'b'
tRp4192
((I1
(L0L
tg21
I00
(lt(Nttba(lp4193
g17
(g25
(I0
tS'b'
tRp4194
(I1
(L0L
tg21
I00
(ltba(lp4195
g4192
atbsg120
S'print'
p4196
sbag1
(g10
g3
NtRp4197
(dp4198
g13
g1
(g14
g3
NtRp4199
((lp4200
g17
(g18
(I0
tS'b'
tRp4201
((I1
(L1L
tg21
I00
(lp4202
S'Expr'
p4203
at(Nttba(lp4204
g17
(g25
(I0
tS'b'
tRp4205
(I1
(L1L
tg21
I00
(lp4206
g1
(g10
g3
NtRp4207
(dp4208
g13
g1
(g14
g3
NtRp4209
((lp4210
g17
(g18
(I0
tS'b'
tRp4211
((I1
(L1L
tg21
I00
(lp4212
S'Val'
p4213
at(Nttba(lp4214
g17
(g25
(I0
tS'b'
tRp4215
(I1
(L1L
tg21
I00
(lp4216
g1
(g10
g3
NtRp4217
(dp4218
g13
g1
(g14
g3
NtRp4219
((lp4220
g17
(g18
(I0
tS'b'
tRp4221
((I1
(L1L
tg21
I00
(lp4222
S'Var'
p4223
at(Nttba(lp4224
g17
(g25
(I0
tS'b'
tRp4225
(I1
(L1L
tg21
I00
(lp4226
g1
(g10
g3
NtRp4227
(dp4228
g13
g1
(g14
g3
NtRp4229
((lp4230
g17
(g18
(I0
tS'b'
tRp4231
((I1
(L1L
tg21
I00
(lp4232
S'Id'
p4233
at(Nttba(lp4234
g17
(g25
(I0
tS'b'
tRp4235
(I1
(L1L
tg21
I00
(lp4236
g1
(g10
g3
NtRp4237
(dp4238
g13
g1
(g14
g3
NtRp4239
((lp4240
g17
(g18
(I0
tS'b'
tRp4241
((I1
(L1L
tg21
I00
(lp4242
S'_x_'
p4243
at(Nttba(lp4244
g17
(g25
(I0
tS'b'
tRp4245
(I1
(L1L
tg21
I00
(lp4246
g1
(g10
g3
NtRp4247
(dp4248
g13
g1
(g14
g3
NtRp4249
((lp4250
g17
(g18
(I0
tS'b'
tRp4251
((I1
(L0L
tg21
I00
(lt(Nttba(lp4252
g17
(g25
(I0
tS'b'
tRp4253
(I1
(L0L
tg21
I00
(ltba(lp4254
g4251
atbsg120
S'x'
sbatba(lp4255
g4241
atbsg120
g4233
sbatba(lp4256
g4231
atbsg120
g4223
sbatba(lp4257
g4221
atbsg120
g4213
sbatba(lp4258
g17
(g18
(I0
tS'b'
tRp4259
((I1
(L1L
tg21
I00
(lp4260
g4213
at(Nttbatbsg120
S'Expr'
p4261
sbatba(lp4262
g4201
atbsg120
g4184
sbatba(lp4263
g4181
atbsg120
g4172
sbag1
(g10
g3
NtRp4264
(dp4265
g13
g1
(g14
g3
NtRp4266
((lp4267
g17
(g18
(I0
tS'b'
tRp4268
((I1
(L0L
tg21
I00
(lt(Nttba(lp4269
g17
(g25
(I0
tS'b'
tRp4270
(I1
(L0L
tg21
I00
(ltba(lp4271
g4268
atbsg120
S';'
sbatba(lp4272
g4170
atbsg120
g4162
sbatba(lp4273
g4160
atbsg120
g4152
sbatba(lp4274
g4150
atbsg120
g4121
sbag1
(g10
g3
NtRp4275
(dp4276
g13
g1
(g14
g3
NtRp4277
((lp4278
g17
(g18
(I0
tS'b'
tRp4279
((I1
(L1L
tg21
I00
(lp4280
S'_$blockend_'
p4281
at(Nttba(lp4282
g17
(g25
(I0
tS'b'
tRp4283
(I1
(L1L
tg21
I00
(lp4284
g1
(g10
g3
NtRp4285
(dp4286
g13
g1
(g14
g3
NtRp4287
((lp4288
g17
(g18
(I0
tS'b'
tRp4289
((I1
(L0L
tg21
I00
(lt(Nttba(lp4290
g17
(g25
(I0
tS'b'
tRp4291
(I1
(L0L
tg21
I00
(ltba(lp4292
g4289
atbsg120
S'$blockend'
p4293
sbatba(lp4294
g4279
atbsg120
g4122
sbatba(lp4295
g4118
atbsg120
g3938
sbatba(lp4296
g3935
atbsg120
g3927
sbatba(lp4297
g3925
atbsg120
S'Stmt'
p4298
sbatba(lp4299
g1844
atbsg120
g1815
sbag1
(g10
g3
NtRp4300
(dp4301
g13
g1
(g14
g3
NtRp4302
((lp4303
g17
(g18
(I0
tS'b'
tRp4304
((I1
(L1L
tg21
I00
(lp4305
S'_$blockend_'
p4306
at(Nttba(lp4307
g17
(g25
(I0
tS'b'
tRp4308
(I1
(L1L
tg21
I00
(lp4309
g1
(g10
g3
NtRp4310
(dp4311
g13
g1
(g14
g3
NtRp4312
((lp4313
g17
(g18
(I0
tS'b'
tRp4314
((I1
(L0L
tg21
I00
(lt(Nttba(lp4315
g17
(g25
(I0
tS'b'
tRp4316
(I1
(L0L
tg21
I00
(ltba(lp4317
g4314
atbsg120
S'$blockend'
p4318
sbatba(lp4319
g4304
atbsg120
g1816
sbatba(lp4320
g1812
atbsg120
g1626
sbatba(lp4321
g1623
atbsg120
g1615
sbatba(lp4322
g1613
atbsg120
g1605
sbatba(lp4323
g1603
atbsg120
S'Stmt'
p4324
sbatba(lp4325
g32
atbsg120
g23
sbatba(lp4326
g19
atbsg120
g9
sbsS'pos'
p4327
g11
sb.