ccopy_reg
_reconstructor
p1
(ctree
Tree
p2
c__builtin__
object
p3
NtRp4
(dp5
S'patterns'
p6
c__builtin__
set
p7
((ltRp8
sS'root'
p9
g1
(ctree
vertex
p10
g3
NtRp11
(dp12
S'_data'
p13
g1
(cpandas.core.internals
SingleBlockManager
p14
g3
NtRp15
((lp16
cnumpy.core.multiarray
_reconstruct
p17
(cpandas.core.index
Index
p18
(I0
tS'b'
tRp19
((I1
(L1L
tcnumpy
dtype
p20
(S'O8'
I0
I1
tRp21
(I3
S'|'
NNNI-1
I-1
I63
tbI00
(lp22
S'Prog'
p23
at(Nttba(lp24
g17
(cnumpy
ndarray
p25
(I0
tS'b'
tRp26
(I1
(L1L
tg21
I00
(lp27
g1
(g10
g3
NtRp28
(dp29
g13
g1
(g14
g3
NtRp30
((lp31
g17
(g18
(I0
tS'b'
tRp32
((I1
(L5L
tg21
I00
(lp33
S'Stmt1'
p34
aS'Stmt2'
p35
aS'Stmt3'
p36
aS'Stmt4'
p37
aS'Stmt5'
p38
at(Nttba(lp39
g17
(g25
(I0
tS'b'
tRp40
(I1
(L5L
tg21
I00
(lp41
g1
(g10
g3
NtRp42
(dp43
g13
g1
(g14
g3
NtRp44
((lp45
g17
(g18
(I0
tS'b'
tRp46
((I1
(L1L
tg21
I00
(lp47
S'Single_stmt'
p48
at(Nttba(lp49
g17
(g25
(I0
tS'b'
tRp50
(I1
(L1L
tg21
I00
(lp51
g1
(g10
g3
NtRp52
(dp53
g13
g1
(g14
g3
NtRp54
((lp55
g17
(g18
(I0
tS'b'
tRp56
((I1
(L2L
tg21
I00
(lp57
S'Exprlist'
p58
aS'_;_'
p59
at(Nttba(lp60
g17
(g25
(I0
tS'b'
tRp61
(I1
(L2L
tg21
I00
(lp62
g1
(g10
g3
NtRp63
(dp64
g13
g1
(g14
g3
NtRp65
((lp66
g17
(g18
(I0
tS'b'
tRp67
((I1
(L1L
tg21
I00
(lp68
S'Expr'
p69
at(Nttba(lp70
g17
(g25
(I0
tS'b'
tRp71
(I1
(L1L
tg21
I00
(lp72
g1
(g10
g3
NtRp73
(dp74
g13
g1
(g14
g3
NtRp75
((lp76
g17
(g18
(I0
tS'b'
tRp77
((I1
(L1L
tg21
I00
(lp78
S'Val'
p79
at(Nttba(lp80
g17
(g25
(I0
tS'b'
tRp81
(I1
(L1L
tg21
I00
(lp82
g1
(g10
g3
NtRp83
(dp84
g13
g1
(g14
g3
NtRp85
((lp86
g17
(g18
(I0
tS'b'
tRp87
((I1
(L1L
tg21
I00
(lp88
S'String'
p89
at(Nttba(lp90
g17
(g25
(I0
tS'b'
tRp91
(I1
(L1L
tg21
I00
(lp92
g1
(g10
g3
NtRp93
(dp94
g13
g1
(g14
g3
NtRp95
((lp96
g17
(g18
(I0
tS'b'
tRp97
((I1
(L1L
tg21
I00
(lp98
S'_"""\r\nTestprogramm fuer codegen\r\n"""_'
p99
at(Nttba(lp100
g17
(g25
(I0
tS'b'
tRp101
(I1
(L1L
tg21
I00
(lp102
g1
(g10
g3
NtRp103
(dp104
g13
g1
(g14
g3
NtRp105
((lp106
g17
(g18
(I0
tS'b'
tRp107
((I1
(L0L
tg21
I00
(lt(Nttba(lp108
g17
(g25
(I0
tS'b'
tRp109
(I1
(L0L
tg21
I00
(ltba(lp110
g107
atbsS'name'
p111
S'"""\r\nTestprogramm fuer codegen\r\n"""'
p112
sbatba(lp113
g97
atbsg111
g89
sbatba(lp114
g87
atbsg111
g79
sbatba(lp115
g17
(g18
(I0
tS'b'
tRp116
((I1
(L1L
tg21
I00
(lp117
g79
at(Nttbatbsg111
S'Expr'
p118
sbatba(lp119
g67
atbsg111
g58
sbag1
(g10
g3
NtRp120
(dp121
g13
g1
(g14
g3
NtRp122
((lp123
g17
(g18
(I0
tS'b'
tRp124
((I1
(L0L
tg21
I00
(lt(Nttba(lp125
g17
(g25
(I0
tS'b'
tRp126
(I1
(L0L
tg21
I00
(ltba(lp127
g124
atbsg111
S';'
sbatba(lp128
g56
atbsg111
g48
sbatba(lp129
g46
atbsg111
S'Stmt'
p130
sbag1
(g10
g3
NtRp131
(dp132
g13
g1
(g14
g3
NtRp133
((lp134
g17
(g18
(I0
tS'b'
tRp135
((I1
(L1L
tg21
I00
(lp136
S'Block_stmt'
p137
at(Nttba(lp138
g17
(g25
(I0
tS'b'
tRp139
(I1
(L1L
tg21
I00
(lp140
g1
(g10
g3
NtRp141
(dp142
g13
g1
(g14
g3
NtRp143
((lp144
g17
(g18
(I0
tS'b'
tRp145
((I1
(L2L
tg21
I00
(lp146
S'Block_head'
p147
aS'Block'
p148
at(Nttba(lp149
g17
(g25
(I0
tS'b'
tRp150
(I1
(L2L
tg21
I00
(lp151
g1
(g10
g3
NtRp152
(dp153
g13
g1
(g14
g3
NtRp154
((lp155
g17
(g18
(I0
tS'b'
tRp156
((I1
(L1L
tg21
I00
(lp157
S'Func'
p158
at(Nttba(lp159
g17
(g25
(I0
tS'b'
tRp160
(I1
(L1L
tg21
I00
(lp161
g1
(g10
g3
NtRp162
(dp163
g13
g1
(g14
g3
NtRp164
((lp165
g17
(g18
(I0
tS'b'
tRp166
((I1
(L5L
tg21
I00
(lp167
S'_def_'
p168
aS'Id'
p169
aS'_(_'
p170
aS'Paramlist'
p171
aS'_)_'
p172
at(Nttba(lp173
g17
(g25
(I0
tS'b'
tRp174
(I1
(L5L
tg21
I00
(lp175
g1
(g10
g3
NtRp176
(dp177
g13
g1
(g14
g3
NtRp178
((lp179
g17
(g18
(I0
tS'b'
tRp180
((I1
(L0L
tg21
I00
(lt(Nttba(lp181
g17
(g25
(I0
tS'b'
tRp182
(I1
(L0L
tg21
I00
(ltba(lp183
g180
atbsg111
S'def'
p184
sbag1
(g10
g3
NtRp185
(dp186
g13
g1
(g14
g3
NtRp187
((lp188
g17
(g18
(I0
tS'b'
tRp189
((I1
(L1L
tg21
I00
(lp190
S'_f_'
p191
at(Nttba(lp192
g17
(g25
(I0
tS'b'
tRp193
(I1
(L1L
tg21
I00
(lp194
g1
(g10
g3
NtRp195
(dp196
g13
g1
(g14
g3
NtRp197
((lp198
g17
(g18
(I0
tS'b'
tRp199
((I1
(L0L
tg21
I00
(lt(Nttba(lp200
g17
(g25
(I0
tS'b'
tRp201
(I1
(L0L
tg21
I00
(ltba(lp202
g199
atbsg111
S'f'
sbatba(lp203
g189
atbsg111
g169
sbag1
(g10
g3
NtRp204
(dp205
g13
g1
(g14
g3
NtRp206
((lp207
g17
(g18
(I0
tS'b'
tRp208
((I1
(L0L
tg21
I00
(lt(Nttba(lp209
g17
(g25
(I0
tS'b'
tRp210
(I1
(L0L
tg21
I00
(ltba(lp211
g208
atbsg111
S'('
sbag1
(g10
g3
NtRp212
(dp213
g13
g1
(g14
g3
NtRp214
((lp215
g17
(g18
(I0
tS'b'
tRp216
((I1
(L1L
tg21
I00
(lp217
S'Pos_paramlist'
p218
at(Nttba(lp219
g17
(g25
(I0
tS'b'
tRp220
(I1
(L1L
tg21
I00
(lp221
g1
(g10
g3
NtRp222
(dp223
g13
g1
(g14
g3
NtRp224
((lp225
g17
(g18
(I0
tS'b'
tRp226
((I1
(L1L
tg21
I00
(lp227
S'Pos_paramtuple'
p228
at(Nttba(lp229
g17
(g25
(I0
tS'b'
tRp230
(I1
(L1L
tg21
I00
(lp231
g1
(g10
g3
NtRp232
(dp233
g13
g1
(g14
g3
NtRp234
((lp235
g17
(g18
(I0
tS'b'
tRp236
((I1
(L1L
tg21
I00
(lp237
S'Simple_var'
p238
at(Nttba(lp239
g17
(g25
(I0
tS'b'
tRp240
(I1
(L1L
tg21
I00
(lp241
g1
(g10
g3
NtRp242
(dp243
g13
g1
(g14
g3
NtRp244
((lp245
g17
(g18
(I0
tS'b'
tRp246
((I1
(L1L
tg21
I00
(lp247
S'Id'
p248
at(Nttba(lp249
g17
(g25
(I0
tS'b'
tRp250
(I1
(L1L
tg21
I00
(lp251
g1
(g10
g3
NtRp252
(dp253
g13
g1
(g14
g3
NtRp254
((lp255
g17
(g18
(I0
tS'b'
tRp256
((I1
(L1L
tg21
I00
(lp257
S'_x_'
p258
at(Nttba(lp259
g17
(g25
(I0
tS'b'
tRp260
(I1
(L1L
tg21
I00
(lp261
g1
(g10
g3
NtRp262
(dp263
g13
g1
(g14
g3
NtRp264
((lp265
g17
(g18
(I0
tS'b'
tRp266
((I1
(L0L
tg21
I00
(lt(Nttba(lp267
g17
(g25
(I0
tS'b'
tRp268
(I1
(L0L
tg21
I00
(ltba(lp269
g266
atbsg111
S'x'
sbatba(lp270
g256
atbsg111
g248
sbatba(lp271
g246
atbsg111
g238
sbatba(lp272
g236
atbsg111
g228
sbatba(lp273
g226
atbsg111
g218
sbatba(lp274
g216
atbsg111
g171
sbag1
(g10
g3
NtRp275
(dp276
g13
g1
(g14
g3
NtRp277
((lp278
g17
(g18
(I0
tS'b'
tRp279
((I1
(L0L
tg21
I00
(lt(Nttba(lp280
g17
(g25
(I0
tS'b'
tRp281
(I1
(L0L
tg21
I00
(ltba(lp282
g279
atbsg111
S')'
sbatba(lp283
g166
atbsg111
g158
sbatba(lp284
g156
atbsg111
g147
sbag1
(g10
g3
NtRp285
(dp286
g13
g1
(g14
g3
NtRp287
((lp288
g17
(g18
(I0
tS'b'
tRp289
((I1
(L3L
tg21
I00
(lp290
S'Blockbegin'
p291
aS'Prog'
p292
aS'Blockend'
p293
at(Nttba(lp294
g17
(g25
(I0
tS'b'
tRp295
(I1
(L3L
tg21
I00
(lp296
g1
(g10
g3
NtRp297
(dp298
g13
g1
(g14
g3
NtRp299
((lp300
g17
(g18
(I0
tS'b'
tRp301
((I1
(L1L
tg21
I00
(lp302
S'_:$blockbegin_'
p303
at(Nttba(lp304
g17
(g25
(I0
tS'b'
tRp305
(I1
(L1L
tg21
I00
(lp306
g1
(g10
g3
NtRp307
(dp308
g13
g1
(g14
g3
NtRp309
((lp310
g17
(g18
(I0
tS'b'
tRp311
((I1
(L0L
tg21
I00
(lt(Nttba(lp312
g17
(g25
(I0
tS'b'
tRp313
(I1
(L0L
tg21
I00
(ltba(lp314
g311
atbsg111
S':$blockbegin'
p315
sbatba(lp316
g301
atbsg111
g291
sbag1
(g10
g3
NtRp317
(dp318
g13
g1
(g14
g3
NtRp319
((lp320
g17
(g18
(I0
tS'b'
tRp321
((I1
(L2L
tg21
I00
(lp322
S'Stmt1'
p323
aS'Stmt2'
p324
at(Nttba(lp325
g17
(g25
(I0
tS'b'
tRp326
(I1
(L2L
tg21
I00
(lp327
g1
(g10
g3
NtRp328
(dp329
g13
g1
(g14
g3
NtRp330
((lp331
g17
(g18
(I0
tS'b'
tRp332
((I1
(L1L
tg21
I00
(lp333
S'Single_stmt'
p334
at(Nttba(lp335
g17
(g25
(I0
tS'b'
tRp336
(I1
(L1L
tg21
I00
(lp337
g1
(g10
g3
NtRp338
(dp339
g13
g1
(g14
g3
NtRp340
((lp341
g17
(g18
(I0
tS'b'
tRp342
((I1
(L2L
tg21
I00
(lp343
S'Exprlist'
p344
aS'_;_'
p345
at(Nttba(lp346
g17
(g25
(I0
tS'b'
tRp347
(I1
(L2L
tg21
I00
(lp348
g1
(g10
g3
NtRp349
(dp350
g13
g1
(g14
g3
NtRp351
((lp352
g17
(g18
(I0
tS'b'
tRp353
((I1
(L1L
tg21
I00
(lp354
S'Expr'
p355
at(Nttba(lp356
g17
(g25
(I0
tS'b'
tRp357
(I1
(L1L
tg21
I00
(lp358
g1
(g10
g3
NtRp359
(dp360
g13
g1
(g14
g3
NtRp361
((lp362
g17
(g18
(I0
tS'b'
tRp363
((I1
(L1L
tg21
I00
(lp364
S'Val'
p365
at(Nttba(lp366
g17
(g25
(I0
tS'b'
tRp367
(I1
(L1L
tg21
I00
(lp368
g1
(g10
g3
NtRp369
(dp370
g13
g1
(g14
g3
NtRp371
((lp372
g17
(g18
(I0
tS'b'
tRp373
((I1
(L1L
tg21
I00
(lp374
S'String'
p375
at(Nttba(lp376
g17
(g25
(I0
tS'b'
tRp377
(I1
(L1L
tg21
I00
(lp378
g1
(g10
g3
NtRp379
(dp380
g13
g1
(g14
g3
NtRp381
((lp382
g17
(g18
(I0
tS'b'
tRp383
((I1
(L1L
tg21
I00
(lp384
S'_"""rechnen"""_'
p385
at(Nttba(lp386
g17
(g25
(I0
tS'b'
tRp387
(I1
(L1L
tg21
I00
(lp388
g1
(g10
g3
NtRp389
(dp390
g13
g1
(g14
g3
NtRp391
((lp392
g17
(g18
(I0
tS'b'
tRp393
((I1
(L0L
tg21
I00
(lt(Nttba(lp394
g17
(g25
(I0
tS'b'
tRp395
(I1
(L0L
tg21
I00
(ltba(lp396
g393
atbsg111
S'"""rechnen"""'
p397
sbatba(lp398
g383
atbsg111
g375
sbatba(lp399
g373
atbsg111
g365
sbatba(lp400
g17
(g18
(I0
tS'b'
tRp401
((I1
(L1L
tg21
I00
(lp402
g365
at(Nttbatbsg111
S'Expr'
p403
sbatba(lp404
g353
atbsg111
g344
sbag1
(g10
g3
NtRp405
(dp406
g13
g1
(g14
g3
NtRp407
((lp408
g17
(g18
(I0
tS'b'
tRp409
((I1
(L0L
tg21
I00
(lt(Nttba(lp410
g17
(g25
(I0
tS'b'
tRp411
(I1
(L0L
tg21
I00
(ltba(lp412
g409
atbsg111
S';'
sbatba(lp413
g342
atbsg111
g334
sbatba(lp414
g332
atbsg111
S'Stmt'
p415
sbag1
(g10
g3
NtRp416
(dp417
g13
g1
(g14
g3
NtRp418
((lp419
g17
(g18
(I0
tS'b'
tRp420
((I1
(L1L
tg21
I00
(lp421
S'Single_stmt'
p422
at(Nttba(lp423
g17
(g25
(I0
tS'b'
tRp424
(I1
(L1L
tg21
I00
(lp425
g1
(g10
g3
NtRp426
(dp427
g13
g1
(g14
g3
NtRp428
((lp429
g17
(g18
(I0
tS'b'
tRp430
((I1
(L2L
tg21
I00
(lp431
S'Func_stmt'
p432
aS'_;_'
p433
at(Nttba(lp434
g17
(g25
(I0
tS'b'
tRp435
(I1
(L2L
tg21
I00
(lp436
g1
(g10
g3
NtRp437
(dp438
g13
g1
(g14
g3
NtRp439
((lp440
g17
(g18
(I0
tS'b'
tRp441
((I1
(L2L
tg21
I00
(lp442
S'_return_'
p443
aS'Exprlist'
p444
at(Nttba(lp445
g17
(g25
(I0
tS'b'
tRp446
(I1
(L2L
tg21
I00
(lp447
g1
(g10
g3
NtRp448
(dp449
g13
g1
(g14
g3
NtRp450
((lp451
g17
(g18
(I0
tS'b'
tRp452
((I1
(L0L
tg21
I00
(lt(Nttba(lp453
g17
(g25
(I0
tS'b'
tRp454
(I1
(L0L
tg21
I00
(ltba(lp455
g452
atbsg111
S'return'
p456
sbag1
(g10
g3
NtRp457
(dp458
g13
g1
(g14
g3
NtRp459
((lp460
g17
(g18
(I0
tS'b'
tRp461
((I1
(L1L
tg21
I00
(lp462
S'Expr'
p463
at(Nttba(lp464
g17
(g25
(I0
tS'b'
tRp465
(I1
(L1L
tg21
I00
(lp466
g1
(g10
g3
NtRp467
(dp468
g13
g1
(g14
g3
NtRp469
((lp470
g17
(g18
(I0
tS'b'
tRp471
((I1
(L1L
tg21
I00
(lp472
S'Dash_calc'
p473
at(Nttba(lp474
g17
(g25
(I0
tS'b'
tRp475
(I1
(L1L
tg21
I00
(lp476
g1
(g10
g3
NtRp477
(dp478
g13
g1
(g14
g3
NtRp479
((lp480
g17
(g18
(I0
tS'b'
tRp481
((I1
(L3L
tg21
I00
(lp482
S'Expr1'
p483
aS'_+_'
p484
aS'Expr2'
p485
at(Nttba(lp486
g17
(g25
(I0
tS'b'
tRp487
(I1
(L3L
tg21
I00
(lp488
g1
(g10
g3
NtRp489
(dp490
g13
g1
(g14
g3
NtRp491
((lp492
g17
(g18
(I0
tS'b'
tRp493
((I1
(L1L
tg21
I00
(lp494
S'Dash_calc'
p495
at(Nttba(lp496
g17
(g25
(I0
tS'b'
tRp497
(I1
(L1L
tg21
I00
(lp498
g1
(g10
g3
NtRp499
(dp500
g13
g1
(g14
g3
NtRp501
((lp502
g17
(g18
(I0
tS'b'
tRp503
((I1
(L3L
tg21
I00
(lp504
S'Expr1'
p505
aS'_+_'
p506
aS'Expr2'
p507
at(Nttba(lp508
g17
(g25
(I0
tS'b'
tRp509
(I1
(L3L
tg21
I00
(lp510
g1
(g10
g3
NtRp511
(dp512
g13
g1
(g14
g3
NtRp513
((lp514
g17
(g18
(I0
tS'b'
tRp515
((I1
(L1L
tg21
I00
(lp516
S'Dash_calc'
p517
at(Nttba(lp518
g17
(g25
(I0
tS'b'
tRp519
(I1
(L1L
tg21
I00
(lp520
g1
(g10
g3
NtRp521
(dp522
g13
g1
(g14
g3
NtRp523
((lp524
g17
(g18
(I0
tS'b'
tRp525
((I1
(L3L
tg21
I00
(lp526
S'Expr1'
p527
aS'_-_'
p528
aS'Expr2'
p529
at(Nttba(lp530
g17
(g25
(I0
tS'b'
tRp531
(I1
(L3L
tg21
I00
(lp532
g1
(g10
g3
NtRp533
(dp534
g13
g1
(g14
g3
NtRp535
((lp536
g17
(g18
(I0
tS'b'
tRp537
((I1
(L1L
tg21
I00
(lp538
S'Dash_calc'
p539
at(Nttba(lp540
g17
(g25
(I0
tS'b'
tRp541
(I1
(L1L
tg21
I00
(lp542
g1
(g10
g3
NtRp543
(dp544
g13
g1
(g14
g3
NtRp545
((lp546
g17
(g18
(I0
tS'b'
tRp547
((I1
(L3L
tg21
I00
(lp548
S'Expr1'
p549
aS'_-_'
p550
aS'Expr2'
p551
at(Nttba(lp552
g17
(g25
(I0
tS'b'
tRp553
(I1
(L3L
tg21
I00
(lp554
g1
(g10
g3
NtRp555
(dp556
g13
g1
(g14
g3
NtRp557
((lp558
g17
(g18
(I0
tS'b'
tRp559
((I1
(L1L
tg21
I00
(lp560
S'Dash_calc'
p561
at(Nttba(lp562
g17
(g25
(I0
tS'b'
tRp563
(I1
(L1L
tg21
I00
(lp564
g1
(g10
g3
NtRp565
(dp566
g13
g1
(g14
g3
NtRp567
((lp568
g17
(g18
(I0
tS'b'
tRp569
((I1
(L3L
tg21
I00
(lp570
S'Expr1'
p571
aS'_+_'
p572
aS'Expr2'
p573
at(Nttba(lp574
g17
(g25
(I0
tS'b'
tRp575
(I1
(L3L
tg21
I00
(lp576
g1
(g10
g3
NtRp577
(dp578
g13
g1
(g14
g3
NtRp579
((lp580
g17
(g18
(I0
tS'b'
tRp581
((I1
(L1L
tg21
I00
(lp582
S'Exponentiation'
p583
at(Nttba(lp584
g17
(g25
(I0
tS'b'
tRp585
(I1
(L1L
tg21
I00
(lp586
g1
(g10
g3
NtRp587
(dp588
g13
g1
(g14
g3
NtRp589
((lp590
g17
(g18
(I0
tS'b'
tRp591
((I1
(L3L
tg21
I00
(lp592
S'Expr1'
p593
aS'_**_'
p594
aS'Expr2'
p595
at(Nttba(lp596
g17
(g25
(I0
tS'b'
tRp597
(I1
(L3L
tg21
I00
(lp598
g1
(g10
g3
NtRp599
(dp600
g13
g1
(g14
g3
NtRp601
((lp602
g17
(g18
(I0
tS'b'
tRp603
((I1
(L1L
tg21
I00
(lp604
S'Val'
p605
at(Nttba(lp606
g17
(g25
(I0
tS'b'
tRp607
(I1
(L1L
tg21
I00
(lp608
g1
(g10
g3
NtRp609
(dp610
g13
g1
(g14
g3
NtRp611
((lp612
g17
(g18
(I0
tS'b'
tRp613
((I1
(L1L
tg21
I00
(lp614
S'Var'
p615
at(Nttba(lp616
g17
(g25
(I0
tS'b'
tRp617
(I1
(L1L
tg21
I00
(lp618
g1
(g10
g3
NtRp619
(dp620
g13
g1
(g14
g3
NtRp621
((lp622
g17
(g18
(I0
tS'b'
tRp623
((I1
(L1L
tg21
I00
(lp624
S'Id'
p625
at(Nttba(lp626
g17
(g25
(I0
tS'b'
tRp627
(I1
(L1L
tg21
I00
(lp628
g1
(g10
g3
NtRp629
(dp630
g13
g1
(g14
g3
NtRp631
((lp632
g17
(g18
(I0
tS'b'
tRp633
((I1
(L1L
tg21
I00
(lp634
S'_x_'
p635
at(Nttba(lp636
g17
(g25
(I0
tS'b'
tRp637
(I1
(L1L
tg21
I00
(lp638
g1
(g10
g3
NtRp639
(dp640
g13
g1
(g14
g3
NtRp641
((lp642
g17
(g18
(I0
tS'b'
tRp643
((I1
(L0L
tg21
I00
(lt(Nttba(lp644
g17
(g25
(I0
tS'b'
tRp645
(I1
(L0L
tg21
I00
(ltba(lp646
g643
atbsg111
S'x'
sbatba(lp647
g633
atbsg111
g625
sbatba(lp648
g623
atbsg111
g615
sbatba(lp649
g613
atbsg111
g605
sbatba(lp650
g17
(g18
(I0
tS'b'
tRp651
((I1
(L1L
tg21
I00
(lp652
g605
at(Nttbatbsg111
S'Expr'
p653
sbag1
(g10
g3
NtRp654
(dp655
g13
g1
(g14
g3
NtRp656
((lp657
g17
(g18
(I0
tS'b'
tRp658
((I1
(L0L
tg21
I00
(lt(Nttba(lp659
g17
(g25
(I0
tS'b'
tRp660
(I1
(L0L
tg21
I00
(ltba(lp661
g658
atbsg111
S'**'
p662
sbag1
(g10
g3
NtRp663
(dp664
g13
g1
(g14
g3
NtRp665
((lp666
g17
(g18
(I0
tS'b'
tRp667
((I1
(L1L
tg21
I00
(lp668
S'Val'
p669
at(Nttba(lp670
g17
(g25
(I0
tS'b'
tRp671
(I1
(L1L
tg21
I00
(lp672
g1
(g10
g3
NtRp673
(dp674
g13
g1
(g14
g3
NtRp675
((lp676
g17
(g18
(I0
tS'b'
tRp677
((I1
(L1L
tg21
I00
(lp678
S'Number'
p679
at(Nttba(lp680
g17
(g25
(I0
tS'b'
tRp681
(I1
(L1L
tg21
I00
(lp682
g1
(g10
g3
NtRp683
(dp684
g13
g1
(g14
g3
NtRp685
((lp686
g17
(g18
(I0
tS'b'
tRp687
((I1
(L1L
tg21
I00
(lp688
S'Int'
p689
at(Nttba(lp690
g17
(g25
(I0
tS'b'
tRp691
(I1
(L1L
tg21
I00
(lp692
g1
(g10
g3
NtRp693
(dp694
g13
g1
(g14
g3
NtRp695
((lp696
g17
(g18
(I0
tS'b'
tRp697
((I1
(L1L
tg21
I00
(lp698
S'_2_'
p699
at(Nttba(lp700
g17
(g25
(I0
tS'b'
tRp701
(I1
(L1L
tg21
I00
(lp702
g1
(g10
g3
NtRp703
(dp704
g13
g1
(g14
g3
NtRp705
((lp706
g17
(g18
(I0
tS'b'
tRp707
((I1
(L0L
tg21
I00
(lt(Nttba(lp708
g17
(g25
(I0
tS'b'
tRp709
(I1
(L0L
tg21
I00
(ltba(lp710
g707
atbsg111
S'2'
sbatba(lp711
g697
atbsg111
g689
sbatba(lp712
g687
atbsg111
g679
sbatba(lp713
g677
atbsg111
g669
sbatba(lp714
g17
(g18
(I0
tS'b'
tRp715
((I1
(L1L
tg21
I00
(lp716
g669
at(Nttbatbsg111
S'Expr'
p717
sbatba(lp718
g591
atbsg111
g583
sbatba(lp719
g581
atbsg111
S'Expr'
p720
sbag1
(g10
g3
NtRp721
(dp722
g13
g1
(g14
g3
NtRp723
((lp724
g17
(g18
(I0
tS'b'
tRp725
((I1
(L0L
tg21
I00
(lt(Nttba(lp726
g17
(g25
(I0
tS'b'
tRp727
(I1
(L0L
tg21
I00
(ltba(lp728
g725
atbsg111
S'+'
sbag1
(g10
g3
NtRp729
(dp730
g13
g1
(g14
g3
NtRp731
((lp732
g17
(g18
(I0
tS'b'
tRp733
((I1
(L1L
tg21
I00
(lp734
S'Dot_calc'
p735
at(Nttba(lp736
g17
(g25
(I0
tS'b'
tRp737
(I1
(L1L
tg21
I00
(lp738
g1
(g10
g3
NtRp739
(dp740
g13
g1
(g14
g3
NtRp741
((lp742
g17
(g18
(I0
tS'b'
tRp743
((I1
(L3L
tg21
I00
(lp744
S'Expr1'
p745
aS'_*_'
p746
aS'Expr2'
p747
at(Nttba(lp748
g17
(g25
(I0
tS'b'
tRp749
(I1
(L3L
tg21
I00
(lp750
g1
(g10
g3
NtRp751
(dp752
g13
g1
(g14
g3
NtRp753
((lp754
g17
(g18
(I0
tS'b'
tRp755
((I1
(L1L
tg21
I00
(lp756
S'Val'
p757
at(Nttba(lp758
g17
(g25
(I0
tS'b'
tRp759
(I1
(L1L
tg21
I00
(lp760
g1
(g10
g3
NtRp761
(dp762
g13
g1
(g14
g3
NtRp763
((lp764
g17
(g18
(I0
tS'b'
tRp765
((I1
(L1L
tg21
I00
(lp766
S'Var'
p767
at(Nttba(lp768
g17
(g25
(I0
tS'b'
tRp769
(I1
(L1L
tg21
I00
(lp770
g1
(g10
g3
NtRp771
(dp772
g13
g1
(g14
g3
NtRp773
((lp774
g17
(g18
(I0
tS'b'
tRp775
((I1
(L1L
tg21
I00
(lp776
S'Id'
p777
at(Nttba(lp778
g17
(g25
(I0
tS'b'
tRp779
(I1
(L1L
tg21
I00
(lp780
g1
(g10
g3
NtRp781
(dp782
g13
g1
(g14
g3
NtRp783
((lp784
g17
(g18
(I0
tS'b'
tRp785
((I1
(L1L
tg21
I00
(lp786
S'_x_'
p787
at(Nttba(lp788
g17
(g25
(I0
tS'b'
tRp789
(I1
(L1L
tg21
I00
(lp790
g1
(g10
g3
NtRp791
(dp792
g13
g1
(g14
g3
NtRp793
((lp794
g17
(g18
(I0
tS'b'
tRp795
((I1
(L0L
tg21
I00
(lt(Nttba(lp796
g17
(g25
(I0
tS'b'
tRp797
(I1
(L0L
tg21
I00
(ltba(lp798
g795
atbsg111
S'x'
sbatba(lp799
g785
atbsg111
g777
sbatba(lp800
g775
atbsg111
g767
sbatba(lp801
g765
atbsg111
g757
sbatba(lp802
g17
(g18
(I0
tS'b'
tRp803
((I1
(L1L
tg21
I00
(lp804
g757
at(Nttbatbsg111
S'Expr'
p805
sbag1
(g10
g3
NtRp806
(dp807
g13
g1
(g14
g3
NtRp808
((lp809
g17
(g18
(I0
tS'b'
tRp810
((I1
(L0L
tg21
I00
(lt(Nttba(lp811
g17
(g25
(I0
tS'b'
tRp812
(I1
(L0L
tg21
I00
(ltba(lp813
g810
atbsg111
S'*'
sbag1
(g10
g3
NtRp814
(dp815
g13
g1
(g14
g3
NtRp816
((lp817
g17
(g18
(I0
tS'b'
tRp818
((I1
(L1L
tg21
I00
(lp819
S'Val'
p820
at(Nttba(lp821
g17
(g25
(I0
tS'b'
tRp822
(I1
(L1L
tg21
I00
(lp823
g1
(g10
g3
NtRp824
(dp825
g13
g1
(g14
g3
NtRp826
((lp827
g17
(g18
(I0
tS'b'
tRp828
((I1
(L1L
tg21
I00
(lp829
S'Number'
p830
at(Nttba(lp831
g17
(g25
(I0
tS'b'
tRp832
(I1
(L1L
tg21
I00
(lp833
g1
(g10
g3
NtRp834
(dp835
g13
g1
(g14
g3
NtRp836
((lp837
g17
(g18
(I0
tS'b'
tRp838
((I1
(L1L
tg21
I00
(lp839
S'Int'
p840
at(Nttba(lp841
g17
(g25
(I0
tS'b'
tRp842
(I1
(L1L
tg21
I00
(lp843
g1
(g10
g3
NtRp844
(dp845
g13
g1
(g14
g3
NtRp846
((lp847
g17
(g18
(I0
tS'b'
tRp848
((I1
(L1L
tg21
I00
(lp849
S'_4_'
p850
at(Nttba(lp851
g17
(g25
(I0
tS'b'
tRp852
(I1
(L1L
tg21
I00
(lp853
g1
(g10
g3
NtRp854
(dp855
g13
g1
(g14
g3
NtRp856
((lp857
g17
(g18
(I0
tS'b'
tRp858
((I1
(L0L
tg21
I00
(lt(Nttba(lp859
g17
(g25
(I0
tS'b'
tRp860
(I1
(L0L
tg21
I00
(ltba(lp861
g858
atbsg111
S'4'
sbatba(lp862
g848
atbsg111
g840
sbatba(lp863
g838
atbsg111
g830
sbatba(lp864
g828
atbsg111
g820
sbatba(lp865
g17
(g18
(I0
tS'b'
tRp866
((I1
(L1L
tg21
I00
(lp867
g820
at(Nttbatbsg111
S'Expr'
p868
sbatba(lp869
g743
atbsg111
g735
sbatba(lp870
g733
atbsg111
S'Expr'
p871
sbatba(lp872
g569
atbsg111
g561
sbatba(lp873
g559
atbsg111
S'Expr'
p874
sbag1
(g10
g3
NtRp875
(dp876
g13
g1
(g14
g3
NtRp877
((lp878
g17
(g18
(I0
tS'b'
tRp879
((I1
(L0L
tg21
I00
(lt(Nttba(lp880
g17
(g25
(I0
tS'b'
tRp881
(I1
(L0L
tg21
I00
(ltba(lp882
g879
atbsg111
S'-'
sbag1
(g10
g3
NtRp883
(dp884
g13
g1
(g14
g3
NtRp885
((lp886
g17
(g18
(I0
tS'b'
tRp887
((I1
(L1L
tg21
I00
(lp888
S'Dot_calc'
p889
at(Nttba(lp890
g17
(g25
(I0
tS'b'
tRp891
(I1
(L1L
tg21
I00
(lp892
g1
(g10
g3
NtRp893
(dp894
g13
g1
(g14
g3
NtRp895
((lp896
g17
(g18
(I0
tS'b'
tRp897
((I1
(L3L
tg21
I00
(lp898
S'Expr1'
p899
aS'_/_'
p900
aS'Expr2'
p901
at(Nttba(lp902
g17
(g25
(I0
tS'b'
tRp903
(I1
(L3L
tg21
I00
(lp904
g1
(g10
g3
NtRp905
(dp906
g13
g1
(g14
g3
NtRp907
((lp908
g17
(g18
(I0
tS'b'
tRp909
((I1
(L1L
tg21
I00
(lp910
S'Brackets'
p911
at(Nttba(lp912
g17
(g25
(I0
tS'b'
tRp913
(I1
(L1L
tg21
I00
(lp914
g1
(g10
g3
NtRp915
(dp916
g13
g1
(g14
g3
NtRp917
((lp918
g17
(g18
(I0
tS'b'
tRp919
((I1
(L3L
tg21
I00
(lp920
S'_(_'
p921
aS'Expr'
p922
aS'_)_'
p923
at(Nttba(lp924
g17
(g25
(I0
tS'b'
tRp925
(I1
(L3L
tg21
I00
(lp926
g1
(g10
g3
NtRp927
(dp928
g13
g1
(g14
g3
NtRp929
((lp930
g17
(g18
(I0
tS'b'
tRp931
((I1
(L0L
tg21
I00
(lt(Nttba(lp932
g17
(g25
(I0
tS'b'
tRp933
(I1
(L0L
tg21
I00
(ltba(lp934
g931
atbsg111
S'('
sbag1
(g10
g3
NtRp935
(dp936
g13
g1
(g14
g3
NtRp937
((lp938
g17
(g18
(I0
tS'b'
tRp939
((I1
(L1L
tg21
I00
(lp940
S'Dash_calc'
p941
at(Nttba(lp942
g17
(g25
(I0
tS'b'
tRp943
(I1
(L1L
tg21
I00
(lp944
g1
(g10
g3
NtRp945
(dp946
g13
g1
(g14
g3
NtRp947
((lp948
g17
(g18
(I0
tS'b'
tRp949
((I1
(L3L
tg21
I00
(lp950
S'Expr1'
p951
aS'_-_'
p952
aS'Expr2'
p953
at(Nttba(lp954
g17
(g25
(I0
tS'b'
tRp955
(I1
(L3L
tg21
I00
(lp956
g1
(g10
g3
NtRp957
(dp958
g13
g1
(g14
g3
NtRp959
((lp960
g17
(g18
(I0
tS'b'
tRp961
((I1
(L1L
tg21
I00
(lp962
S'Val'
p963
at(Nttba(lp964
g17
(g25
(I0
tS'b'
tRp965
(I1
(L1L
tg21
I00
(lp966
g1
(g10
g3
NtRp967
(dp968
g13
g1
(g14
g3
NtRp969
((lp970
g17
(g18
(I0
tS'b'
tRp971
((I1
(L1L
tg21
I00
(lp972
S'Var'
p973
at(Nttba(lp974
g17
(g25
(I0
tS'b'
tRp975
(I1
(L1L
tg21
I00
(lp976
g1
(g10
g3
NtRp977
(dp978
g13
g1
(g14
g3
NtRp979
((lp980
g17
(g18
(I0
tS'b'
tRp981
((I1
(L1L
tg21
I00
(lp982
S'Id'
p983
at(Nttba(lp984
g17
(g25
(I0
tS'b'
tRp985
(I1
(L1L
tg21
I00
(lp986
g1
(g10
g3
NtRp987
(dp988
g13
g1
(g14
g3
NtRp989
((lp990
g17
(g18
(I0
tS'b'
tRp991
((I1
(L1L
tg21
I00
(lp992
S'_x_'
p993
at(Nttba(lp994
g17
(g25
(I0
tS'b'
tRp995
(I1
(L1L
tg21
I00
(lp996
g1
(g10
g3
NtRp997
(dp998
g13
g1
(g14
g3
NtRp999
((lp1000
g17
(g18
(I0
tS'b'
tRp1001
((I1
(L0L
tg21
I00
(lt(Nttba(lp1002
g17
(g25
(I0
tS'b'
tRp1003
(I1
(L0L
tg21
I00
(ltba(lp1004
g1001
atbsg111
S'x'
sbatba(lp1005
g991
atbsg111
g983
sbatba(lp1006
g981
atbsg111
g973
sbatba(lp1007
g971
atbsg111
g963
sbatba(lp1008
g17
(g18
(I0
tS'b'
tRp1009
((I1
(L1L
tg21
I00
(lp1010
g963
at(Nttbatbsg111
S'Expr'
p1011
sbag1
(g10
g3
NtRp1012
(dp1013
g13
g1
(g14
g3
NtRp1014
((lp1015
g17
(g18
(I0
tS'b'
tRp1016
((I1
(L0L
tg21
I00
(lt(Nttba(lp1017
g17
(g25
(I0
tS'b'
tRp1018
(I1
(L0L
tg21
I00
(ltba(lp1019
g1016
atbsg111
S'-'
sbag1
(g10
g3
NtRp1020
(dp1021
g13
g1
(g14
g3
NtRp1022
((lp1023
g17
(g18
(I0
tS'b'
tRp1024
((I1
(L1L
tg21
I00
(lp1025
S'Val'
p1026
at(Nttba(lp1027
g17
(g25
(I0
tS'b'
tRp1028
(I1
(L1L
tg21
I00
(lp1029
g1
(g10
g3
NtRp1030
(dp1031
g13
g1
(g14
g3
NtRp1032
((lp1033
g17
(g18
(I0
tS'b'
tRp1034
((I1
(L1L
tg21
I00
(lp1035
S'Number'
p1036
at(Nttba(lp1037
g17
(g25
(I0
tS'b'
tRp1038
(I1
(L1L
tg21
I00
(lp1039
g1
(g10
g3
NtRp1040
(dp1041
g13
g1
(g14
g3
NtRp1042
((lp1043
g17
(g18
(I0
tS'b'
tRp1044
((I1
(L1L
tg21
I00
(lp1045
S'Int'
p1046
at(Nttba(lp1047
g17
(g25
(I0
tS'b'
tRp1048
(I1
(L1L
tg21
I00
(lp1049
g1
(g10
g3
NtRp1050
(dp1051
g13
g1
(g14
g3
NtRp1052
((lp1053
g17
(g18
(I0
tS'b'
tRp1054
((I1
(L1L
tg21
I00
(lp1055
S'_3_'
p1056
at(Nttba(lp1057
g17
(g25
(I0
tS'b'
tRp1058
(I1
(L1L
tg21
I00
(lp1059
g1
(g10
g3
NtRp1060
(dp1061
g13
g1
(g14
g3
NtRp1062
((lp1063
g17
(g18
(I0
tS'b'
tRp1064
((I1
(L0L
tg21
I00
(lt(Nttba(lp1065
g17
(g25
(I0
tS'b'
tRp1066
(I1
(L0L
tg21
I00
(ltba(lp1067
g1064
atbsg111
S'3'
sbatba(lp1068
g1054
atbsg111
g1046
sbatba(lp1069
g1044
atbsg111
g1036
sbatba(lp1070
g1034
atbsg111
g1026
sbatba(lp1071
g17
(g18
(I0
tS'b'
tRp1072
((I1
(L1L
tg21
I00
(lp1073
g1026
at(Nttbatbsg111
S'Expr'
p1074
sbatba(lp1075
g949
atbsg111
g941
sbatba(lp1076
g939
atbsg111
S'Expr'
p1077
sbag1
(g10
g3
NtRp1078
(dp1079
g13
g1
(g14
g3
NtRp1080
((lp1081
g17
(g18
(I0
tS'b'
tRp1082
((I1
(L0L
tg21
I00
(lt(Nttba(lp1083
g17
(g25
(I0
tS'b'
tRp1084
(I1
(L0L
tg21
I00
(ltba(lp1085
g1082
atbsg111
S')'
sbatba(lp1086
g919
atbsg111
g911
sbatba(lp1087
g909
atbsg111
S'Expr'
p1088
sbag1
(g10
g3
NtRp1089
(dp1090
g13
g1
(g14
g3
NtRp1091
((lp1092
g17
(g18
(I0
tS'b'
tRp1093
((I1
(L0L
tg21
I00
(lt(Nttba(lp1094
g17
(g25
(I0
tS'b'
tRp1095
(I1
(L0L
tg21
I00
(ltba(lp1096
g1093
atbsg111
S'/'
sbag1
(g10
g3
NtRp1097
(dp1098
g13
g1
(g14
g3
NtRp1099
((lp1100
g17
(g18
(I0
tS'b'
tRp1101
((I1
(L1L
tg21
I00
(lp1102
S'Val'
p1103
at(Nttba(lp1104
g17
(g25
(I0
tS'b'
tRp1105
(I1
(L1L
tg21
I00
(lp1106
g1
(g10
g3
NtRp1107
(dp1108
g13
g1
(g14
g3
NtRp1109
((lp1110
g17
(g18
(I0
tS'b'
tRp1111
((I1
(L1L
tg21
I00
(lp1112
S'Var'
p1113
at(Nttba(lp1114
g17
(g25
(I0
tS'b'
tRp1115
(I1
(L1L
tg21
I00
(lp1116
g1
(g10
g3
NtRp1117
(dp1118
g13
g1
(g14
g3
NtRp1119
((lp1120
g17
(g18
(I0
tS'b'
tRp1121
((I1
(L1L
tg21
I00
(lp1122
S'Id'
p1123
at(Nttba(lp1124
g17
(g25
(I0
tS'b'
tRp1125
(I1
(L1L
tg21
I00
(lp1126
g1
(g10
g3
NtRp1127
(dp1128
g13
g1
(g14
g3
NtRp1129
((lp1130
g17
(g18
(I0
tS'b'
tRp1131
((I1
(L1L
tg21
I00
(lp1132
S'_x_'
p1133
at(Nttba(lp1134
g17
(g25
(I0
tS'b'
tRp1135
(I1
(L1L
tg21
I00
(lp1136
g1
(g10
g3
NtRp1137
(dp1138
g13
g1
(g14
g3
NtRp1139
((lp1140
g17
(g18
(I0
tS'b'
tRp1141
((I1
(L0L
tg21
I00
(lt(Nttba(lp1142
g17
(g25
(I0
tS'b'
tRp1143
(I1
(L0L
tg21
I00
(ltba(lp1144
g1141
atbsg111
S'x'
sbatba(lp1145
g1131
atbsg111
g1123
sbatba(lp1146
g1121
atbsg111
g1113
sbatba(lp1147
g1111
atbsg111
g1103
sbatba(lp1148
g17
(g18
(I0
tS'b'
tRp1149
((I1
(L1L
tg21
I00
(lp1150
g1103
at(Nttbatbsg111
S'Expr'
p1151
sbatba(lp1152
g897
atbsg111
g889
sbatba(lp1153
g887
atbsg111
S'Expr'
p1154
sbatba(lp1155
g547
atbsg111
g539
sbatba(lp1156
g537
atbsg111
S'Expr'
p1157
sbag1
(g10
g3
NtRp1158
(dp1159
g13
g1
(g14
g3
NtRp1160
((lp1161
g17
(g18
(I0
tS'b'
tRp1162
((I1
(L0L
tg21
I00
(lt(Nttba(lp1163
g17
(g25
(I0
tS'b'
tRp1164
(I1
(L0L
tg21
I00
(ltba(lp1165
g1162
atbsg111
S'-'
sbag1
(g10
g3
NtRp1166
(dp1167
g13
g1
(g14
g3
NtRp1168
((lp1169
g17
(g18
(I0
tS'b'
tRp1170
((I1
(L1L
tg21
I00
(lp1171
S'Val'
p1172
at(Nttba(lp1173
g17
(g25
(I0
tS'b'
tRp1174
(I1
(L1L
tg21
I00
(lp1175
g1
(g10
g3
NtRp1176
(dp1177
g13
g1
(g14
g3
NtRp1178
((lp1179
g17
(g18
(I0
tS'b'
tRp1180
((I1
(L1L
tg21
I00
(lp1181
S'Number'
p1182
at(Nttba(lp1183
g17
(g25
(I0
tS'b'
tRp1184
(I1
(L1L
tg21
I00
(lp1185
g1
(g10
g3
NtRp1186
(dp1187
g13
g1
(g14
g3
NtRp1188
((lp1189
g17
(g18
(I0
tS'b'
tRp1190
((I1
(L1L
tg21
I00
(lp1191
S'Float'
p1192
at(Nttba(lp1193
g17
(g25
(I0
tS'b'
tRp1194
(I1
(L1L
tg21
I00
(lp1195
g1
(g10
g3
NtRp1196
(dp1197
g13
g1
(g14
g3
NtRp1198
((lp1199
g17
(g18
(I0
tS'b'
tRp1200
((I1
(L1L
tg21
I00
(lp1201
S'_1.3e2_'
p1202
at(Nttba(lp1203
g17
(g25
(I0
tS'b'
tRp1204
(I1
(L1L
tg21
I00
(lp1205
g1
(g10
g3
NtRp1206
(dp1207
g13
g1
(g14
g3
NtRp1208
((lp1209
g17
(g18
(I0
tS'b'
tRp1210
((I1
(L0L
tg21
I00
(lt(Nttba(lp1211
g17
(g25
(I0
tS'b'
tRp1212
(I1
(L0L
tg21
I00
(ltba(lp1213
g1210
atbsg111
S'1.3e2'
p1214
sbatba(lp1215
g1200
atbsg111
g1192
sbatba(lp1216
g1190
atbsg111
g1182
sbatba(lp1217
g1180
atbsg111
g1172
sbatba(lp1218
g17
(g18
(I0
tS'b'
tRp1219
((I1
(L1L
tg21
I00
(lp1220
g1172
at(Nttbatbsg111
S'Expr'
p1221
sbatba(lp1222
g525
atbsg111
g517
sbatba(lp1223
g515
atbsg111
S'Expr'
p1224
sbag1
(g10
g3
NtRp1225
(dp1226
g13
g1
(g14
g3
NtRp1227
((lp1228
g17
(g18
(I0
tS'b'
tRp1229
((I1
(L0L
tg21
I00
(lt(Nttba(lp1230
g17
(g25
(I0
tS'b'
tRp1231
(I1
(L0L
tg21
I00
(ltba(lp1232
g1229
atbsg111
S'+'
sbag1
(g10
g3
NtRp1233
(dp1234
g13
g1
(g14
g3
NtRp1235
((lp1236
g17
(g18
(I0
tS'b'
tRp1237
((I1
(L1L
tg21
I00
(lp1238
S'Val'
p1239
at(Nttba(lp1240
g17
(g25
(I0
tS'b'
tRp1241
(I1
(L1L
tg21
I00
(lp1242
g1
(g10
g3
NtRp1243
(dp1244
g13
g1
(g14
g3
NtRp1245
((lp1246
g17
(g18
(I0
tS'b'
tRp1247
((I1
(L1L
tg21
I00
(lp1248
S'Number'
p1249
at(Nttba(lp1250
g17
(g25
(I0
tS'b'
tRp1251
(I1
(L1L
tg21
I00
(lp1252
g1
(g10
g3
NtRp1253
(dp1254
g13
g1
(g14
g3
NtRp1255
((lp1256
g17
(g18
(I0
tS'b'
tRp1257
((I1
(L1L
tg21
I00
(lp1258
S'Int'
p1259
at(Nttba(lp1260
g17
(g25
(I0
tS'b'
tRp1261
(I1
(L1L
tg21
I00
(lp1262
g1
(g10
g3
NtRp1263
(dp1264
g13
g1
(g14
g3
NtRp1265
((lp1266
g17
(g18
(I0
tS'b'
tRp1267
((I1
(L1L
tg21
I00
(lp1268
S'_2_'
p1269
at(Nttba(lp1270
g17
(g25
(I0
tS'b'
tRp1271
(I1
(L1L
tg21
I00
(lp1272
g1
(g10
g3
NtRp1273
(dp1274
g13
g1
(g14
g3
NtRp1275
((lp1276
g17
(g18
(I0
tS'b'
tRp1277
((I1
(L0L
tg21
I00
(lt(Nttba(lp1278
g17
(g25
(I0
tS'b'
tRp1279
(I1
(L0L
tg21
I00
(ltba(lp1280
g1277
atbsg111
S'2'
sbatba(lp1281
g1267
atbsg111
g1259
sbatba(lp1282
g1257
atbsg111
g1249
sbatba(lp1283
g1247
atbsg111
g1239
sbatba(lp1284
g17
(g18
(I0
tS'b'
tRp1285
((I1
(L1L
tg21
I00
(lp1286
g1239
at(Nttbatbsg111
S'Expr'
p1287
sbatba(lp1288
g503
atbsg111
g495
sbatba(lp1289
g493
atbsg111
S'Expr'
p1290
sbag1
(g10
g3
NtRp1291
(dp1292
g13
g1
(g14
g3
NtRp1293
((lp1294
g17
(g18
(I0
tS'b'
tRp1295
((I1
(L0L
tg21
I00
(lt(Nttba(lp1296
g17
(g25
(I0
tS'b'
tRp1297
(I1
(L0L
tg21
I00
(ltba(lp1298
g1295
atbsg111
S'+'
sbag1
(g10
g3
NtRp1299
(dp1300
g13
g1
(g14
g3
NtRp1301
((lp1302
g17
(g18
(I0
tS'b'
tRp1303
((I1
(L1L
tg21
I00
(lp1304
S'Val'
p1305
at(Nttba(lp1306
g17
(g25
(I0
tS'b'
tRp1307
(I1
(L1L
tg21
I00
(lp1308
g1
(g10
g3
NtRp1309
(dp1310
g13
g1
(g14
g3
NtRp1311
((lp1312
g17
(g18
(I0
tS'b'
tRp1313
((I1
(L1L
tg21
I00
(lp1314
S'Number'
p1315
at(Nttba(lp1316
g17
(g25
(I0
tS'b'
tRp1317
(I1
(L1L
tg21
I00
(lp1318
g1
(g10
g3
NtRp1319
(dp1320
g13
g1
(g14
g3
NtRp1321
((lp1322
g17
(g18
(I0
tS'b'
tRp1323
((I1
(L1L
tg21
I00
(lp1324
S'Int'
p1325
at(Nttba(lp1326
g17
(g25
(I0
tS'b'
tRp1327
(I1
(L1L
tg21
I00
(lp1328
g1
(g10
g3
NtRp1329
(dp1330
g13
g1
(g14
g3
NtRp1331
((lp1332
g17
(g18
(I0
tS'b'
tRp1333
((I1
(L1L
tg21
I00
(lp1334
S'_5_'
p1335
at(Nttba(lp1336
g17
(g25
(I0
tS'b'
tRp1337
(I1
(L1L
tg21
I00
(lp1338
g1
(g10
g3
NtRp1339
(dp1340
g13
g1
(g14
g3
NtRp1341
((lp1342
g17
(g18
(I0
tS'b'
tRp1343
((I1
(L0L
tg21
I00
(lt(Nttba(lp1344
g17
(g25
(I0
tS'b'
tRp1345
(I1
(L0L
tg21
I00
(ltba(lp1346
g1343
atbsg111
S'5'
sbatba(lp1347
g1333
atbsg111
g1325
sbatba(lp1348
g1323
atbsg111
g1315
sbatba(lp1349
g1313
atbsg111
g1305
sbatba(lp1350
g17
(g18
(I0
tS'b'
tRp1351
((I1
(L1L
tg21
I00
(lp1352
g1305
at(Nttbatbsg111
S'Expr'
p1353
sbatba(lp1354
g481
atbsg111
g473
sbatba(lp1355
g471
atbsg111
S'Expr'
p1356
sbatba(lp1357
g461
atbsg111
g444
sbatba(lp1358
g441
atbsg111
g432
sbag1
(g10
g3
NtRp1359
(dp1360
g13
g1
(g14
g3
NtRp1361
((lp1362
g17
(g18
(I0
tS'b'
tRp1363
((I1
(L0L
tg21
I00
(lt(Nttba(lp1364
g17
(g25
(I0
tS'b'
tRp1365
(I1
(L0L
tg21
I00
(ltba(lp1366
g1363
atbsg111
S';'
sbatba(lp1367
g430
atbsg111
g422
sbatba(lp1368
g420
atbsg111
S'Stmt'
p1369
sbatba(lp1370
g321
atbsg111
g292
sbag1
(g10
g3
NtRp1371
(dp1372
g13
g1
(g14
g3
NtRp1373
((lp1374
g17
(g18
(I0
tS'b'
tRp1375
((I1
(L1L
tg21
I00
(lp1376
S'_$blockend_'
p1377
at(Nttba(lp1378
g17
(g25
(I0
tS'b'
tRp1379
(I1
(L1L
tg21
I00
(lp1380
g1
(g10
g3
NtRp1381
(dp1382
g13
g1
(g14
g3
NtRp1383
((lp1384
g17
(g18
(I0
tS'b'
tRp1385
((I1
(L0L
tg21
I00
(lt(Nttba(lp1386
g17
(g25
(I0
tS'b'
tRp1387
(I1
(L0L
tg21
I00
(ltba(lp1388
g1385
atbsg111
S'$blockend'
p1389
sbatba(lp1390
g1375
atbsg111
g293
sbatba(lp1391
g289
atbsg111
g148
sbatba(lp1392
g145
atbsg111
g137
sbatba(lp1393
g135
atbsg111
S'Stmt'
p1394
sbag1
(g10
g3
NtRp1395
(dp1396
g13
g1
(g14
g3
NtRp1397
((lp1398
g17
(g18
(I0
tS'b'
tRp1399
((I1
(L1L
tg21
I00
(lp1400
S'Single_stmt'
p1401
at(Nttba(lp1402
g17
(g25
(I0
tS'b'
tRp1403
(I1
(L1L
tg21
I00
(lp1404
g1
(g10
g3
NtRp1405
(dp1406
g13
g1
(g14
g3
NtRp1407
((lp1408
g17
(g18
(I0
tS'b'
tRp1409
((I1
(L2L
tg21
I00
(lp1410
S'Assign_stmt'
p1411
aS'_;_'
p1412
at(Nttba(lp1413
g17
(g25
(I0
tS'b'
tRp1414
(I1
(L2L
tg21
I00
(lp1415
g1
(g10
g3
NtRp1416
(dp1417
g13
g1
(g14
g3
NtRp1418
((lp1419
g17
(g18
(I0
tS'b'
tRp1420
((I1
(L1L
tg21
I00
(lp1421
S'Assign'
p1422
at(Nttba(lp1423
g17
(g25
(I0
tS'b'
tRp1424
(I1
(L1L
tg21
I00
(lp1425
g1
(g10
g3
NtRp1426
(dp1427
g13
g1
(g14
g3
NtRp1428
((lp1429
g17
(g18
(I0
tS'b'
tRp1430
((I1
(L3L
tg21
I00
(lp1431
S'Varlist'
p1432
aS'_=_'
p1433
aS'Exprlist'
p1434
at(Nttba(lp1435
g17
(g25
(I0
tS'b'
tRp1436
(I1
(L3L
tg21
I00
(lp1437
g1
(g10
g3
NtRp1438
(dp1439
g13
g1
(g14
g3
NtRp1440
((lp1441
g17
(g18
(I0
tS'b'
tRp1442
((I1
(L1L
tg21
I00
(lp1443
S'Vartuple'
p1444
at(Nttba(lp1445
g17
(g25
(I0
tS'b'
tRp1446
(I1
(L1L
tg21
I00
(lp1447
g1
(g10
g3
NtRp1448
(dp1449
g13
g1
(g14
g3
NtRp1450
((lp1451
g17
(g18
(I0
tS'b'
tRp1452
((I1
(L1L
tg21
I00
(lp1453
S'Var'
p1454
at(Nttba(lp1455
g17
(g25
(I0
tS'b'
tRp1456
(I1
(L1L
tg21
I00
(lp1457
g1
(g10
g3
NtRp1458
(dp1459
g13
g1
(g14
g3
NtRp1460
((lp1461
g17
(g18
(I0
tS'b'
tRp1462
((I1
(L1L
tg21
I00
(lp1463
S'Id'
p1464
at(Nttba(lp1465
g17
(g25
(I0
tS'b'
tRp1466
(I1
(L1L
tg21
I00
(lp1467
g1
(g10
g3
NtRp1468
(dp1469
g13
g1
(g14
g3
NtRp1470
((lp1471
g17
(g18
(I0
tS'b'
tRp1472
((I1
(L1L
tg21
I00
(lp1473
S'_L_'
p1474
at(Nttba(lp1475
g17
(g25
(I0
tS'b'
tRp1476
(I1
(L1L
tg21
I00
(lp1477
g1
(g10
g3
NtRp1478
(dp1479
g13
g1
(g14
g3
NtRp1480
((lp1481
g17
(g18
(I0
tS'b'
tRp1482
((I1
(L0L
tg21
I00
(lt(Nttba(lp1483
g17
(g25
(I0
tS'b'
tRp1484
(I1
(L0L
tg21
I00
(ltba(lp1485
g1482
atbsg111
S'L'
sbatba(lp1486
g1472
atbsg111
g1464
sbatba(lp1487
g1462
atbsg111
g1454
sbatba(lp1488
g1452
atbsg111
g1444
sbatba(lp1489
g1442
atbsg111
g1432
sbag1
(g10
g3
NtRp1490
(dp1491
g13
g1
(g14
g3
NtRp1492
((lp1493
g17
(g18
(I0
tS'b'
tRp1494
((I1
(L0L
tg21
I00
(lt(Nttba(lp1495
g17
(g25
(I0
tS'b'
tRp1496
(I1
(L0L
tg21
I00
(ltba(lp1497
g1494
atbsg111
S'='
sbag1
(g10
g3
NtRp1498
(dp1499
g13
g1
(g14
g3
NtRp1500
((lp1501
g17
(g18
(I0
tS'b'
tRp1502
((I1
(L1L
tg21
I00
(lp1503
S'Expr'
p1504
at(Nttba(lp1505
g17
(g25
(I0
tS'b'
tRp1506
(I1
(L1L
tg21
I00
(lp1507
g1
(g10
g3
NtRp1508
(dp1509
g13
g1
(g14
g3
NtRp1510
((lp1511
g17
(g18
(I0
tS'b'
tRp1512
((I1
(L1L
tg21
I00
(lp1513
S'Dot_calc'
p1514
at(Nttba(lp1515
g17
(g25
(I0
tS'b'
tRp1516
(I1
(L1L
tg21
I00
(lp1517
g1
(g10
g3
NtRp1518
(dp1519
g13
g1
(g14
g3
NtRp1520
((lp1521
g17
(g18
(I0
tS'b'
tRp1522
((I1
(L3L
tg21
I00
(lp1523
S'Expr1'
p1524
aS'_*_'
p1525
aS'Expr2'
p1526
at(Nttba(lp1527
g17
(g25
(I0
tS'b'
tRp1528
(I1
(L3L
tg21
I00
(lp1529
g1
(g10
g3
NtRp1530
(dp1531
g13
g1
(g14
g3
NtRp1532
((lp1533
g17
(g18
(I0
tS'b'
tRp1534
((I1
(L1L
tg21
I00
(lp1535
S'Val'
p1536
at(Nttba(lp1537
g17
(g25
(I0
tS'b'
tRp1538
(I1
(L1L
tg21
I00
(lp1539
g1
(g10
g3
NtRp1540
(dp1541
g13
g1
(g14
g3
NtRp1542
((lp1543
g17
(g18
(I0
tS'b'
tRp1544
((I1
(L1L
tg21
I00
(lp1545
S'List'
p1546
at(Nttba(lp1547
g17
(g25
(I0
tS'b'
tRp1548
(I1
(L1L
tg21
I00
(lp1549
g1
(g10
g3
NtRp1550
(dp1551
g13
g1
(g14
g3
NtRp1552
((lp1553
g17
(g18
(I0
tS'b'
tRp1554
((I1
(L3L
tg21
I00
(lp1555
S'_[_'
p1556
aS'Exprlist'
p1557
aS'_]_'
p1558
at(Nttba(lp1559
g17
(g25
(I0
tS'b'
tRp1560
(I1
(L3L
tg21
I00
(lp1561
g1
(g10
g3
NtRp1562
(dp1563
g13
g1
(g14
g3
NtRp1564
((lp1565
g17
(g18
(I0
tS'b'
tRp1566
((I1
(L0L
tg21
I00
(lt(Nttba(lp1567
g17
(g25
(I0
tS'b'
tRp1568
(I1
(L0L
tg21
I00
(ltba(lp1569
g1566
atbsg111
S'['
sbag1
(g10
g3
NtRp1570
(dp1571
g13
g1
(g14
g3
NtRp1572
((lp1573
g17
(g18
(I0
tS'b'
tRp1574
((I1
(L1L
tg21
I00
(lp1575
S'Expr'
p1576
at(Nttba(lp1577
g17
(g25
(I0
tS'b'
tRp1578
(I1
(L1L
tg21
I00
(lp1579
g1
(g10
g3
NtRp1580
(dp1581
g13
g1
(g14
g3
NtRp1582
((lp1583
g17
(g18
(I0
tS'b'
tRp1584
((I1
(L1L
tg21
I00
(lp1585
S'Val'
p1586
at(Nttba(lp1587
g17
(g25
(I0
tS'b'
tRp1588
(I1
(L1L
tg21
I00
(lp1589
g1
(g10
g3
NtRp1590
(dp1591
g13
g1
(g14
g3
NtRp1592
((lp1593
g17
(g18
(I0
tS'b'
tRp1594
((I1
(L1L
tg21
I00
(lp1595
S'Number'
p1596
at(Nttba(lp1597
g17
(g25
(I0
tS'b'
tRp1598
(I1
(L1L
tg21
I00
(lp1599
g1
(g10
g3
NtRp1600
(dp1601
g13
g1
(g14
g3
NtRp1602
((lp1603
g17
(g18
(I0
tS'b'
tRp1604
((I1
(L1L
tg21
I00
(lp1605
S'Int'
p1606
at(Nttba(lp1607
g17
(g25
(I0
tS'b'
tRp1608
(I1
(L1L
tg21
I00
(lp1609
g1
(g10
g3
NtRp1610
(dp1611
g13
g1
(g14
g3
NtRp1612
((lp1613
g17
(g18
(I0
tS'b'
tRp1614
((I1
(L1L
tg21
I00
(lp1615
S'_0_'
p1616
at(Nttba(lp1617
g17
(g25
(I0
tS'b'
tRp1618
(I1
(L1L
tg21
I00
(lp1619
g1
(g10
g3
NtRp1620
(dp1621
g13
g1
(g14
g3
NtRp1622
((lp1623
g17
(g18
(I0
tS'b'
tRp1624
((I1
(L0L
tg21
I00
(lt(Nttba(lp1625
g17
(g25
(I0
tS'b'
tRp1626
(I1
(L0L
tg21
I00
(ltba(lp1627
g1624
atbsg111
S'0'
sbatba(lp1628
g1614
atbsg111
g1606
sbatba(lp1629
g1604
atbsg111
g1596
sbatba(lp1630
g1594
atbsg111
g1586
sbatba(lp1631
g17
(g18
(I0
tS'b'
tRp1632
((I1
(L1L
tg21
I00
(lp1633
g1586
at(Nttbatbsg111
S'Expr'
p1634
sbatba(lp1635
g1574
atbsg111
g1557
sbag1
(g10
g3
NtRp1636
(dp1637
g13
g1
(g14
g3
NtRp1638
((lp1639
g17
(g18
(I0
tS'b'
tRp1640
((I1
(L0L
tg21
I00
(lt(Nttba(lp1641
g17
(g25
(I0
tS'b'
tRp1642
(I1
(L0L
tg21
I00
(ltba(lp1643
g1640
atbsg111
S']'
sbatba(lp1644
g1554
atbsg111
g1546
sbatba(lp1645
g1544
atbsg111
g1536
sbatba(lp1646
g17
(g18
(I0
tS'b'
tRp1647
((I1
(L1L
tg21
I00
(lp1648
g1536
at(Nttbatbsg111
S'Expr'
p1649
sbag1
(g10
g3
NtRp1650
(dp1651
g13
g1
(g14
g3
NtRp1652
((lp1653
g17
(g18
(I0
tS'b'
tRp1654
((I1
(L0L
tg21
I00
(lt(Nttba(lp1655
g17
(g25
(I0
tS'b'
tRp1656
(I1
(L0L
tg21
I00
(ltba(lp1657
g1654
atbsg111
S'*'
sbag1
(g10
g3
NtRp1658
(dp1659
g13
g1
(g14
g3
NtRp1660
((lp1661
g17
(g18
(I0
tS'b'
tRp1662
((I1
(L1L
tg21
I00
(lp1663
S'Val'
p1664
at(Nttba(lp1665
g17
(g25
(I0
tS'b'
tRp1666
(I1
(L1L
tg21
I00
(lp1667
g1
(g10
g3
NtRp1668
(dp1669
g13
g1
(g14
g3
NtRp1670
((lp1671
g17
(g18
(I0
tS'b'
tRp1672
((I1
(L1L
tg21
I00
(lp1673
S'Number'
p1674
at(Nttba(lp1675
g17
(g25
(I0
tS'b'
tRp1676
(I1
(L1L
tg21
I00
(lp1677
g1
(g10
g3
NtRp1678
(dp1679
g13
g1
(g14
g3
NtRp1680
((lp1681
g17
(g18
(I0
tS'b'
tRp1682
((I1
(L1L
tg21
I00
(lp1683
S'Int'
p1684
at(Nttba(lp1685
g17
(g25
(I0
tS'b'
tRp1686
(I1
(L1L
tg21
I00
(lp1687
g1
(g10
g3
NtRp1688
(dp1689
g13
g1
(g14
g3
NtRp1690
((lp1691
g17
(g18
(I0
tS'b'
tRp1692
((I1
(L1L
tg21
I00
(lp1693
S'_10_'
p1694
at(Nttba(lp1695
g17
(g25
(I0
tS'b'
tRp1696
(I1
(L1L
tg21
I00
(lp1697
g1
(g10
g3
NtRp1698
(dp1699
g13
g1
(g14
g3
NtRp1700
((lp1701
g17
(g18
(I0
tS'b'
tRp1702
((I1
(L0L
tg21
I00
(lt(Nttba(lp1703
g17
(g25
(I0
tS'b'
tRp1704
(I1
(L0L
tg21
I00
(ltba(lp1705
g1702
atbsg111
S'10'
p1706
sbatba(lp1707
g1692
atbsg111
g1684
sbatba(lp1708
g1682
atbsg111
g1674
sbatba(lp1709
g1672
atbsg111
g1664
sbatba(lp1710
g17
(g18
(I0
tS'b'
tRp1711
((I1
(L1L
tg21
I00
(lp1712
g1664
at(Nttbatbsg111
S'Expr'
p1713
sbatba(lp1714
g1522
atbsg111
g1514
sbatba(lp1715
g1512
atbsg111
S'Expr'
p1716
sbatba(lp1717
g1502
atbsg111
g1434
sbatba(lp1718
g1430
atbsg111
g1422
sbatba(lp1719
g1420
atbsg111
g1411
sbag1
(g10
g3
NtRp1720
(dp1721
g13
g1
(g14
g3
NtRp1722
((lp1723
g17
(g18
(I0
tS'b'
tRp1724
((I1
(L0L
tg21
I00
(lt(Nttba(lp1725
g17
(g25
(I0
tS'b'
tRp1726
(I1
(L0L
tg21
I00
(ltba(lp1727
g1724
atbsg111
S';'
sbatba(lp1728
g1409
atbsg111
g1401
sbatba(lp1729
g1399
atbsg111
S'Stmt'
p1730
sbag1
(g10
g3
NtRp1731
(dp1732
g13
g1
(g14
g3
NtRp1733
((lp1734
g17
(g18
(I0
tS'b'
tRp1735
((I1
(L1L
tg21
I00
(lp1736
S'Block_stmt'
p1737
at(Nttba(lp1738
g17
(g25
(I0
tS'b'
tRp1739
(I1
(L1L
tg21
I00
(lp1740
g1
(g10
g3
NtRp1741
(dp1742
g13
g1
(g14
g3
NtRp1743
((lp1744
g17
(g18
(I0
tS'b'
tRp1745
((I1
(L2L
tg21
I00
(lp1746
S'Block_head'
p1747
aS'Block'
p1748
at(Nttba(lp1749
g17
(g25
(I0
tS'b'
tRp1750
(I1
(L2L
tg21
I00
(lp1751
g1
(g10
g3
NtRp1752
(dp1753
g13
g1
(g14
g3
NtRp1754
((lp1755
g17
(g18
(I0
tS'b'
tRp1756
((I1
(L1L
tg21
I00
(lp1757
S'Loop'
p1758
at(Nttba(lp1759
g17
(g25
(I0
tS'b'
tRp1760
(I1
(L1L
tg21
I00
(lp1761
g1
(g10
g3
NtRp1762
(dp1763
g13
g1
(g14
g3
NtRp1764
((lp1765
g17
(g18
(I0
tS'b'
tRp1766
((I1
(L1L
tg21
I00
(lp1767
S'For'
p1768
at(Nttba(lp1769
g17
(g25
(I0
tS'b'
tRp1770
(I1
(L1L
tg21
I00
(lp1771
g1
(g10
g3
NtRp1772
(dp1773
g13
g1
(g14
g3
NtRp1774
((lp1775
g17
(g18
(I0
tS'b'
tRp1776
((I1
(L4L
tg21
I00
(lp1777
S'_for_'
p1778
aS'Varlist'
p1779
aS'_in_'
p1780
aS'Exprlist'
p1781
at(Nttba(lp1782
g17
(g25
(I0
tS'b'
tRp1783
(I1
(L4L
tg21
I00
(lp1784
g1
(g10
g3
NtRp1785
(dp1786
g13
g1
(g14
g3
NtRp1787
((lp1788
g17
(g18
(I0
tS'b'
tRp1789
((I1
(L0L
tg21
I00
(lt(Nttba(lp1790
g17
(g25
(I0
tS'b'
tRp1791
(I1
(L0L
tg21
I00
(ltba(lp1792
g1789
atbsg111
S'for'
p1793
sbag1
(g10
g3
NtRp1794
(dp1795
g13
g1
(g14
g3
NtRp1796
((lp1797
g17
(g18
(I0
tS'b'
tRp1798
((I1
(L1L
tg21
I00
(lp1799
S'Vartuple'
p1800
at(Nttba(lp1801
g17
(g25
(I0
tS'b'
tRp1802
(I1
(L1L
tg21
I00
(lp1803
g1
(g10
g3
NtRp1804
(dp1805
g13
g1
(g14
g3
NtRp1806
((lp1807
g17
(g18
(I0
tS'b'
tRp1808
((I1
(L1L
tg21
I00
(lp1809
S'Var'
p1810
at(Nttba(lp1811
g17
(g25
(I0
tS'b'
tRp1812
(I1
(L1L
tg21
I00
(lp1813
g1
(g10
g3
NtRp1814
(dp1815
g13
g1
(g14
g3
NtRp1816
((lp1817
g17
(g18
(I0
tS'b'
tRp1818
((I1
(L1L
tg21
I00
(lp1819
S'Id'
p1820
at(Nttba(lp1821
g17
(g25
(I0
tS'b'
tRp1822
(I1
(L1L
tg21
I00
(lp1823
g1
(g10
g3
NtRp1824
(dp1825
g13
g1
(g14
g3
NtRp1826
((lp1827
g17
(g18
(I0
tS'b'
tRp1828
((I1
(L1L
tg21
I00
(lp1829
S'_i_'
p1830
at(Nttba(lp1831
g17
(g25
(I0
tS'b'
tRp1832
(I1
(L1L
tg21
I00
(lp1833
g1
(g10
g3
NtRp1834
(dp1835
g13
g1
(g14
g3
NtRp1836
((lp1837
g17
(g18
(I0
tS'b'
tRp1838
((I1
(L0L
tg21
I00
(lt(Nttba(lp1839
g17
(g25
(I0
tS'b'
tRp1840
(I1
(L0L
tg21
I00
(ltba(lp1841
g1838
atbsg111
S'i'
sbatba(lp1842
g1828
atbsg111
g1820
sbatba(lp1843
g1818
atbsg111
g1810
sbatba(lp1844
g1808
atbsg111
g1800
sbatba(lp1845
g1798
atbsg111
g1779
sbag1
(g10
g3
NtRp1846
(dp1847
g13
g1
(g14
g3
NtRp1848
((lp1849
g17
(g18
(I0
tS'b'
tRp1850
((I1
(L0L
tg21
I00
(lt(Nttba(lp1851
g17
(g25
(I0
tS'b'
tRp1852
(I1
(L0L
tg21
I00
(ltba(lp1853
g1850
atbsg111
S'in'
p1854
sbag1
(g10
g3
NtRp1855
(dp1856
g13
g1
(g14
g3
NtRp1857
((lp1858
g17
(g18
(I0
tS'b'
tRp1859
((I1
(L1L
tg21
I00
(lp1860
S'Expr'
p1861
at(Nttba(lp1862
g17
(g25
(I0
tS'b'
tRp1863
(I1
(L1L
tg21
I00
(lp1864
g1
(g10
g3
NtRp1865
(dp1866
g13
g1
(g14
g3
NtRp1867
((lp1868
g17
(g18
(I0
tS'b'
tRp1869
((I1
(L1L
tg21
I00
(lp1870
S'Funccall'
p1871
at(Nttba(lp1872
g17
(g25
(I0
tS'b'
tRp1873
(I1
(L1L
tg21
I00
(lp1874
g1
(g10
g3
NtRp1875
(dp1876
g13
g1
(g14
g3
NtRp1877
((lp1878
g17
(g18
(I0
tS'b'
tRp1879
((I1
(L4L
tg21
I00
(lp1880
S'Expr'
p1881
aS'_(_'
p1882
aS'Arglist'
p1883
aS'_)_'
p1884
at(Nttba(lp1885
g17
(g25
(I0
tS'b'
tRp1886
(I1
(L4L
tg21
I00
(lp1887
g1
(g10
g3
NtRp1888
(dp1889
g13
g1
(g14
g3
NtRp1890
((lp1891
g17
(g18
(I0
tS'b'
tRp1892
((I1
(L1L
tg21
I00
(lp1893
S'Val'
p1894
at(Nttba(lp1895
g17
(g25
(I0
tS'b'
tRp1896
(I1
(L1L
tg21
I00
(lp1897
g1
(g10
g3
NtRp1898
(dp1899
g13
g1
(g14
g3
NtRp1900
((lp1901
g17
(g18
(I0
tS'b'
tRp1902
((I1
(L1L
tg21
I00
(lp1903
S'Var'
p1904
at(Nttba(lp1905
g17
(g25
(I0
tS'b'
tRp1906
(I1
(L1L
tg21
I00
(lp1907
g1
(g10
g3
NtRp1908
(dp1909
g13
g1
(g14
g3
NtRp1910
((lp1911
g17
(g18
(I0
tS'b'
tRp1912
((I1
(L1L
tg21
I00
(lp1913
S'Id'
p1914
at(Nttba(lp1915
g17
(g25
(I0
tS'b'
tRp1916
(I1
(L1L
tg21
I00
(lp1917
g1
(g10
g3
NtRp1918
(dp1919
g13
g1
(g14
g3
NtRp1920
((lp1921
g17
(g18
(I0
tS'b'
tRp1922
((I1
(L1L
tg21
I00
(lp1923
S'_range_'
p1924
at(Nttba(lp1925
g17
(g25
(I0
tS'b'
tRp1926
(I1
(L1L
tg21
I00
(lp1927
g1
(g10
g3
NtRp1928
(dp1929
g13
g1
(g14
g3
NtRp1930
((lp1931
g17
(g18
(I0
tS'b'
tRp1932
((I1
(L0L
tg21
I00
(lt(Nttba(lp1933
g17
(g25
(I0
tS'b'
tRp1934
(I1
(L0L
tg21
I00
(ltba(lp1935
g1932
atbsg111
S'range'
p1936
sbatba(lp1937
g1922
atbsg111
g1914
sbatba(lp1938
g1912
atbsg111
g1904
sbatba(lp1939
g1902
atbsg111
g1894
sbatba(lp1940
g17
(g18
(I0
tS'b'
tRp1941
((I1
(L1L
tg21
I00
(lp1942
g1894
at(Nttbatbsg111
S'Expr'
p1943
sbag1
(g10
g3
NtRp1944
(dp1945
g13
g1
(g14
g3
NtRp1946
((lp1947
g17
(g18
(I0
tS'b'
tRp1948
((I1
(L0L
tg21
I00
(lt(Nttba(lp1949
g17
(g25
(I0
tS'b'
tRp1950
(I1
(L0L
tg21
I00
(ltba(lp1951
g1948
atbsg111
S'('
sbag1
(g10
g3
NtRp1952
(dp1953
g13
g1
(g14
g3
NtRp1954
((lp1955
g17
(g18
(I0
tS'b'
tRp1956
((I1
(L1L
tg21
I00
(lp1957
S'Pos_arglist'
p1958
at(Nttba(lp1959
g17
(g25
(I0
tS'b'
tRp1960
(I1
(L1L
tg21
I00
(lp1961
g1
(g10
g3
NtRp1962
(dp1963
g13
g1
(g14
g3
NtRp1964
((lp1965
g17
(g18
(I0
tS'b'
tRp1966
((I1
(L1L
tg21
I00
(lp1967
S'Pos_arg'
p1968
at(Nttba(lp1969
g17
(g25
(I0
tS'b'
tRp1970
(I1
(L1L
tg21
I00
(lp1971
g1
(g10
g3
NtRp1972
(dp1973
g13
g1
(g14
g3
NtRp1974
((lp1975
g17
(g18
(I0
tS'b'
tRp1976
((I1
(L1L
tg21
I00
(lp1977
S'Expr'
p1978
at(Nttba(lp1979
g17
(g25
(I0
tS'b'
tRp1980
(I1
(L1L
tg21
I00
(lp1981
g1
(g10
g3
NtRp1982
(dp1983
g13
g1
(g14
g3
NtRp1984
((lp1985
g17
(g18
(I0
tS'b'
tRp1986
((I1
(L1L
tg21
I00
(lp1987
S'Funccall'
p1988
at(Nttba(lp1989
g17
(g25
(I0
tS'b'
tRp1990
(I1
(L1L
tg21
I00
(lp1991
g1
(g10
g3
NtRp1992
(dp1993
g13
g1
(g14
g3
NtRp1994
((lp1995
g17
(g18
(I0
tS'b'
tRp1996
((I1
(L4L
tg21
I00
(lp1997
S'Expr'
p1998
aS'_(_'
p1999
aS'Arglist'
p2000
aS'_)_'
p2001
at(Nttba(lp2002
g17
(g25
(I0
tS'b'
tRp2003
(I1
(L4L
tg21
I00
(lp2004
g1
(g10
g3
NtRp2005
(dp2006
g13
g1
(g14
g3
NtRp2007
((lp2008
g17
(g18
(I0
tS'b'
tRp2009
((I1
(L1L
tg21
I00
(lp2010
S'Val'
p2011
at(Nttba(lp2012
g17
(g25
(I0
tS'b'
tRp2013
(I1
(L1L
tg21
I00
(lp2014
g1
(g10
g3
NtRp2015
(dp2016
g13
g1
(g14
g3
NtRp2017
((lp2018
g17
(g18
(I0
tS'b'
tRp2019
((I1
(L1L
tg21
I00
(lp2020
S'Var'
p2021
at(Nttba(lp2022
g17
(g25
(I0
tS'b'
tRp2023
(I1
(L1L
tg21
I00
(lp2024
g1
(g10
g3
NtRp2025
(dp2026
g13
g1
(g14
g3
NtRp2027
((lp2028
g17
(g18
(I0
tS'b'
tRp2029
((I1
(L1L
tg21
I00
(lp2030
S'Id'
p2031
at(Nttba(lp2032
g17
(g25
(I0
tS'b'
tRp2033
(I1
(L1L
tg21
I00
(lp2034
g1
(g10
g3
NtRp2035
(dp2036
g13
g1
(g14
g3
NtRp2037
((lp2038
g17
(g18
(I0
tS'b'
tRp2039
((I1
(L1L
tg21
I00
(lp2040
S'_len_'
p2041
at(Nttba(lp2042
g17
(g25
(I0
tS'b'
tRp2043
(I1
(L1L
tg21
I00
(lp2044
g1
(g10
g3
NtRp2045
(dp2046
g13
g1
(g14
g3
NtRp2047
((lp2048
g17
(g18
(I0
tS'b'
tRp2049
((I1
(L0L
tg21
I00
(lt(Nttba(lp2050
g17
(g25
(I0
tS'b'
tRp2051
(I1
(L0L
tg21
I00
(ltba(lp2052
g2049
atbsg111
S'len'
p2053
sbatba(lp2054
g2039
atbsg111
g2031
sbatba(lp2055
g2029
atbsg111
g2021
sbatba(lp2056
g2019
atbsg111
g2011
sbatba(lp2057
g17
(g18
(I0
tS'b'
tRp2058
((I1
(L1L
tg21
I00
(lp2059
g2011
at(Nttbatbsg111
S'Expr'
p2060
sbag1
(g10
g3
NtRp2061
(dp2062
g13
g1
(g14
g3
NtRp2063
((lp2064
g17
(g18
(I0
tS'b'
tRp2065
((I1
(L0L
tg21
I00
(lt(Nttba(lp2066
g17
(g25
(I0
tS'b'
tRp2067
(I1
(L0L
tg21
I00
(ltba(lp2068
g2065
atbsg111
S'('
sbag1
(g10
g3
NtRp2069
(dp2070
g13
g1
(g14
g3
NtRp2071
((lp2072
g17
(g18
(I0
tS'b'
tRp2073
((I1
(L1L
tg21
I00
(lp2074
S'Pos_arglist'
p2075
at(Nttba(lp2076
g17
(g25
(I0
tS'b'
tRp2077
(I1
(L1L
tg21
I00
(lp2078
g1
(g10
g3
NtRp2079
(dp2080
g13
g1
(g14
g3
NtRp2081
((lp2082
g17
(g18
(I0
tS'b'
tRp2083
((I1
(L1L
tg21
I00
(lp2084
S'Pos_arg'
p2085
at(Nttba(lp2086
g17
(g25
(I0
tS'b'
tRp2087
(I1
(L1L
tg21
I00
(lp2088
g1
(g10
g3
NtRp2089
(dp2090
g13
g1
(g14
g3
NtRp2091
((lp2092
g17
(g18
(I0
tS'b'
tRp2093
((I1
(L1L
tg21
I00
(lp2094
S'Expr'
p2095
at(Nttba(lp2096
g17
(g25
(I0
tS'b'
tRp2097
(I1
(L1L
tg21
I00
(lp2098
g1
(g10
g3
NtRp2099
(dp2100
g13
g1
(g14
g3
NtRp2101
((lp2102
g17
(g18
(I0
tS'b'
tRp2103
((I1
(L1L
tg21
I00
(lp2104
S'Val'
p2105
at(Nttba(lp2106
g17
(g25
(I0
tS'b'
tRp2107
(I1
(L1L
tg21
I00
(lp2108
g1
(g10
g3
NtRp2109
(dp2110
g13
g1
(g14
g3
NtRp2111
((lp2112
g17
(g18
(I0
tS'b'
tRp2113
((I1
(L1L
tg21
I00
(lp2114
S'Var'
p2115
at(Nttba(lp2116
g17
(g25
(I0
tS'b'
tRp2117
(I1
(L1L
tg21
I00
(lp2118
g1
(g10
g3
NtRp2119
(dp2120
g13
g1
(g14
g3
NtRp2121
((lp2122
g17
(g18
(I0
tS'b'
tRp2123
((I1
(L1L
tg21
I00
(lp2124
S'Id'
p2125
at(Nttba(lp2126
g17
(g25
(I0
tS'b'
tRp2127
(I1
(L1L
tg21
I00
(lp2128
g1
(g10
g3
NtRp2129
(dp2130
g13
g1
(g14
g3
NtRp2131
((lp2132
g17
(g18
(I0
tS'b'
tRp2133
((I1
(L1L
tg21
I00
(lp2134
S'_L_'
p2135
at(Nttba(lp2136
g17
(g25
(I0
tS'b'
tRp2137
(I1
(L1L
tg21
I00
(lp2138
g1
(g10
g3
NtRp2139
(dp2140
g13
g1
(g14
g3
NtRp2141
((lp2142
g17
(g18
(I0
tS'b'
tRp2143
((I1
(L0L
tg21
I00
(lt(Nttba(lp2144
g17
(g25
(I0
tS'b'
tRp2145
(I1
(L0L
tg21
I00
(ltba(lp2146
g2143
atbsg111
S'L'
sbatba(lp2147
g2133
atbsg111
g2125
sbatba(lp2148
g2123
atbsg111
g2115
sbatba(lp2149
g2113
atbsg111
g2105
sbatba(lp2150
g17
(g18
(I0
tS'b'
tRp2151
((I1
(L1L
tg21
I00
(lp2152
g2105
at(Nttbatbsg111
S'Expr'
p2153
sbatba(lp2154
g2093
atbsg111
g2085
sbatba(lp2155
g2083
atbsg111
g2075
sbatba(lp2156
g2073
atbsg111
g2000
sbag1
(g10
g3
NtRp2157
(dp2158
g13
g1
(g14
g3
NtRp2159
((lp2160
g17
(g18
(I0
tS'b'
tRp2161
((I1
(L0L
tg21
I00
(lt(Nttba(lp2162
g17
(g25
(I0
tS'b'
tRp2163
(I1
(L0L
tg21
I00
(ltba(lp2164
g2161
atbsg111
S')'
sbatba(lp2165
g1996
atbsg111
g1988
sbatba(lp2166
g1986
atbsg111
S'Expr'
p2167
sbatba(lp2168
g1976
atbsg111
g1968
sbatba(lp2169
g1966
atbsg111
g1958
sbatba(lp2170
g1956
atbsg111
g1883
sbag1
(g10
g3
NtRp2171
(dp2172
g13
g1
(g14
g3
NtRp2173
((lp2174
g17
(g18
(I0
tS'b'
tRp2175
((I1
(L0L
tg21
I00
(lt(Nttba(lp2176
g17
(g25
(I0
tS'b'
tRp2177
(I1
(L0L
tg21
I00
(ltba(lp2178
g2175
atbsg111
S')'
sbatba(lp2179
g1879
atbsg111
g1871
sbatba(lp2180
g1869
atbsg111
S'Expr'
p2181
sbatba(lp2182
g1859
atbsg111
g1781
sbatba(lp2183
g1776
atbsg111
g1768
sbatba(lp2184
g1766
atbsg111
g1758
sbatba(lp2185
g1756
atbsg111
g1747
sbag1
(g10
g3
NtRp2186
(dp2187
g13
g1
(g14
g3
NtRp2188
((lp2189
g17
(g18
(I0
tS'b'
tRp2190
((I1
(L3L
tg21
I00
(lp2191
S'Blockbegin'
p2192
aS'Prog'
p2193
aS'Blockend'
p2194
at(Nttba(lp2195
g17
(g25
(I0
tS'b'
tRp2196
(I1
(L3L
tg21
I00
(lp2197
g1
(g10
g3
NtRp2198
(dp2199
g13
g1
(g14
g3
NtRp2200
((lp2201
g17
(g18
(I0
tS'b'
tRp2202
((I1
(L1L
tg21
I00
(lp2203
S'_:$blockbegin_'
p2204
at(Nttba(lp2205
g17
(g25
(I0
tS'b'
tRp2206
(I1
(L1L
tg21
I00
(lp2207
g1
(g10
g3
NtRp2208
(dp2209
g13
g1
(g14
g3
NtRp2210
((lp2211
g17
(g18
(I0
tS'b'
tRp2212
((I1
(L0L
tg21
I00
(lt(Nttba(lp2213
g17
(g25
(I0
tS'b'
tRp2214
(I1
(L0L
tg21
I00
(ltba(lp2215
g2212
atbsg111
S':$blockbegin'
p2216
sbatba(lp2217
g2202
atbsg111
g2192
sbag1
(g10
g3
NtRp2218
(dp2219
g13
g1
(g14
g3
NtRp2220
((lp2221
g17
(g18
(I0
tS'b'
tRp2222
((I1
(L1L
tg21
I00
(lp2223
S'Stmt'
p2224
at(Nttba(lp2225
g17
(g25
(I0
tS'b'
tRp2226
(I1
(L1L
tg21
I00
(lp2227
g1
(g10
g3
NtRp2228
(dp2229
g13
g1
(g14
g3
NtRp2230
((lp2231
g17
(g18
(I0
tS'b'
tRp2232
((I1
(L1L
tg21
I00
(lp2233
S'Block_stmt'
p2234
at(Nttba(lp2235
g17
(g25
(I0
tS'b'
tRp2236
(I1
(L1L
tg21
I00
(lp2237
g1
(g10
g3
NtRp2238
(dp2239
g13
g1
(g14
g3
NtRp2240
((lp2241
g17
(g18
(I0
tS'b'
tRp2242
((I1
(L1L
tg21
I00
(lp2243
S'Ifelse'
p2244
at(Nttba(lp2245
g17
(g25
(I0
tS'b'
tRp2246
(I1
(L1L
tg21
I00
(lp2247
g1
(g10
g3
NtRp2248
(dp2249
g13
g1
(g14
g3
NtRp2250
((lp2251
g17
(g18
(I0
tS'b'
tRp2252
((I1
(L4L
tg21
I00
(lp2253
S'If'
p2254
aS'Block1'
p2255
aS'Else'
p2256
aS'Block2'
p2257
at(Nttba(lp2258
g17
(g25
(I0
tS'b'
tRp2259
(I1
(L4L
tg21
I00
(lp2260
g1
(g10
g3
NtRp2261
(dp2262
g13
g1
(g14
g3
NtRp2263
((lp2264
g17
(g18
(I0
tS'b'
tRp2265
((I1
(L2L
tg21
I00
(lp2266
S'_if_'
p2267
aS'Expr'
p2268
at(Nttba(lp2269
g17
(g25
(I0
tS'b'
tRp2270
(I1
(L2L
tg21
I00
(lp2271
g1
(g10
g3
NtRp2272
(dp2273
g13
g1
(g14
g3
NtRp2274
((lp2275
g17
(g18
(I0
tS'b'
tRp2276
((I1
(L0L
tg21
I00
(lt(Nttba(lp2277
g17
(g25
(I0
tS'b'
tRp2278
(I1
(L0L
tg21
I00
(ltba(lp2279
g2276
atbsg111
S'if'
p2280
sbag1
(g10
g3
NtRp2281
(dp2282
g13
g1
(g14
g3
NtRp2283
((lp2284
g17
(g18
(I0
tS'b'
tRp2285
((I1
(L1L
tg21
I00
(lp2286
S'Comparison'
p2287
at(Nttba(lp2288
g17
(g25
(I0
tS'b'
tRp2289
(I1
(L1L
tg21
I00
(lp2290
g1
(g10
g3
NtRp2291
(dp2292
g13
g1
(g14
g3
NtRp2293
((lp2294
g17
(g18
(I0
tS'b'
tRp2295
((I1
(L3L
tg21
I00
(lp2296
S'Expr1'
p2297
aS'Op_cmp'
p2298
aS'Expr2'
p2299
at(Nttba(lp2300
g17
(g25
(I0
tS'b'
tRp2301
(I1
(L3L
tg21
I00
(lp2302
g1
(g10
g3
NtRp2303
(dp2304
g13
g1
(g14
g3
NtRp2305
((lp2306
g17
(g18
(I0
tS'b'
tRp2307
((I1
(L1L
tg21
I00
(lp2308
S'Val'
p2309
at(Nttba(lp2310
g17
(g25
(I0
tS'b'
tRp2311
(I1
(L1L
tg21
I00
(lp2312
g1
(g10
g3
NtRp2313
(dp2314
g13
g1
(g14
g3
NtRp2315
((lp2316
g17
(g18
(I0
tS'b'
tRp2317
((I1
(L1L
tg21
I00
(lp2318
S'Var'
p2319
at(Nttba(lp2320
g17
(g25
(I0
tS'b'
tRp2321
(I1
(L1L
tg21
I00
(lp2322
g1
(g10
g3
NtRp2323
(dp2324
g13
g1
(g14
g3
NtRp2325
((lp2326
g17
(g18
(I0
tS'b'
tRp2327
((I1
(L1L
tg21
I00
(lp2328
S'Id'
p2329
at(Nttba(lp2330
g17
(g25
(I0
tS'b'
tRp2331
(I1
(L1L
tg21
I00
(lp2332
g1
(g10
g3
NtRp2333
(dp2334
g13
g1
(g14
g3
NtRp2335
((lp2336
g17
(g18
(I0
tS'b'
tRp2337
((I1
(L1L
tg21
I00
(lp2338
S'_i_'
p2339
at(Nttba(lp2340
g17
(g25
(I0
tS'b'
tRp2341
(I1
(L1L
tg21
I00
(lp2342
g1
(g10
g3
NtRp2343
(dp2344
g13
g1
(g14
g3
NtRp2345
((lp2346
g17
(g18
(I0
tS'b'
tRp2347
((I1
(L0L
tg21
I00
(lt(Nttba(lp2348
g17
(g25
(I0
tS'b'
tRp2349
(I1
(L0L
tg21
I00
(ltba(lp2350
g2347
atbsg111
S'i'
sbatba(lp2351
g2337
atbsg111
g2329
sbatba(lp2352
g2327
atbsg111
g2319
sbatba(lp2353
g2317
atbsg111
g2309
sbatba(lp2354
g17
(g18
(I0
tS'b'
tRp2355
((I1
(L1L
tg21
I00
(lp2356
g2309
at(Nttbatbsg111
S'Expr'
p2357
sbag1
(g10
g3
NtRp2358
(dp2359
g13
g1
(g14
g3
NtRp2360
((lp2361
g17
(g18
(I0
tS'b'
tRp2362
((I1
(L1L
tg21
I00
(lp2363
S'_>_'
p2364
at(Nttba(lp2365
g17
(g25
(I0
tS'b'
tRp2366
(I1
(L1L
tg21
I00
(lp2367
g1
(g10
g3
NtRp2368
(dp2369
g13
g1
(g14
g3
NtRp2370
((lp2371
g17
(g18
(I0
tS'b'
tRp2372
((I1
(L0L
tg21
I00
(lt(Nttba(lp2373
g17
(g25
(I0
tS'b'
tRp2374
(I1
(L0L
tg21
I00
(ltba(lp2375
g2372
atbsg111
S'>'
sbatba(lp2376
g2362
atbsg111
g2298
sbag1
(g10
g3
NtRp2377
(dp2378
g13
g1
(g14
g3
NtRp2379
((lp2380
g17
(g18
(I0
tS'b'
tRp2381
((I1
(L1L
tg21
I00
(lp2382
S'Val'
p2383
at(Nttba(lp2384
g17
(g25
(I0
tS'b'
tRp2385
(I1
(L1L
tg21
I00
(lp2386
g1
(g10
g3
NtRp2387
(dp2388
g13
g1
(g14
g3
NtRp2389
((lp2390
g17
(g18
(I0
tS'b'
tRp2391
((I1
(L1L
tg21
I00
(lp2392
S'Number'
p2393
at(Nttba(lp2394
g17
(g25
(I0
tS'b'
tRp2395
(I1
(L1L
tg21
I00
(lp2396
g1
(g10
g3
NtRp2397
(dp2398
g13
g1
(g14
g3
NtRp2399
((lp2400
g17
(g18
(I0
tS'b'
tRp2401
((I1
(L1L
tg21
I00
(lp2402
S'Int'
p2403
at(Nttba(lp2404
g17
(g25
(I0
tS'b'
tRp2405
(I1
(L1L
tg21
I00
(lp2406
g1
(g10
g3
NtRp2407
(dp2408
g13
g1
(g14
g3
NtRp2409
((lp2410
g17
(g18
(I0
tS'b'
tRp2411
((I1
(L1L
tg21
I00
(lp2412
S'_3_'
p2413
at(Nttba(lp2414
g17
(g25
(I0
tS'b'
tRp2415
(I1
(L1L
tg21
I00
(lp2416
g1
(g10
g3
NtRp2417
(dp2418
g13
g1
(g14
g3
NtRp2419
((lp2420
g17
(g18
(I0
tS'b'
tRp2421
((I1
(L0L
tg21
I00
(lt(Nttba(lp2422
g17
(g25
(I0
tS'b'
tRp2423
(I1
(L0L
tg21
I00
(ltba(lp2424
g2421
atbsg111
S'3'
sbatba(lp2425
g2411
atbsg111
g2403
sbatba(lp2426
g2401
atbsg111
g2393
sbatba(lp2427
g2391
atbsg111
g2383
sbatba(lp2428
g17
(g18
(I0
tS'b'
tRp2429
((I1
(L1L
tg21
I00
(lp2430
g2383
at(Nttbatbsg111
S'Expr'
p2431
sbatba(lp2432
g2295
atbsg111
g2287
sbatba(lp2433
g2285
atbsg111
S'Expr'
p2434
sbatba(lp2435
g2265
atbsg111
g2254
sbag1
(g10
g3
NtRp2436
(dp2437
g13
g1
(g14
g3
NtRp2438
((lp2439
g17
(g18
(I0
tS'b'
tRp2440
((I1
(L3L
tg21
I00
(lp2441
S'Blockbegin'
p2442
aS'Prog'
p2443
aS'Blockend'
p2444
at(Nttba(lp2445
g17
(g25
(I0
tS'b'
tRp2446
(I1
(L3L
tg21
I00
(lp2447
g1
(g10
g3
NtRp2448
(dp2449
g13
g1
(g14
g3
NtRp2450
((lp2451
g17
(g18
(I0
tS'b'
tRp2452
((I1
(L1L
tg21
I00
(lp2453
S'_:$blockbegin_'
p2454
at(Nttba(lp2455
g17
(g25
(I0
tS'b'
tRp2456
(I1
(L1L
tg21
I00
(lp2457
g1
(g10
g3
NtRp2458
(dp2459
g13
g1
(g14
g3
NtRp2460
((lp2461
g17
(g18
(I0
tS'b'
tRp2462
((I1
(L0L
tg21
I00
(lt(Nttba(lp2463
g17
(g25
(I0
tS'b'
tRp2464
(I1
(L0L
tg21
I00
(ltba(lp2465
g2462
atbsg111
S':$blockbegin'
p2466
sbatba(lp2467
g2452
atbsg111
g2442
sbag1
(g10
g3
NtRp2468
(dp2469
g13
g1
(g14
g3
NtRp2470
((lp2471
g17
(g18
(I0
tS'b'
tRp2472
((I1
(L1L
tg21
I00
(lp2473
S'Stmt'
p2474
at(Nttba(lp2475
g17
(g25
(I0
tS'b'
tRp2476
(I1
(L1L
tg21
I00
(lp2477
g1
(g10
g3
NtRp2478
(dp2479
g13
g1
(g14
g3
NtRp2480
((lp2481
g17
(g18
(I0
tS'b'
tRp2482
((I1
(L1L
tg21
I00
(lp2483
S'Single_stmt'
p2484
at(Nttba(lp2485
g17
(g25
(I0
tS'b'
tRp2486
(I1
(L1L
tg21
I00
(lp2487
g1
(g10
g3
NtRp2488
(dp2489
g13
g1
(g14
g3
NtRp2490
((lp2491
g17
(g18
(I0
tS'b'
tRp2492
((I1
(L2L
tg21
I00
(lp2493
S'Assign_stmt'
p2494
aS'_;_'
p2495
at(Nttba(lp2496
g17
(g25
(I0
tS'b'
tRp2497
(I1
(L2L
tg21
I00
(lp2498
g1
(g10
g3
NtRp2499
(dp2500
g13
g1
(g14
g3
NtRp2501
((lp2502
g17
(g18
(I0
tS'b'
tRp2503
((I1
(L1L
tg21
I00
(lp2504
S'Assign'
p2505
at(Nttba(lp2506
g17
(g25
(I0
tS'b'
tRp2507
(I1
(L1L
tg21
I00
(lp2508
g1
(g10
g3
NtRp2509
(dp2510
g13
g1
(g14
g3
NtRp2511
((lp2512
g17
(g18
(I0
tS'b'
tRp2513
((I1
(L3L
tg21
I00
(lp2514
S'Varlist'
p2515
aS'_=_'
p2516
aS'Exprlist'
p2517
at(Nttba(lp2518
g17
(g25
(I0
tS'b'
tRp2519
(I1
(L3L
tg21
I00
(lp2520
g1
(g10
g3
NtRp2521
(dp2522
g13
g1
(g14
g3
NtRp2523
((lp2524
g17
(g18
(I0
tS'b'
tRp2525
((I1
(L1L
tg21
I00
(lp2526
S'Vartuple'
p2527
at(Nttba(lp2528
g17
(g25
(I0
tS'b'
tRp2529
(I1
(L1L
tg21
I00
(lp2530
g1
(g10
g3
NtRp2531
(dp2532
g13
g1
(g14
g3
NtRp2533
((lp2534
g17
(g18
(I0
tS'b'
tRp2535
((I1
(L1L
tg21
I00
(lp2536
S'Var'
p2537
at(Nttba(lp2538
g17
(g25
(I0
tS'b'
tRp2539
(I1
(L1L
tg21
I00
(lp2540
g1
(g10
g3
NtRp2541
(dp2542
g13
g1
(g14
g3
NtRp2543
((lp2544
g17
(g18
(I0
tS'b'
tRp2545
((I1
(L4L
tg21
I00
(lp2546
S'Var'
p2547
aS'_[_'
p2548
aS'Slice'
p2549
aS'_]_'
p2550
at(Nttba(lp2551
g17
(g25
(I0
tS'b'
tRp2552
(I1
(L4L
tg21
I00
(lp2553
g1
(g10
g3
NtRp2554
(dp2555
g13
g1
(g14
g3
NtRp2556
((lp2557
g17
(g18
(I0
tS'b'
tRp2558
((I1
(L1L
tg21
I00
(lp2559
S'Id'
p2560
at(Nttba(lp2561
g17
(g25
(I0
tS'b'
tRp2562
(I1
(L1L
tg21
I00
(lp2563
g1
(g10
g3
NtRp2564
(dp2565
g13
g1
(g14
g3
NtRp2566
((lp2567
g17
(g18
(I0
tS'b'
tRp2568
((I1
(L1L
tg21
I00
(lp2569
S'_L_'
p2570
at(Nttba(lp2571
g17
(g25
(I0
tS'b'
tRp2572
(I1
(L1L
tg21
I00
(lp2573
g1
(g10
g3
NtRp2574
(dp2575
g13
g1
(g14
g3
NtRp2576
((lp2577
g17
(g18
(I0
tS'b'
tRp2578
((I1
(L0L
tg21
I00
(lt(Nttba(lp2579
g17
(g25
(I0
tS'b'
tRp2580
(I1
(L0L
tg21
I00
(ltba(lp2581
g2578
atbsg111
S'L'
sbatba(lp2582
g2568
atbsg111
g2560
sbatba(lp2583
g2558
atbsg111
g2547
sbag1
(g10
g3
NtRp2584
(dp2585
g13
g1
(g14
g3
NtRp2586
((lp2587
g17
(g18
(I0
tS'b'
tRp2588
((I1
(L0L
tg21
I00
(lt(Nttba(lp2589
g17
(g25
(I0
tS'b'
tRp2590
(I1
(L0L
tg21
I00
(ltba(lp2591
g2588
atbsg111
S'['
sbag1
(g10
g3
NtRp2592
(dp2593
g13
g1
(g14
g3
NtRp2594
((lp2595
g17
(g18
(I0
tS'b'
tRp2596
((I1
(L1L
tg21
I00
(lp2597
S'Expr'
p2598
at(Nttba(lp2599
g17
(g25
(I0
tS'b'
tRp2600
(I1
(L1L
tg21
I00
(lp2601
g1
(g10
g3
NtRp2602
(dp2603
g13
g1
(g14
g3
NtRp2604
((lp2605
g17
(g18
(I0
tS'b'
tRp2606
((I1
(L1L
tg21
I00
(lp2607
S'Val'
p2608
at(Nttba(lp2609
g17
(g25
(I0
tS'b'
tRp2610
(I1
(L1L
tg21
I00
(lp2611
g1
(g10
g3
NtRp2612
(dp2613
g13
g1
(g14
g3
NtRp2614
((lp2615
g17
(g18
(I0
tS'b'
tRp2616
((I1
(L1L
tg21
I00
(lp2617
S'Var'
p2618
at(Nttba(lp2619
g17
(g25
(I0
tS'b'
tRp2620
(I1
(L1L
tg21
I00
(lp2621
g1
(g10
g3
NtRp2622
(dp2623
g13
g1
(g14
g3
NtRp2624
((lp2625
g17
(g18
(I0
tS'b'
tRp2626
((I1
(L1L
tg21
I00
(lp2627
S'Id'
p2628
at(Nttba(lp2629
g17
(g25
(I0
tS'b'
tRp2630
(I1
(L1L
tg21
I00
(lp2631
g1
(g10
g3
NtRp2632
(dp2633
g13
g1
(g14
g3
NtRp2634
((lp2635
g17
(g18
(I0
tS'b'
tRp2636
((I1
(L1L
tg21
I00
(lp2637
S'_i_'
p2638
at(Nttba(lp2639
g17
(g25
(I0
tS'b'
tRp2640
(I1
(L1L
tg21
I00
(lp2641
g1
(g10
g3
NtRp2642
(dp2643
g13
g1
(g14
g3
NtRp2644
((lp2645
g17
(g18
(I0
tS'b'
tRp2646
((I1
(L0L
tg21
I00
(lt(Nttba(lp2647
g17
(g25
(I0
tS'b'
tRp2648
(I1
(L0L
tg21
I00
(ltba(lp2649
g2646
atbsg111
S'i'
sbatba(lp2650
g2636
atbsg111
g2628
sbatba(lp2651
g2626
atbsg111
g2618
sbatba(lp2652
g2616
atbsg111
g2608
sbatba(lp2653
g17
(g18
(I0
tS'b'
tRp2654
((I1
(L1L
tg21
I00
(lp2655
g2608
at(Nttbatbsg111
S'Expr'
p2656
sbatba(lp2657
g2596
atbsg111
g2549
sbag1
(g10
g3
NtRp2658
(dp2659
g13
g1
(g14
g3
NtRp2660
((lp2661
g17
(g18
(I0
tS'b'
tRp2662
((I1
(L0L
tg21
I00
(lt(Nttba(lp2663
g17
(g25
(I0
tS'b'
tRp2664
(I1
(L0L
tg21
I00
(ltba(lp2665
g2662
atbsg111
S']'
sbatba(lp2666
g2545
atbsg111
g2537
sbatba(lp2667
g2535
atbsg111
g2527
sbatba(lp2668
g2525
atbsg111
g2515
sbag1
(g10
g3
NtRp2669
(dp2670
g13
g1
(g14
g3
NtRp2671
((lp2672
g17
(g18
(I0
tS'b'
tRp2673
((I1
(L0L
tg21
I00
(lt(Nttba(lp2674
g17
(g25
(I0
tS'b'
tRp2675
(I1
(L0L
tg21
I00
(ltba(lp2676
g2673
atbsg111
S'='
sbag1
(g10
g3
NtRp2677
(dp2678
g13
g1
(g14
g3
NtRp2679
((lp2680
g17
(g18
(I0
tS'b'
tRp2681
((I1
(L1L
tg21
I00
(lp2682
S'Expr'
p2683
at(Nttba(lp2684
g17
(g25
(I0
tS'b'
tRp2685
(I1
(L1L
tg21
I00
(lp2686
g1
(g10
g3
NtRp2687
(dp2688
g13
g1
(g14
g3
NtRp2689
((lp2690
g17
(g18
(I0
tS'b'
tRp2691
((I1
(L1L
tg21
I00
(lp2692
S'Funccall'
p2693
at(Nttba(lp2694
g17
(g25
(I0
tS'b'
tRp2695
(I1
(L1L
tg21
I00
(lp2696
g1
(g10
g3
NtRp2697
(dp2698
g13
g1
(g14
g3
NtRp2699
((lp2700
g17
(g18
(I0
tS'b'
tRp2701
((I1
(L4L
tg21
I00
(lp2702
S'Expr'
p2703
aS'_(_'
p2704
aS'Arglist'
p2705
aS'_)_'
p2706
at(Nttba(lp2707
g17
(g25
(I0
tS'b'
tRp2708
(I1
(L4L
tg21
I00
(lp2709
g1
(g10
g3
NtRp2710
(dp2711
g13
g1
(g14
g3
NtRp2712
((lp2713
g17
(g18
(I0
tS'b'
tRp2714
((I1
(L1L
tg21
I00
(lp2715
S'Val'
p2716
at(Nttba(lp2717
g17
(g25
(I0
tS'b'
tRp2718
(I1
(L1L
tg21
I00
(lp2719
g1
(g10
g3
NtRp2720
(dp2721
g13
g1
(g14
g3
NtRp2722
((lp2723
g17
(g18
(I0
tS'b'
tRp2724
((I1
(L1L
tg21
I00
(lp2725
S'Var'
p2726
at(Nttba(lp2727
g17
(g25
(I0
tS'b'
tRp2728
(I1
(L1L
tg21
I00
(lp2729
g1
(g10
g3
NtRp2730
(dp2731
g13
g1
(g14
g3
NtRp2732
((lp2733
g17
(g18
(I0
tS'b'
tRp2734
((I1
(L1L
tg21
I00
(lp2735
S'Id'
p2736
at(Nttba(lp2737
g17
(g25
(I0
tS'b'
tRp2738
(I1
(L1L
tg21
I00
(lp2739
g1
(g10
g3
NtRp2740
(dp2741
g13
g1
(g14
g3
NtRp2742
((lp2743
g17
(g18
(I0
tS'b'
tRp2744
((I1
(L1L
tg21
I00
(lp2745
S'_f_'
p2746
at(Nttba(lp2747
g17
(g25
(I0
tS'b'
tRp2748
(I1
(L1L
tg21
I00
(lp2749
g1
(g10
g3
NtRp2750
(dp2751
g13
g1
(g14
g3
NtRp2752
((lp2753
g17
(g18
(I0
tS'b'
tRp2754
((I1
(L0L
tg21
I00
(lt(Nttba(lp2755
g17
(g25
(I0
tS'b'
tRp2756
(I1
(L0L
tg21
I00
(ltba(lp2757
g2754
atbsg111
S'f'
sbatba(lp2758
g2744
atbsg111
g2736
sbatba(lp2759
g2734
atbsg111
g2726
sbatba(lp2760
g2724
atbsg111
g2716
sbatba(lp2761
g17
(g18
(I0
tS'b'
tRp2762
((I1
(L1L
tg21
I00
(lp2763
g2716
at(Nttbatbsg111
S'Expr'
p2764
sbag1
(g10
g3
NtRp2765
(dp2766
g13
g1
(g14
g3
NtRp2767
((lp2768
g17
(g18
(I0
tS'b'
tRp2769
((I1
(L0L
tg21
I00
(lt(Nttba(lp2770
g17
(g25
(I0
tS'b'
tRp2771
(I1
(L0L
tg21
I00
(ltba(lp2772
g2769
atbsg111
S'('
sbag1
(g10
g3
NtRp2773
(dp2774
g13
g1
(g14
g3
NtRp2775
((lp2776
g17
(g18
(I0
tS'b'
tRp2777
((I1
(L1L
tg21
I00
(lp2778
S'Pos_arglist'
p2779
at(Nttba(lp2780
g17
(g25
(I0
tS'b'
tRp2781
(I1
(L1L
tg21
I00
(lp2782
g1
(g10
g3
NtRp2783
(dp2784
g13
g1
(g14
g3
NtRp2785
((lp2786
g17
(g18
(I0
tS'b'
tRp2787
((I1
(L1L
tg21
I00
(lp2788
S'Pos_arg'
p2789
at(Nttba(lp2790
g17
(g25
(I0
tS'b'
tRp2791
(I1
(L1L
tg21
I00
(lp2792
g1
(g10
g3
NtRp2793
(dp2794
g13
g1
(g14
g3
NtRp2795
((lp2796
g17
(g18
(I0
tS'b'
tRp2797
((I1
(L1L
tg21
I00
(lp2798
S'Expr'
p2799
at(Nttba(lp2800
g17
(g25
(I0
tS'b'
tRp2801
(I1
(L1L
tg21
I00
(lp2802
g1
(g10
g3
NtRp2803
(dp2804
g13
g1
(g14
g3
NtRp2805
((lp2806
g17
(g18
(I0
tS'b'
tRp2807
((I1
(L1L
tg21
I00
(lp2808
S'Dash_calc'
p2809
at(Nttba(lp2810
g17
(g25
(I0
tS'b'
tRp2811
(I1
(L1L
tg21
I00
(lp2812
g1
(g10
g3
NtRp2813
(dp2814
g13
g1
(g14
g3
NtRp2815
((lp2816
g17
(g18
(I0
tS'b'
tRp2817
((I1
(L3L
tg21
I00
(lp2818
S'Expr1'
p2819
aS'_+_'
p2820
aS'Expr2'
p2821
at(Nttba(lp2822
g17
(g25
(I0
tS'b'
tRp2823
(I1
(L3L
tg21
I00
(lp2824
g1
(g10
g3
NtRp2825
(dp2826
g13
g1
(g14
g3
NtRp2827
((lp2828
g17
(g18
(I0
tS'b'
tRp2829
((I1
(L1L
tg21
I00
(lp2830
S'Val'
p2831
at(Nttba(lp2832
g17
(g25
(I0
tS'b'
tRp2833
(I1
(L1L
tg21
I00
(lp2834
g1
(g10
g3
NtRp2835
(dp2836
g13
g1
(g14
g3
NtRp2837
((lp2838
g17
(g18
(I0
tS'b'
tRp2839
((I1
(L1L
tg21
I00
(lp2840
S'Var'
p2841
at(Nttba(lp2842
g17
(g25
(I0
tS'b'
tRp2843
(I1
(L1L
tg21
I00
(lp2844
g1
(g10
g3
NtRp2845
(dp2846
g13
g1
(g14
g3
NtRp2847
((lp2848
g17
(g18
(I0
tS'b'
tRp2849
((I1
(L1L
tg21
I00
(lp2850
S'Id'
p2851
at(Nttba(lp2852
g17
(g25
(I0
tS'b'
tRp2853
(I1
(L1L
tg21
I00
(lp2854
g1
(g10
g3
NtRp2855
(dp2856
g13
g1
(g14
g3
NtRp2857
((lp2858
g17
(g18
(I0
tS'b'
tRp2859
((I1
(L1L
tg21
I00
(lp2860
S'_i_'
p2861
at(Nttba(lp2862
g17
(g25
(I0
tS'b'
tRp2863
(I1
(L1L
tg21
I00
(lp2864
g1
(g10
g3
NtRp2865
(dp2866
g13
g1
(g14
g3
NtRp2867
((lp2868
g17
(g18
(I0
tS'b'
tRp2869
((I1
(L0L
tg21
I00
(lt(Nttba(lp2870
g17
(g25
(I0
tS'b'
tRp2871
(I1
(L0L
tg21
I00
(ltba(lp2872
g2869
atbsg111
S'i'
sbatba(lp2873
g2859
atbsg111
g2851
sbatba(lp2874
g2849
atbsg111
g2841
sbatba(lp2875
g2839
atbsg111
g2831
sbatba(lp2876
g17
(g18
(I0
tS'b'
tRp2877
((I1
(L1L
tg21
I00
(lp2878
g2831
at(Nttbatbsg111
S'Expr'
p2879
sbag1
(g10
g3
NtRp2880
(dp2881
g13
g1
(g14
g3
NtRp2882
((lp2883
g17
(g18
(I0
tS'b'
tRp2884
((I1
(L0L
tg21
I00
(lt(Nttba(lp2885
g17
(g25
(I0
tS'b'
tRp2886
(I1
(L0L
tg21
I00
(ltba(lp2887
g2884
atbsg111
S'+'
sbag1
(g10
g3
NtRp2888
(dp2889
g13
g1
(g14
g3
NtRp2890
((lp2891
g17
(g18
(I0
tS'b'
tRp2892
((I1
(L1L
tg21
I00
(lp2893
S'Val'
p2894
at(Nttba(lp2895
g17
(g25
(I0
tS'b'
tRp2896
(I1
(L1L
tg21
I00
(lp2897
g1
(g10
g3
NtRp2898
(dp2899
g13
g1
(g14
g3
NtRp2900
((lp2901
g17
(g18
(I0
tS'b'
tRp2902
((I1
(L1L
tg21
I00
(lp2903
S'Number'
p2904
at(Nttba(lp2905
g17
(g25
(I0
tS'b'
tRp2906
(I1
(L1L
tg21
I00
(lp2907
g1
(g10
g3
NtRp2908
(dp2909
g13
g1
(g14
g3
NtRp2910
((lp2911
g17
(g18
(I0
tS'b'
tRp2912
((I1
(L1L
tg21
I00
(lp2913
S'Int'
p2914
at(Nttba(lp2915
g17
(g25
(I0
tS'b'
tRp2916
(I1
(L1L
tg21
I00
(lp2917
g1
(g10
g3
NtRp2918
(dp2919
g13
g1
(g14
g3
NtRp2920
((lp2921
g17
(g18
(I0
tS'b'
tRp2922
((I1
(L1L
tg21
I00
(lp2923
S'_1_'
p2924
at(Nttba(lp2925
g17
(g25
(I0
tS'b'
tRp2926
(I1
(L1L
tg21
I00
(lp2927
g1
(g10
g3
NtRp2928
(dp2929
g13
g1
(g14
g3
NtRp2930
((lp2931
g17
(g18
(I0
tS'b'
tRp2932
((I1
(L0L
tg21
I00
(lt(Nttba(lp2933
g17
(g25
(I0
tS'b'
tRp2934
(I1
(L0L
tg21
I00
(ltba(lp2935
g2932
atbsg111
S'1'
sbatba(lp2936
g2922
atbsg111
g2914
sbatba(lp2937
g2912
atbsg111
g2904
sbatba(lp2938
g2902
atbsg111
g2894
sbatba(lp2939
g17
(g18
(I0
tS'b'
tRp2940
((I1
(L1L
tg21
I00
(lp2941
g2894
at(Nttbatbsg111
S'Expr'
p2942
sbatba(lp2943
g2817
atbsg111
g2809
sbatba(lp2944
g2807
atbsg111
S'Expr'
p2945
sbatba(lp2946
g2797
atbsg111
g2789
sbatba(lp2947
g2787
atbsg111
g2779
sbatba(lp2948
g2777
atbsg111
g2705
sbag1
(g10
g3
NtRp2949
(dp2950
g13
g1
(g14
g3
NtRp2951
((lp2952
g17
(g18
(I0
tS'b'
tRp2953
((I1
(L0L
tg21
I00
(lt(Nttba(lp2954
g17
(g25
(I0
tS'b'
tRp2955
(I1
(L0L
tg21
I00
(ltba(lp2956
g2953
atbsg111
S')'
sbatba(lp2957
g2701
atbsg111
g2693
sbatba(lp2958
g2691
atbsg111
S'Expr'
p2959
sbatba(lp2960
g2681
atbsg111
g2517
sbatba(lp2961
g2513
atbsg111
g2505
sbatba(lp2962
g2503
atbsg111
g2494
sbag1
(g10
g3
NtRp2963
(dp2964
g13
g1
(g14
g3
NtRp2965
((lp2966
g17
(g18
(I0
tS'b'
tRp2967
((I1
(L0L
tg21
I00
(lt(Nttba(lp2968
g17
(g25
(I0
tS'b'
tRp2969
(I1
(L0L
tg21
I00
(ltba(lp2970
g2967
atbsg111
S';'
sbatba(lp2971
g2492
atbsg111
g2484
sbatba(lp2972
g2482
atbsg111
g2474
sbatba(lp2973
g2472
atbsg111
g2443
sbag1
(g10
g3
NtRp2974
(dp2975
g13
g1
(g14
g3
NtRp2976
((lp2977
g17
(g18
(I0
tS'b'
tRp2978
((I1
(L1L
tg21
I00
(lp2979
S'_$blockend_'
p2980
at(Nttba(lp2981
g17
(g25
(I0
tS'b'
tRp2982
(I1
(L1L
tg21
I00
(lp2983
g1
(g10
g3
NtRp2984
(dp2985
g13
g1
(g14
g3
NtRp2986
((lp2987
g17
(g18
(I0
tS'b'
tRp2988
((I1
(L0L
tg21
I00
(lt(Nttba(lp2989
g17
(g25
(I0
tS'b'
tRp2990
(I1
(L0L
tg21
I00
(ltba(lp2991
g2988
atbsg111
S'$blockend'
p2992
sbatba(lp2993
g2978
atbsg111
g2444
sbatba(lp2994
g2440
atbsg111
S'Block'
p2995
sbag1
(g10
g3
NtRp2996
(dp2997
g13
g1
(g14
g3
NtRp2998
((lp2999
g17
(g18
(I0
tS'b'
tRp3000
((I1
(L1L
tg21
I00
(lp3001
S'_else_'
p3002
at(Nttba(lp3003
g17
(g25
(I0
tS'b'
tRp3004
(I1
(L1L
tg21
I00
(lp3005
g1
(g10
g3
NtRp3006
(dp3007
g13
g1
(g14
g3
NtRp3008
((lp3009
g17
(g18
(I0
tS'b'
tRp3010
((I1
(L0L
tg21
I00
(lt(Nttba(lp3011
g17
(g25
(I0
tS'b'
tRp3012
(I1
(L0L
tg21
I00
(ltba(lp3013
g3010
atbsg111
S'else'
p3014
sbatba(lp3015
g3000
atbsg111
g2256
sbag1
(g10
g3
NtRp3016
(dp3017
g13
g1
(g14
g3
NtRp3018
((lp3019
g17
(g18
(I0
tS'b'
tRp3020
((I1
(L3L
tg21
I00
(lp3021
S'Blockbegin'
p3022
aS'Prog'
p3023
aS'Blockend'
p3024
at(Nttba(lp3025
g17
(g25
(I0
tS'b'
tRp3026
(I1
(L3L
tg21
I00
(lp3027
g1
(g10
g3
NtRp3028
(dp3029
g13
g1
(g14
g3
NtRp3030
((lp3031
g17
(g18
(I0
tS'b'
tRp3032
((I1
(L1L
tg21
I00
(lp3033
S'_:$blockbegin_'
p3034
at(Nttba(lp3035
g17
(g25
(I0
tS'b'
tRp3036
(I1
(L1L
tg21
I00
(lp3037
g1
(g10
g3
NtRp3038
(dp3039
g13
g1
(g14
g3
NtRp3040
((lp3041
g17
(g18
(I0
tS'b'
tRp3042
((I1
(L0L
tg21
I00
(lt(Nttba(lp3043
g17
(g25
(I0
tS'b'
tRp3044
(I1
(L0L
tg21
I00
(ltba(lp3045
g3042
atbsg111
S':$blockbegin'
p3046
sbatba(lp3047
g3032
atbsg111
g3022
sbag1
(g10
g3
NtRp3048
(dp3049
g13
g1
(g14
g3
NtRp3050
((lp3051
g17
(g18
(I0
tS'b'
tRp3052
((I1
(L1L
tg21
I00
(lp3053
S'Stmt'
p3054
at(Nttba(lp3055
g17
(g25
(I0
tS'b'
tRp3056
(I1
(L1L
tg21
I00
(lp3057
g1
(g10
g3
NtRp3058
(dp3059
g13
g1
(g14
g3
NtRp3060
((lp3061
g17
(g18
(I0
tS'b'
tRp3062
((I1
(L1L
tg21
I00
(lp3063
S'Single_stmt'
p3064
at(Nttba(lp3065
g17
(g25
(I0
tS'b'
tRp3066
(I1
(L1L
tg21
I00
(lp3067
g1
(g10
g3
NtRp3068
(dp3069
g13
g1
(g14
g3
NtRp3070
((lp3071
g17
(g18
(I0
tS'b'
tRp3072
((I1
(L2L
tg21
I00
(lp3073
S'Assign_stmt'
p3074
aS'_;_'
p3075
at(Nttba(lp3076
g17
(g25
(I0
tS'b'
tRp3077
(I1
(L2L
tg21
I00
(lp3078
g1
(g10
g3
NtRp3079
(dp3080
g13
g1
(g14
g3
NtRp3081
((lp3082
g17
(g18
(I0
tS'b'
tRp3083
((I1
(L1L
tg21
I00
(lp3084
S'Aug_assign'
p3085
at(Nttba(lp3086
g17
(g25
(I0
tS'b'
tRp3087
(I1
(L1L
tg21
I00
(lp3088
g1
(g10
g3
NtRp3089
(dp3090
g13
g1
(g14
g3
NtRp3091
((lp3092
g17
(g18
(I0
tS'b'
tRp3093
((I1
(L3L
tg21
I00
(lp3094
S'Var'
p3095
aS'Aug_op'
p3096
aS'Exprlist'
p3097
at(Nttba(lp3098
g17
(g25
(I0
tS'b'
tRp3099
(I1
(L3L
tg21
I00
(lp3100
g1
(g10
g3
NtRp3101
(dp3102
g13
g1
(g14
g3
NtRp3103
((lp3104
g17
(g18
(I0
tS'b'
tRp3105
((I1
(L4L
tg21
I00
(lp3106
S'Var'
p3107
aS'_[_'
p3108
aS'Slice'
p3109
aS'_]_'
p3110
at(Nttba(lp3111
g17
(g25
(I0
tS'b'
tRp3112
(I1
(L4L
tg21
I00
(lp3113
g1
(g10
g3
NtRp3114
(dp3115
g13
g1
(g14
g3
NtRp3116
((lp3117
g17
(g18
(I0
tS'b'
tRp3118
((I1
(L1L
tg21
I00
(lp3119
S'Id'
p3120
at(Nttba(lp3121
g17
(g25
(I0
tS'b'
tRp3122
(I1
(L1L
tg21
I00
(lp3123
g1
(g10
g3
NtRp3124
(dp3125
g13
g1
(g14
g3
NtRp3126
((lp3127
g17
(g18
(I0
tS'b'
tRp3128
((I1
(L1L
tg21
I00
(lp3129
S'_L_'
p3130
at(Nttba(lp3131
g17
(g25
(I0
tS'b'
tRp3132
(I1
(L1L
tg21
I00
(lp3133
g1
(g10
g3
NtRp3134
(dp3135
g13
g1
(g14
g3
NtRp3136
((lp3137
g17
(g18
(I0
tS'b'
tRp3138
((I1
(L0L
tg21
I00
(lt(Nttba(lp3139
g17
(g25
(I0
tS'b'
tRp3140
(I1
(L0L
tg21
I00
(ltba(lp3141
g3138
atbsg111
S'L'
sbatba(lp3142
g3128
atbsg111
g3120
sbatba(lp3143
g3118
atbsg111
g3107
sbag1
(g10
g3
NtRp3144
(dp3145
g13
g1
(g14
g3
NtRp3146
((lp3147
g17
(g18
(I0
tS'b'
tRp3148
((I1
(L0L
tg21
I00
(lt(Nttba(lp3149
g17
(g25
(I0
tS'b'
tRp3150
(I1
(L0L
tg21
I00
(ltba(lp3151
g3148
atbsg111
S'['
sbag1
(g10
g3
NtRp3152
(dp3153
g13
g1
(g14
g3
NtRp3154
((lp3155
g17
(g18
(I0
tS'b'
tRp3156
((I1
(L1L
tg21
I00
(lp3157
S'Expr'
p3158
at(Nttba(lp3159
g17
(g25
(I0
tS'b'
tRp3160
(I1
(L1L
tg21
I00
(lp3161
g1
(g10
g3
NtRp3162
(dp3163
g13
g1
(g14
g3
NtRp3164
((lp3165
g17
(g18
(I0
tS'b'
tRp3166
((I1
(L1L
tg21
I00
(lp3167
S'Val'
p3168
at(Nttba(lp3169
g17
(g25
(I0
tS'b'
tRp3170
(I1
(L1L
tg21
I00
(lp3171
g1
(g10
g3
NtRp3172
(dp3173
g13
g1
(g14
g3
NtRp3174
((lp3175
g17
(g18
(I0
tS'b'
tRp3176
((I1
(L1L
tg21
I00
(lp3177
S'Var'
p3178
at(Nttba(lp3179
g17
(g25
(I0
tS'b'
tRp3180
(I1
(L1L
tg21
I00
(lp3181
g1
(g10
g3
NtRp3182
(dp3183
g13
g1
(g14
g3
NtRp3184
((lp3185
g17
(g18
(I0
tS'b'
tRp3186
((I1
(L1L
tg21
I00
(lp3187
S'Id'
p3188
at(Nttba(lp3189
g17
(g25
(I0
tS'b'
tRp3190
(I1
(L1L
tg21
I00
(lp3191
g1
(g10
g3
NtRp3192
(dp3193
g13
g1
(g14
g3
NtRp3194
((lp3195
g17
(g18
(I0
tS'b'
tRp3196
((I1
(L1L
tg21
I00
(lp3197
S'_i_'
p3198
at(Nttba(lp3199
g17
(g25
(I0
tS'b'
tRp3200
(I1
(L1L
tg21
I00
(lp3201
g1
(g10
g3
NtRp3202
(dp3203
g13
g1
(g14
g3
NtRp3204
((lp3205
g17
(g18
(I0
tS'b'
tRp3206
((I1
(L0L
tg21
I00
(lt(Nttba(lp3207
g17
(g25
(I0
tS'b'
tRp3208
(I1
(L0L
tg21
I00
(ltba(lp3209
g3206
atbsg111
S'i'
sbatba(lp3210
g3196
atbsg111
g3188
sbatba(lp3211
g3186
atbsg111
g3178
sbatba(lp3212
g3176
atbsg111
g3168
sbatba(lp3213
g17
(g18
(I0
tS'b'
tRp3214
((I1
(L1L
tg21
I00
(lp3215
g3168
at(Nttbatbsg111
S'Expr'
p3216
sbatba(lp3217
g3156
atbsg111
g3109
sbag1
(g10
g3
NtRp3218
(dp3219
g13
g1
(g14
g3
NtRp3220
((lp3221
g17
(g18
(I0
tS'b'
tRp3222
((I1
(L0L
tg21
I00
(lt(Nttba(lp3223
g17
(g25
(I0
tS'b'
tRp3224
(I1
(L0L
tg21
I00
(ltba(lp3225
g3222
atbsg111
S']'
sbatba(lp3226
g3105
atbsg111
g3095
sbag1
(g10
g3
NtRp3227
(dp3228
g13
g1
(g14
g3
NtRp3229
((lp3230
g17
(g18
(I0
tS'b'
tRp3231
((I1
(L1L
tg21
I00
(lp3232
S'_+=_'
p3233
at(Nttba(lp3234
g17
(g25
(I0
tS'b'
tRp3235
(I1
(L1L
tg21
I00
(lp3236
g1
(g10
g3
NtRp3237
(dp3238
g13
g1
(g14
g3
NtRp3239
((lp3240
g17
(g18
(I0
tS'b'
tRp3241
((I1
(L0L
tg21
I00
(lt(Nttba(lp3242
g17
(g25
(I0
tS'b'
tRp3243
(I1
(L0L
tg21
I00
(ltba(lp3244
g3241
atbsg111
S'+='
p3245
sbatba(lp3246
g3231
atbsg111
g3096
sbag1
(g10
g3
NtRp3247
(dp3248
g13
g1
(g14
g3
NtRp3249
((lp3250
g17
(g18
(I0
tS'b'
tRp3251
((I1
(L1L
tg21
I00
(lp3252
S'Expr'
p3253
at(Nttba(lp3254
g17
(g25
(I0
tS'b'
tRp3255
(I1
(L1L
tg21
I00
(lp3256
g1
(g10
g3
NtRp3257
(dp3258
g13
g1
(g14
g3
NtRp3259
((lp3260
g17
(g18
(I0
tS'b'
tRp3261
((I1
(L1L
tg21
I00
(lp3262
S'Val'
p3263
at(Nttba(lp3264
g17
(g25
(I0
tS'b'
tRp3265
(I1
(L1L
tg21
I00
(lp3266
g1
(g10
g3
NtRp3267
(dp3268
g13
g1
(g14
g3
NtRp3269
((lp3270
g17
(g18
(I0
tS'b'
tRp3271
((I1
(L1L
tg21
I00
(lp3272
S'Number'
p3273
at(Nttba(lp3274
g17
(g25
(I0
tS'b'
tRp3275
(I1
(L1L
tg21
I00
(lp3276
g1
(g10
g3
NtRp3277
(dp3278
g13
g1
(g14
g3
NtRp3279
((lp3280
g17
(g18
(I0
tS'b'
tRp3281
((I1
(L1L
tg21
I00
(lp3282
S'Int'
p3283
at(Nttba(lp3284
g17
(g25
(I0
tS'b'
tRp3285
(I1
(L1L
tg21
I00
(lp3286
g1
(g10
g3
NtRp3287
(dp3288
g13
g1
(g14
g3
NtRp3289
((lp3290
g17
(g18
(I0
tS'b'
tRp3291
((I1
(L1L
tg21
I00
(lp3292
S'_1_'
p3293
at(Nttba(lp3294
g17
(g25
(I0
tS'b'
tRp3295
(I1
(L1L
tg21
I00
(lp3296
g1
(g10
g3
NtRp3297
(dp3298
g13
g1
(g14
g3
NtRp3299
((lp3300
g17
(g18
(I0
tS'b'
tRp3301
((I1
(L0L
tg21
I00
(lt(Nttba(lp3302
g17
(g25
(I0
tS'b'
tRp3303
(I1
(L0L
tg21
I00
(ltba(lp3304
g3301
atbsg111
S'1'
sbatba(lp3305
g3291
atbsg111
g3283
sbatba(lp3306
g3281
atbsg111
g3273
sbatba(lp3307
g3271
atbsg111
g3263
sbatba(lp3308
g17
(g18
(I0
tS'b'
tRp3309
((I1
(L1L
tg21
I00
(lp3310
g3263
at(Nttbatbsg111
S'Expr'
p3311
sbatba(lp3312
g3251
atbsg111
g3097
sbatba(lp3313
g3093
atbsg111
g3085
sbatba(lp3314
g3083
atbsg111
g3074
sbag1
(g10
g3
NtRp3315
(dp3316
g13
g1
(g14
g3
NtRp3317
((lp3318
g17
(g18
(I0
tS'b'
tRp3319
((I1
(L0L
tg21
I00
(lt(Nttba(lp3320
g17
(g25
(I0
tS'b'
tRp3321
(I1
(L0L
tg21
I00
(ltba(lp3322
g3319
atbsg111
S';'
sbatba(lp3323
g3072
atbsg111
g3064
sbatba(lp3324
g3062
atbsg111
g3054
sbatba(lp3325
g3052
atbsg111
g3023
sbag1
(g10
g3
NtRp3326
(dp3327
g13
g1
(g14
g3
NtRp3328
((lp3329
g17
(g18
(I0
tS'b'
tRp3330
((I1
(L1L
tg21
I00
(lp3331
S'_$blockend_'
p3332
at(Nttba(lp3333
g17
(g25
(I0
tS'b'
tRp3334
(I1
(L1L
tg21
I00
(lp3335
g1
(g10
g3
NtRp3336
(dp3337
g13
g1
(g14
g3
NtRp3338
((lp3339
g17
(g18
(I0
tS'b'
tRp3340
((I1
(L0L
tg21
I00
(lt(Nttba(lp3341
g17
(g25
(I0
tS'b'
tRp3342
(I1
(L0L
tg21
I00
(ltba(lp3343
g3340
atbsg111
S'$blockend'
p3344
sbatba(lp3345
g3330
atbsg111
g3024
sbatba(lp3346
g3020
atbsg111
S'Block'
p3347
sbatba(lp3348
g2252
atbsg111
g2244
sbatba(lp3349
g2242
atbsg111
g2234
sbatba(lp3350
g2232
atbsg111
g2224
sbatba(lp3351
g2222
atbsg111
g2193
sbag1
(g10
g3
NtRp3352
(dp3353
g13
g1
(g14
g3
NtRp3354
((lp3355
g17
(g18
(I0
tS'b'
tRp3356
((I1
(L1L
tg21
I00
(lp3357
S'_$blockend_'
p3358
at(Nttba(lp3359
g17
(g25
(I0
tS'b'
tRp3360
(I1
(L1L
tg21
I00
(lp3361
g1
(g10
g3
NtRp3362
(dp3363
g13
g1
(g14
g3
NtRp3364
((lp3365
g17
(g18
(I0
tS'b'
tRp3366
((I1
(L0L
tg21
I00
(lt(Nttba(lp3367
g17
(g25
(I0
tS'b'
tRp3368
(I1
(L0L
tg21
I00
(ltba(lp3369
g3366
atbsg111
S'$blockend'
p3370
sbatba(lp3371
g3356
atbsg111
g2194
sbatba(lp3372
g2190
atbsg111
g1748
sbatba(lp3373
g1745
atbsg111
g1737
sbatba(lp3374
g1735
atbsg111
S'Stmt'
p3375
sbag1
(g10
g3
NtRp3376
(dp3377
g13
g1
(g14
g3
NtRp3378
((lp3379
g17
(g18
(I0
tS'b'
tRp3380
((I1
(L1L
tg21
I00
(lp3381
S'Block_stmt'
p3382
at(Nttba(lp3383
g17
(g25
(I0
tS'b'
tRp3384
(I1
(L1L
tg21
I00
(lp3385
g1
(g10
g3
NtRp3386
(dp3387
g13
g1
(g14
g3
NtRp3388
((lp3389
g17
(g18
(I0
tS'b'
tRp3390
((I1
(L2L
tg21
I00
(lp3391
S'Block_head'
p3392
aS'Block'
p3393
at(Nttba(lp3394
g17
(g25
(I0
tS'b'
tRp3395
(I1
(L2L
tg21
I00
(lp3396
g1
(g10
g3
NtRp3397
(dp3398
g13
g1
(g14
g3
NtRp3399
((lp3400
g17
(g18
(I0
tS'b'
tRp3401
((I1
(L1L
tg21
I00
(lp3402
S'Loop'
p3403
at(Nttba(lp3404
g17
(g25
(I0
tS'b'
tRp3405
(I1
(L1L
tg21
I00
(lp3406
g1
(g10
g3
NtRp3407
(dp3408
g13
g1
(g14
g3
NtRp3409
((lp3410
g17
(g18
(I0
tS'b'
tRp3411
((I1
(L1L
tg21
I00
(lp3412
S'For'
p3413
at(Nttba(lp3414
g17
(g25
(I0
tS'b'
tRp3415
(I1
(L1L
tg21
I00
(lp3416
g1
(g10
g3
NtRp3417
(dp3418
g13
g1
(g14
g3
NtRp3419
((lp3420
g17
(g18
(I0
tS'b'
tRp3421
((I1
(L4L
tg21
I00
(lp3422
S'_for_'
p3423
aS'Varlist'
p3424
aS'_in_'
p3425
aS'Exprlist'
p3426
at(Nttba(lp3427
g17
(g25
(I0
tS'b'
tRp3428
(I1
(L4L
tg21
I00
(lp3429
g1
(g10
g3
NtRp3430
(dp3431
g13
g1
(g14
g3
NtRp3432
((lp3433
g17
(g18
(I0
tS'b'
tRp3434
((I1
(L0L
tg21
I00
(lt(Nttba(lp3435
g17
(g25
(I0
tS'b'
tRp3436
(I1
(L0L
tg21
I00
(ltba(lp3437
g3434
atbsg111
S'for'
p3438
sbag1
(g10
g3
NtRp3439
(dp3440
g13
g1
(g14
g3
NtRp3441
((lp3442
g17
(g18
(I0
tS'b'
tRp3443
((I1
(L1L
tg21
I00
(lp3444
S'Vartuple'
p3445
at(Nttba(lp3446
g17
(g25
(I0
tS'b'
tRp3447
(I1
(L1L
tg21
I00
(lp3448
g1
(g10
g3
NtRp3449
(dp3450
g13
g1
(g14
g3
NtRp3451
((lp3452
g17
(g18
(I0
tS'b'
tRp3453
((I1
(L1L
tg21
I00
(lp3454
S'Var'
p3455
at(Nttba(lp3456
g17
(g25
(I0
tS'b'
tRp3457
(I1
(L1L
tg21
I00
(lp3458
g1
(g10
g3
NtRp3459
(dp3460
g13
g1
(g14
g3
NtRp3461
((lp3462
g17
(g18
(I0
tS'b'
tRp3463
((I1
(L1L
tg21
I00
(lp3464
S'Id'
p3465
at(Nttba(lp3466
g17
(g25
(I0
tS'b'
tRp3467
(I1
(L1L
tg21
I00
(lp3468
g1
(g10
g3
NtRp3469
(dp3470
g13
g1
(g14
g3
NtRp3471
((lp3472
g17
(g18
(I0
tS'b'
tRp3473
((I1
(L1L
tg21
I00
(lp3474
S'_x_'
p3475
at(Nttba(lp3476
g17
(g25
(I0
tS'b'
tRp3477
(I1
(L1L
tg21
I00
(lp3478
g1
(g10
g3
NtRp3479
(dp3480
g13
g1
(g14
g3
NtRp3481
((lp3482
g17
(g18
(I0
tS'b'
tRp3483
((I1
(L0L
tg21
I00
(lt(Nttba(lp3484
g17
(g25
(I0
tS'b'
tRp3485
(I1
(L0L
tg21
I00
(ltba(lp3486
g3483
atbsg111
S'x'
sbatba(lp3487
g3473
atbsg111
g3465
sbatba(lp3488
g3463
atbsg111
g3455
sbatba(lp3489
g3453
atbsg111
g3445
sbatba(lp3490
g3443
atbsg111
g3424
sbag1
(g10
g3
NtRp3491
(dp3492
g13
g1
(g14
g3
NtRp3493
((lp3494
g17
(g18
(I0
tS'b'
tRp3495
((I1
(L0L
tg21
I00
(lt(Nttba(lp3496
g17
(g25
(I0
tS'b'
tRp3497
(I1
(L0L
tg21
I00
(ltba(lp3498
g3495
atbsg111
S'in'
p3499
sbag1
(g10
g3
NtRp3500
(dp3501
g13
g1
(g14
g3
NtRp3502
((lp3503
g17
(g18
(I0
tS'b'
tRp3504
((I1
(L1L
tg21
I00
(lp3505
S'Expr'
p3506
at(Nttba(lp3507
g17
(g25
(I0
tS'b'
tRp3508
(I1
(L1L
tg21
I00
(lp3509
g1
(g10
g3
NtRp3510
(dp3511
g13
g1
(g14
g3
NtRp3512
((lp3513
g17
(g18
(I0
tS'b'
tRp3514
((I1
(L1L
tg21
I00
(lp3515
S'Val'
p3516
at(Nttba(lp3517
g17
(g25
(I0
tS'b'
tRp3518
(I1
(L1L
tg21
I00
(lp3519
g1
(g10
g3
NtRp3520
(dp3521
g13
g1
(g14
g3
NtRp3522
((lp3523
g17
(g18
(I0
tS'b'
tRp3524
((I1
(L1L
tg21
I00
(lp3525
S'Var'
p3526
at(Nttba(lp3527
g17
(g25
(I0
tS'b'
tRp3528
(I1
(L1L
tg21
I00
(lp3529
g1
(g10
g3
NtRp3530
(dp3531
g13
g1
(g14
g3
NtRp3532
((lp3533
g17
(g18
(I0
tS'b'
tRp3534
((I1
(L1L
tg21
I00
(lp3535
S'Id'
p3536
at(Nttba(lp3537
g17
(g25
(I0
tS'b'
tRp3538
(I1
(L1L
tg21
I00
(lp3539
g1
(g10
g3
NtRp3540
(dp3541
g13
g1
(g14
g3
NtRp3542
((lp3543
g17
(g18
(I0
tS'b'
tRp3544
((I1
(L1L
tg21
I00
(lp3545
S'_L_'
p3546
at(Nttba(lp3547
g17
(g25
(I0
tS'b'
tRp3548
(I1
(L1L
tg21
I00
(lp3549
g1
(g10
g3
NtRp3550
(dp3551
g13
g1
(g14
g3
NtRp3552
((lp3553
g17
(g18
(I0
tS'b'
tRp3554
((I1
(L0L
tg21
I00
(lt(Nttba(lp3555
g17
(g25
(I0
tS'b'
tRp3556
(I1
(L0L
tg21
I00
(ltba(lp3557
g3554
atbsg111
S'L'
sbatba(lp3558
g3544
atbsg111
g3536
sbatba(lp3559
g3534
atbsg111
g3526
sbatba(lp3560
g3524
atbsg111
g3516
sbatba(lp3561
g17
(g18
(I0
tS'b'
tRp3562
((I1
(L1L
tg21
I00
(lp3563
g3516
at(Nttbatbsg111
S'Expr'
p3564
sbatba(lp3565
g3504
atbsg111
g3426
sbatba(lp3566
g3421
atbsg111
g3413
sbatba(lp3567
g3411
atbsg111
g3403
sbatba(lp3568
g3401
atbsg111
g3392
sbag1
(g10
g3
NtRp3569
(dp3570
g13
g1
(g14
g3
NtRp3571
((lp3572
g17
(g18
(I0
tS'b'
tRp3573
((I1
(L3L
tg21
I00
(lp3574
S'Blockbegin'
p3575
aS'Prog'
p3576
aS'Blockend'
p3577
at(Nttba(lp3578
g17
(g25
(I0
tS'b'
tRp3579
(I1
(L3L
tg21
I00
(lp3580
g1
(g10
g3
NtRp3581
(dp3582
g13
g1
(g14
g3
NtRp3583
((lp3584
g17
(g18
(I0
tS'b'
tRp3585
((I1
(L1L
tg21
I00
(lp3586
S'_:$blockbegin_'
p3587
at(Nttba(lp3588
g17
(g25
(I0
tS'b'
tRp3589
(I1
(L1L
tg21
I00
(lp3590
g1
(g10
g3
NtRp3591
(dp3592
g13
g1
(g14
g3
NtRp3593
((lp3594
g17
(g18
(I0
tS'b'
tRp3595
((I1
(L0L
tg21
I00
(lt(Nttba(lp3596
g17
(g25
(I0
tS'b'
tRp3597
(I1
(L0L
tg21
I00
(ltba(lp3598
g3595
atbsg111
S':$blockbegin'
p3599
sbatba(lp3600
g3585
atbsg111
g3575
sbag1
(g10
g3
NtRp3601
(dp3602
g13
g1
(g14
g3
NtRp3603
((lp3604
g17
(g18
(I0
tS'b'
tRp3605
((I1
(L1L
tg21
I00
(lp3606
S'Stmt'
p3607
at(Nttba(lp3608
g17
(g25
(I0
tS'b'
tRp3609
(I1
(L1L
tg21
I00
(lp3610
g1
(g10
g3
NtRp3611
(dp3612
g13
g1
(g14
g3
NtRp3613
((lp3614
g17
(g18
(I0
tS'b'
tRp3615
((I1
(L1L
tg21
I00
(lp3616
S'Single_stmt'
p3617
at(Nttba(lp3618
g17
(g25
(I0
tS'b'
tRp3619
(I1
(L1L
tg21
I00
(lp3620
g1
(g10
g3
NtRp3621
(dp3622
g13
g1
(g14
g3
NtRp3623
((lp3624
g17
(g18
(I0
tS'b'
tRp3625
((I1
(L2L
tg21
I00
(lp3626
S'Print_stmt'
p3627
aS'_;_'
p3628
at(Nttba(lp3629
g17
(g25
(I0
tS'b'
tRp3630
(I1
(L2L
tg21
I00
(lp3631
g1
(g10
g3
NtRp3632
(dp3633
g13
g1
(g14
g3
NtRp3634
((lp3635
g17
(g18
(I0
tS'b'
tRp3636
((I1
(L2L
tg21
I00
(lp3637
S'_print_'
p3638
aS'Exprlist'
p3639
at(Nttba(lp3640
g17
(g25
(I0
tS'b'
tRp3641
(I1
(L2L
tg21
I00
(lp3642
g1
(g10
g3
NtRp3643
(dp3644
g13
g1
(g14
g3
NtRp3645
((lp3646
g17
(g18
(I0
tS'b'
tRp3647
((I1
(L0L
tg21
I00
(lt(Nttba(lp3648
g17
(g25
(I0
tS'b'
tRp3649
(I1
(L0L
tg21
I00
(ltba(lp3650
g3647
atbsg111
S'print'
p3651
sbag1
(g10
g3
NtRp3652
(dp3653
g13
g1
(g14
g3
NtRp3654
((lp3655
g17
(g18
(I0
tS'b'
tRp3656
((I1
(L1L
tg21
I00
(lp3657
S'Expr'
p3658
at(Nttba(lp3659
g17
(g25
(I0
tS'b'
tRp3660
(I1
(L1L
tg21
I00
(lp3661
g1
(g10
g3
NtRp3662
(dp3663
g13
g1
(g14
g3
NtRp3664
((lp3665
g17
(g18
(I0
tS'b'
tRp3666
((I1
(L1L
tg21
I00
(lp3667
S'Val'
p3668
at(Nttba(lp3669
g17
(g25
(I0
tS'b'
tRp3670
(I1
(L1L
tg21
I00
(lp3671
g1
(g10
g3
NtRp3672
(dp3673
g13
g1
(g14
g3
NtRp3674
((lp3675
g17
(g18
(I0
tS'b'
tRp3676
((I1
(L1L
tg21
I00
(lp3677
S'Var'
p3678
at(Nttba(lp3679
g17
(g25
(I0
tS'b'
tRp3680
(I1
(L1L
tg21
I00
(lp3681
g1
(g10
g3
NtRp3682
(dp3683
g13
g1
(g14
g3
NtRp3684
((lp3685
g17
(g18
(I0
tS'b'
tRp3686
((I1
(L1L
tg21
I00
(lp3687
S'Id'
p3688
at(Nttba(lp3689
g17
(g25
(I0
tS'b'
tRp3690
(I1
(L1L
tg21
I00
(lp3691
g1
(g10
g3
NtRp3692
(dp3693
g13
g1
(g14
g3
NtRp3694
((lp3695
g17
(g18
(I0
tS'b'
tRp3696
((I1
(L1L
tg21
I00
(lp3697
S'_x_'
p3698
at(Nttba(lp3699
g17
(g25
(I0
tS'b'
tRp3700
(I1
(L1L
tg21
I00
(lp3701
g1
(g10
g3
NtRp3702
(dp3703
g13
g1
(g14
g3
NtRp3704
((lp3705
g17
(g18
(I0
tS'b'
tRp3706
((I1
(L0L
tg21
I00
(lt(Nttba(lp3707
g17
(g25
(I0
tS'b'
tRp3708
(I1
(L0L
tg21
I00
(ltba(lp3709
g3706
atbsg111
S'x'
sbatba(lp3710
g3696
atbsg111
g3688
sbatba(lp3711
g3686
atbsg111
g3678
sbatba(lp3712
g3676
atbsg111
g3668
sbatba(lp3713
g17
(g18
(I0
tS'b'
tRp3714
((I1
(L1L
tg21
I00
(lp3715
g3668
at(Nttbatbsg111
S'Expr'
p3716
sbatba(lp3717
g3656
atbsg111
g3639
sbatba(lp3718
g3636
atbsg111
g3627
sbag1
(g10
g3
NtRp3719
(dp3720
g13
g1
(g14
g3
NtRp3721
((lp3722
g17
(g18
(I0
tS'b'
tRp3723
((I1
(L0L
tg21
I00
(lt(Nttba(lp3724
g17
(g25
(I0
tS'b'
tRp3725
(I1
(L0L
tg21
I00
(ltba(lp3726
g3723
atbsg111
S';'
sbatba(lp3727
g3625
atbsg111
g3617
sbatba(lp3728
g3615
atbsg111
g3607
sbatba(lp3729
g3605
atbsg111
g3576
sbag1
(g10
g3
NtRp3730
(dp3731
g13
g1
(g14
g3
NtRp3732
((lp3733
g17
(g18
(I0
tS'b'
tRp3734
((I1
(L1L
tg21
I00
(lp3735
S'_$blockend_'
p3736
at(Nttba(lp3737
g17
(g25
(I0
tS'b'
tRp3738
(I1
(L1L
tg21
I00
(lp3739
g1
(g10
g3
NtRp3740
(dp3741
g13
g1
(g14
g3
NtRp3742
((lp3743
g17
(g18
(I0
tS'b'
tRp3744
((I1
(L0L
tg21
I00
(lt(Nttba(lp3745
g17
(g25
(I0
tS'b'
tRp3746
(I1
(L0L
tg21
I00
(ltba(lp3747
g3744
atbsg111
S'$blockend'
p3748
sbatba(lp3749
g3734
atbsg111
g3577
sbatba(lp3750
g3573
atbsg111
g3393
sbatba(lp3751
g3390
atbsg111
g3382
sbatba(lp3752
g3380
atbsg111
S'Stmt'
p3753
sbatba(lp3754
g32
atbsg111
g23
sbatba(lp3755
g19
atbsg111
g9
sbsS'pos'
p3756
g11
sb.