ccopy_reg
_reconstructor
p1
(ctree
Tree
p2
c__builtin__
object
p3
NtRp4
(dp5
S'patterns'
p6
c__builtin__
set
p7
((lp8
S'List_'
p9
aS'Val'
p10
aS'Varlist'
p11
aS'Prog'
p12
aS'For_'
p13
aS'Single_stmt'
p14
aS'Var'
p15
aS'Else_'
p16
aS'String'
p17
aS'Stmt'
p18
aS'Stmts'
p19
aS'Loop'
p20
aS'Block_head'
p21
aS'Paramlist'
p22
aS'Exprlist'
p23
aS'Pos_paramlist'
p24
aS'Func'
p25
aS'Expr'
p26
aS'Slice_'
p27
aS'Block_stmt'
p28
aS'Assign_stmt'
p29
aS'Simple_var'
p30
aS'Assign'
p31
aS'Block'
p32
aS'Pos_paramtuple'
p33
aS'Op_cmp'
p34
aS'Pos_arglist'
p35
aS'If_'
p36
aS'Number'
p37
aS'Vartuple'
p38
aS'Ifelse'
p39
aS'Pos_arg'
p40
aS'Arglist'
p41
atRp42
sS'root'
p43
g1
(ctree
vertex
p44
g3
NtRp45
(dp46
S'_data'
p47
g1
(cpandas.core.internals
SingleBlockManager
p48
g3
NtRp49
((lp50
cnumpy.core.multiarray
_reconstruct
p51
(cpandas.core.index
Index
p52
(I0
tS'b'
tRp53
((I1
(L1L
tcnumpy
dtype
p54
(S'O8'
I0
I1
tRp55
(I3
S'|'
NNNI-1
I-1
I63
tbI00
(lp56
S'Prog'
p57
at(Nttba(lp58
g51
(cnumpy
ndarray
p59
(I0
tS'b'
tRp60
(I1
(L1L
tg55
I00
(lp61
g1
(g44
g3
NtRp62
(dp63
g47
g1
(g48
g3
NtRp64
((lp65
g51
(g52
(I0
tS'b'
tRp66
((I1
(L4L
tg55
I00
(lp67
S'Stmt1'
p68
aS'Stmt2'
p69
aS'Stmt3'
p70
aS'Stmt4'
p71
at(Nttba(lp72
g51
(g59
(I0
tS'b'
tRp73
(I1
(L4L
tg55
I00
(lp74
g1
(g44
g3
NtRp75
(dp76
g47
g1
(g48
g3
NtRp77
((lp78
g51
(g52
(I0
tS'b'
tRp79
((I1
(L1L
tg55
I00
(lp80
S'Block_stmt'
p81
at(Nttba(lp82
g51
(g59
(I0
tS'b'
tRp83
(I1
(L1L
tg55
I00
(lp84
g1
(g44
g3
NtRp85
(dp86
g47
g1
(g48
g3
NtRp87
((lp88
g51
(g52
(I0
tS'b'
tRp89
((I1
(L2L
tg55
I00
(lp90
S'Block_head'
p91
aS'Block'
p92
at(Nttba(lp93
g51
(g59
(I0
tS'b'
tRp94
(I1
(L2L
tg55
I00
(lp95
g1
(g44
g3
NtRp96
(dp97
g47
g1
(g48
g3
NtRp98
((lp99
g51
(g52
(I0
tS'b'
tRp100
((I1
(L1L
tg55
I00
(lp101
S'Func'
p102
at(Nttba(lp103
g51
(g59
(I0
tS'b'
tRp104
(I1
(L1L
tg55
I00
(lp105
g1
(g44
g3
NtRp106
(dp107
g47
g1
(g48
g3
NtRp108
((lp109
g51
(g52
(I0
tS'b'
tRp110
((I1
(L5L
tg55
I00
(lp111
S'_def_'
p112
aS'_f_'
p113
aS'_(_'
p114
aS'Paramlist'
p115
aS'_)_'
p116
at(Nttba(lp117
g51
(g59
(I0
tS'b'
tRp118
(I1
(L5L
tg55
I00
(lp119
g1
(g44
g3
NtRp120
(dp121
g47
g1
(g48
g3
NtRp122
((lp123
g51
(g52
(I0
tS'b'
tRp124
((I1
(L0L
tg55
I00
(lt(Nttba(lp125
g51
(g59
(I0
tS'b'
tRp126
(I1
(L0L
tg55
I00
(ltba(lp127
g124
atbsS'name'
p128
S'def'
p129
sbag1
(g44
g3
NtRp130
(dp131
g47
g1
(g48
g3
NtRp132
((lp133
g51
(g52
(I0
tS'b'
tRp134
((I1
(L0L
tg55
I00
(lt(Nttba(lp135
g51
(g59
(I0
tS'b'
tRp136
(I1
(L0L
tg55
I00
(ltba(lp137
g134
atbsg128
S'f'
sbag1
(g44
g3
NtRp138
(dp139
g47
g1
(g48
g3
NtRp140
((lp141
g51
(g52
(I0
tS'b'
tRp142
((I1
(L0L
tg55
I00
(lt(Nttba(lp143
g51
(g59
(I0
tS'b'
tRp144
(I1
(L0L
tg55
I00
(ltba(lp145
g142
atbsg128
S'('
sbag1
(g44
g3
NtRp146
(dp147
g47
g1
(g48
g3
NtRp148
((lp149
g51
(g52
(I0
tS'b'
tRp150
((I1
(L1L
tg55
I00
(lp151
S'Pos_paramlist'
p152
at(Nttba(lp153
g51
(g59
(I0
tS'b'
tRp154
(I1
(L1L
tg55
I00
(lp155
g1
(g44
g3
NtRp156
(dp157
g47
g1
(g48
g3
NtRp158
((lp159
g51
(g52
(I0
tS'b'
tRp160
((I1
(L1L
tg55
I00
(lp161
S'Pos_paramtuple'
p162
at(Nttba(lp163
g51
(g59
(I0
tS'b'
tRp164
(I1
(L1L
tg55
I00
(lp165
g1
(g44
g3
NtRp166
(dp167
g47
g1
(g48
g3
NtRp168
((lp169
g51
(g52
(I0
tS'b'
tRp170
((I1
(L1L
tg55
I00
(lp171
S'Simple_var'
p172
at(Nttba(lp173
g51
(g59
(I0
tS'b'
tRp174
(I1
(L1L
tg55
I00
(lp175
g1
(g44
g3
NtRp176
(dp177
g47
g1
(g48
g3
NtRp178
((lp179
g51
(g52
(I0
tS'b'
tRp180
((I1
(L1L
tg55
I00
(lp181
S'_x_'
p182
at(Nttba(lp183
g51
(g59
(I0
tS'b'
tRp184
(I1
(L1L
tg55
I00
(lp185
g1
(g44
g3
NtRp186
(dp187
g47
g1
(g48
g3
NtRp188
((lp189
g51
(g52
(I0
tS'b'
tRp190
((I1
(L0L
tg55
I00
(lt(Nttba(lp191
g51
(g59
(I0
tS'b'
tRp192
(I1
(L0L
tg55
I00
(ltba(lp193
g190
atbsg128
S'x'
sbatba(lp194
g180
atbsg128
g172
sbatba(lp195
g170
atbsg128
g162
sbatba(lp196
g160
atbsg128
g152
sbatba(lp197
g150
atbsg128
g115
sbag1
(g44
g3
NtRp198
(dp199
g47
g1
(g48
g3
NtRp200
((lp201
g51
(g52
(I0
tS'b'
tRp202
((I1
(L0L
tg55
I00
(lt(Nttba(lp203
g51
(g59
(I0
tS'b'
tRp204
(I1
(L0L
tg55
I00
(ltba(lp205
g202
atbsg128
S')'
sbatba(lp206
g110
atbsg128
g102
sbatba(lp207
g100
atbsg128
g91
sbag1
(g44
g3
NtRp208
(dp209
g47
g1
(g48
g3
NtRp210
((lp211
g51
(g52
(I0
tS'b'
tRp212
((I1
(L3L
tg55
I00
(lp213
S'_:$blockbegin_'
p214
aS'Prog'
p215
aS'_$blockend_'
p216
at(Nttba(lp217
g51
(g59
(I0
tS'b'
tRp218
(I1
(L3L
tg55
I00
(lp219
g1
(g44
g3
NtRp220
(dp221
g47
g1
(g48
g3
NtRp222
((lp223
g51
(g52
(I0
tS'b'
tRp224
((I1
(L0L
tg55
I00
(lt(Nttba(lp225
g51
(g59
(I0
tS'b'
tRp226
(I1
(L0L
tg55
I00
(ltba(lp227
g224
atbsg128
S':$blockbegin'
p228
sbag1
(g44
g3
NtRp229
(dp230
g47
g1
(g48
g3
NtRp231
((lp232
g51
(g52
(I0
tS'b'
tRp233
((I1
(L2L
tg55
I00
(lp234
S'Stmt1'
p235
aS'Stmt2'
p236
at(Nttba(lp237
g51
(g59
(I0
tS'b'
tRp238
(I1
(L2L
tg55
I00
(lp239
g1
(g44
g3
NtRp240
(dp241
g47
g1
(g48
g3
NtRp242
((lp243
g51
(g52
(I0
tS'b'
tRp244
((I1
(L1L
tg55
I00
(lp245
S'Single_stmt'
p246
at(Nttba(lp247
g51
(g59
(I0
tS'b'
tRp248
(I1
(L1L
tg55
I00
(lp249
g1
(g44
g3
NtRp250
(dp251
g47
g1
(g48
g3
NtRp252
((lp253
g51
(g52
(I0
tS'b'
tRp254
((I1
(L2L
tg55
I00
(lp255
S'Exprlist'
p256
aS'_;_'
p257
at(Nttba(lp258
g51
(g59
(I0
tS'b'
tRp259
(I1
(L2L
tg55
I00
(lp260
g1
(g44
g3
NtRp261
(dp262
g47
g1
(g48
g3
NtRp263
((lp264
g51
(g52
(I0
tS'b'
tRp265
((I1
(L1L
tg55
I00
(lp266
S'Expr'
p267
at(Nttba(lp268
g51
(g59
(I0
tS'b'
tRp269
(I1
(L1L
tg55
I00
(lp270
g1
(g44
g3
NtRp271
(dp272
g47
g1
(g48
g3
NtRp273
((lp274
g51
(g52
(I0
tS'b'
tRp275
((I1
(L1L
tg55
I00
(lp276
S'Val'
p277
at(Nttba(lp278
g51
(g59
(I0
tS'b'
tRp279
(I1
(L1L
tg55
I00
(lp280
g1
(g44
g3
NtRp281
(dp282
g47
g1
(g48
g3
NtRp283
((lp284
g51
(g52
(I0
tS'b'
tRp285
((I1
(L1L
tg55
I00
(lp286
S'String'
p287
at(Nttba(lp288
g51
(g59
(I0
tS'b'
tRp289
(I1
(L1L
tg55
I00
(lp290
g1
(g44
g3
NtRp291
(dp292
g47
g1
(g48
g3
NtRp293
((lp294
g51
(g52
(I0
tS'b'
tRp295
((I1
(L1L
tg55
I00
(lp296
S'_"""rechnen"""_'
p297
at(Nttba(lp298
g51
(g59
(I0
tS'b'
tRp299
(I1
(L1L
tg55
I00
(lp300
g1
(g44
g3
NtRp301
(dp302
g47
g1
(g48
g3
NtRp303
((lp304
g51
(g52
(I0
tS'b'
tRp305
((I1
(L0L
tg55
I00
(lt(Nttba(lp306
g51
(g59
(I0
tS'b'
tRp307
(I1
(L0L
tg55
I00
(ltba(lp308
g305
atbsg128
S'"""rechnen"""'
p309
sbatba(lp310
g295
atbsg128
g287
sbatba(lp311
g285
atbsg128
g277
sbatba(lp312
g275
atbsg128
g267
sbatba(lp313
g265
atbsg128
g256
sbag1
(g44
g3
NtRp314
(dp315
g47
g1
(g48
g3
NtRp316
((lp317
g51
(g52
(I0
tS'b'
tRp318
((I1
(L0L
tg55
I00
(lt(Nttba(lp319
g51
(g59
(I0
tS'b'
tRp320
(I1
(L0L
tg55
I00
(ltba(lp321
g318
atbsg128
S';'
sbatba(lp322
g254
atbsg128
g246
sbatba(lp323
g244
atbsg128
S'Stmt'
p324
sbag1
(g44
g3
NtRp325
(dp326
g47
g1
(g48
g3
NtRp327
((lp328
g51
(g52
(I0
tS'b'
tRp329
((I1
(L1L
tg55
I00
(lp330
S'Single_stmt'
p331
at(Nttba(lp332
g51
(g59
(I0
tS'b'
tRp333
(I1
(L1L
tg55
I00
(lp334
g1
(g44
g3
NtRp335
(dp336
g47
g1
(g48
g3
NtRp337
((lp338
g51
(g52
(I0
tS'b'
tRp339
((I1
(L2L
tg55
I00
(lp340
S'Stmts'
p341
aS'_;_'
p342
at(Nttba(lp343
g51
(g59
(I0
tS'b'
tRp344
(I1
(L2L
tg55
I00
(lp345
g1
(g44
g3
NtRp346
(dp347
g47
g1
(g48
g3
NtRp348
((lp349
g51
(g52
(I0
tS'b'
tRp350
((I1
(L2L
tg55
I00
(lp351
S'_return_'
p352
aS'Exprlist'
p353
at(Nttba(lp354
g51
(g59
(I0
tS'b'
tRp355
(I1
(L2L
tg55
I00
(lp356
g1
(g44
g3
NtRp357
(dp358
g47
g1
(g48
g3
NtRp359
((lp360
g51
(g52
(I0
tS'b'
tRp361
((I1
(L0L
tg55
I00
(lt(Nttba(lp362
g51
(g59
(I0
tS'b'
tRp363
(I1
(L0L
tg55
I00
(ltba(lp364
g361
atbsg128
S'return'
p365
sbag1
(g44
g3
NtRp366
(dp367
g47
g1
(g48
g3
NtRp368
((lp369
g51
(g52
(I0
tS'b'
tRp370
((I1
(L1L
tg55
I00
(lp371
S'Expr'
p372
at(Nttba(lp373
g51
(g59
(I0
tS'b'
tRp374
(I1
(L1L
tg55
I00
(lp375
g1
(g44
g3
NtRp376
(dp377
g47
g1
(g48
g3
NtRp378
((lp379
g51
(g52
(I0
tS'b'
tRp380
((I1
(L3L
tg55
I00
(lp381
S'Expr1'
p382
aS'_+_'
p383
aS'Expr2'
p384
at(Nttba(lp385
g51
(g59
(I0
tS'b'
tRp386
(I1
(L3L
tg55
I00
(lp387
g1
(g44
g3
NtRp388
(dp389
g47
g1
(g48
g3
NtRp390
((lp391
g51
(g52
(I0
tS'b'
tRp392
((I1
(L3L
tg55
I00
(lp393
S'Expr1'
p394
aS'_+_'
p395
aS'Expr2'
p396
at(Nttba(lp397
g51
(g59
(I0
tS'b'
tRp398
(I1
(L3L
tg55
I00
(lp399
g1
(g44
g3
NtRp400
(dp401
g47
g1
(g48
g3
NtRp402
((lp403
g51
(g52
(I0
tS'b'
tRp404
((I1
(L3L
tg55
I00
(lp405
S'Expr1'
p406
aS'_+_'
p407
aS'Expr2'
p408
at(Nttba(lp409
g51
(g59
(I0
tS'b'
tRp410
(I1
(L3L
tg55
I00
(lp411
g1
(g44
g3
NtRp412
(dp413
g47
g1
(g48
g3
NtRp414
((lp415
g51
(g52
(I0
tS'b'
tRp416
((I1
(L3L
tg55
I00
(lp417
S'Expr1'
p418
aS'_**_'
p419
aS'Expr2'
p420
at(Nttba(lp421
g51
(g59
(I0
tS'b'
tRp422
(I1
(L3L
tg55
I00
(lp423
g1
(g44
g3
NtRp424
(dp425
g47
g1
(g48
g3
NtRp426
((lp427
g51
(g52
(I0
tS'b'
tRp428
((I1
(L1L
tg55
I00
(lp429
S'Val'
p430
at(Nttba(lp431
g51
(g59
(I0
tS'b'
tRp432
(I1
(L1L
tg55
I00
(lp433
g1
(g44
g3
NtRp434
(dp435
g47
g1
(g48
g3
NtRp436
((lp437
g51
(g52
(I0
tS'b'
tRp438
((I1
(L1L
tg55
I00
(lp439
S'Var'
p440
at(Nttba(lp441
g51
(g59
(I0
tS'b'
tRp442
(I1
(L1L
tg55
I00
(lp443
g1
(g44
g3
NtRp444
(dp445
g47
g1
(g48
g3
NtRp446
((lp447
g51
(g52
(I0
tS'b'
tRp448
((I1
(L1L
tg55
I00
(lp449
S'_x_'
p450
at(Nttba(lp451
g51
(g59
(I0
tS'b'
tRp452
(I1
(L1L
tg55
I00
(lp453
g1
(g44
g3
NtRp454
(dp455
g47
g1
(g48
g3
NtRp456
((lp457
g51
(g52
(I0
tS'b'
tRp458
((I1
(L0L
tg55
I00
(lt(Nttba(lp459
g51
(g59
(I0
tS'b'
tRp460
(I1
(L0L
tg55
I00
(ltba(lp461
g458
atbsg128
S'x'
sbatba(lp462
g448
atbsg128
g440
sbatba(lp463
g438
atbsg128
g430
sbatba(lp464
g428
atbsg128
S'Expr'
p465
sbag1
(g44
g3
NtRp466
(dp467
g47
g1
(g48
g3
NtRp468
((lp469
g51
(g52
(I0
tS'b'
tRp470
((I1
(L0L
tg55
I00
(lt(Nttba(lp471
g51
(g59
(I0
tS'b'
tRp472
(I1
(L0L
tg55
I00
(ltba(lp473
g470
atbsg128
S'**'
p474
sbag1
(g44
g3
NtRp475
(dp476
g47
g1
(g48
g3
NtRp477
((lp478
g51
(g52
(I0
tS'b'
tRp479
((I1
(L1L
tg55
I00
(lp480
S'Val'
p481
at(Nttba(lp482
g51
(g59
(I0
tS'b'
tRp483
(I1
(L1L
tg55
I00
(lp484
g1
(g44
g3
NtRp485
(dp486
g47
g1
(g48
g3
NtRp487
((lp488
g51
(g52
(I0
tS'b'
tRp489
((I1
(L1L
tg55
I00
(lp490
S'Number'
p491
at(Nttba(lp492
g51
(g59
(I0
tS'b'
tRp493
(I1
(L1L
tg55
I00
(lp494
g1
(g44
g3
NtRp495
(dp496
g47
g1
(g48
g3
NtRp497
((lp498
g51
(g52
(I0
tS'b'
tRp499
((I1
(L1L
tg55
I00
(lp500
S'_2_'
p501
at(Nttba(lp502
g51
(g59
(I0
tS'b'
tRp503
(I1
(L1L
tg55
I00
(lp504
g1
(g44
g3
NtRp505
(dp506
g47
g1
(g48
g3
NtRp507
((lp508
g51
(g52
(I0
tS'b'
tRp509
((I1
(L0L
tg55
I00
(lt(Nttba(lp510
g51
(g59
(I0
tS'b'
tRp511
(I1
(L0L
tg55
I00
(ltba(lp512
g509
atbsg128
S'2'
sbatba(lp513
g499
atbsg128
g491
sbatba(lp514
g489
atbsg128
g481
sbatba(lp515
g479
atbsg128
S'Expr'
p516
sbatba(lp517
g416
atbsg128
S'Expr'
p518
sbag1
(g44
g3
NtRp519
(dp520
g47
g1
(g48
g3
NtRp521
((lp522
g51
(g52
(I0
tS'b'
tRp523
((I1
(L0L
tg55
I00
(lt(Nttba(lp524
g51
(g59
(I0
tS'b'
tRp525
(I1
(L0L
tg55
I00
(ltba(lp526
g523
atbsg128
S'+'
sbag1
(g44
g3
NtRp527
(dp528
g47
g1
(g48
g3
NtRp529
((lp530
g51
(g52
(I0
tS'b'
tRp531
((I1
(L3L
tg55
I00
(lp532
S'Expr1'
p533
aS'_-_'
p534
aS'Expr2'
p535
at(Nttba(lp536
g51
(g59
(I0
tS'b'
tRp537
(I1
(L3L
tg55
I00
(lp538
g1
(g44
g3
NtRp539
(dp540
g47
g1
(g48
g3
NtRp541
((lp542
g51
(g52
(I0
tS'b'
tRp543
((I1
(L3L
tg55
I00
(lp544
S'Expr1'
p545
aS'_-_'
p546
aS'Expr2'
p547
at(Nttba(lp548
g51
(g59
(I0
tS'b'
tRp549
(I1
(L3L
tg55
I00
(lp550
g1
(g44
g3
NtRp551
(dp552
g47
g1
(g48
g3
NtRp553
((lp554
g51
(g52
(I0
tS'b'
tRp555
((I1
(L3L
tg55
I00
(lp556
S'Expr1'
p557
aS'_*_'
p558
aS'Expr2'
p559
at(Nttba(lp560
g51
(g59
(I0
tS'b'
tRp561
(I1
(L3L
tg55
I00
(lp562
g1
(g44
g3
NtRp563
(dp564
g47
g1
(g48
g3
NtRp565
((lp566
g51
(g52
(I0
tS'b'
tRp567
((I1
(L1L
tg55
I00
(lp568
S'Val'
p569
at(Nttba(lp570
g51
(g59
(I0
tS'b'
tRp571
(I1
(L1L
tg55
I00
(lp572
g1
(g44
g3
NtRp573
(dp574
g47
g1
(g48
g3
NtRp575
((lp576
g51
(g52
(I0
tS'b'
tRp577
((I1
(L1L
tg55
I00
(lp578
S'Var'
p579
at(Nttba(lp580
g51
(g59
(I0
tS'b'
tRp581
(I1
(L1L
tg55
I00
(lp582
g1
(g44
g3
NtRp583
(dp584
g47
g1
(g48
g3
NtRp585
((lp586
g51
(g52
(I0
tS'b'
tRp587
((I1
(L1L
tg55
I00
(lp588
S'_x_'
p589
at(Nttba(lp590
g51
(g59
(I0
tS'b'
tRp591
(I1
(L1L
tg55
I00
(lp592
g1
(g44
g3
NtRp593
(dp594
g47
g1
(g48
g3
NtRp595
((lp596
g51
(g52
(I0
tS'b'
tRp597
((I1
(L0L
tg55
I00
(lt(Nttba(lp598
g51
(g59
(I0
tS'b'
tRp599
(I1
(L0L
tg55
I00
(ltba(lp600
g597
atbsg128
S'x'
sbatba(lp601
g587
atbsg128
g579
sbatba(lp602
g577
atbsg128
g569
sbatba(lp603
g567
atbsg128
S'Expr'
p604
sbag1
(g44
g3
NtRp605
(dp606
g47
g1
(g48
g3
NtRp607
((lp608
g51
(g52
(I0
tS'b'
tRp609
((I1
(L0L
tg55
I00
(lt(Nttba(lp610
g51
(g59
(I0
tS'b'
tRp611
(I1
(L0L
tg55
I00
(ltba(lp612
g609
atbsg128
S'*'
sbag1
(g44
g3
NtRp613
(dp614
g47
g1
(g48
g3
NtRp615
((lp616
g51
(g52
(I0
tS'b'
tRp617
((I1
(L1L
tg55
I00
(lp618
S'Val'
p619
at(Nttba(lp620
g51
(g59
(I0
tS'b'
tRp621
(I1
(L1L
tg55
I00
(lp622
g1
(g44
g3
NtRp623
(dp624
g47
g1
(g48
g3
NtRp625
((lp626
g51
(g52
(I0
tS'b'
tRp627
((I1
(L1L
tg55
I00
(lp628
S'Number'
p629
at(Nttba(lp630
g51
(g59
(I0
tS'b'
tRp631
(I1
(L1L
tg55
I00
(lp632
g1
(g44
g3
NtRp633
(dp634
g47
g1
(g48
g3
NtRp635
((lp636
g51
(g52
(I0
tS'b'
tRp637
((I1
(L1L
tg55
I00
(lp638
S'_4_'
p639
at(Nttba(lp640
g51
(g59
(I0
tS'b'
tRp641
(I1
(L1L
tg55
I00
(lp642
g1
(g44
g3
NtRp643
(dp644
g47
g1
(g48
g3
NtRp645
((lp646
g51
(g52
(I0
tS'b'
tRp647
((I1
(L0L
tg55
I00
(lt(Nttba(lp648
g51
(g59
(I0
tS'b'
tRp649
(I1
(L0L
tg55
I00
(ltba(lp650
g647
atbsg128
S'4'
sbatba(lp651
g637
atbsg128
g629
sbatba(lp652
g627
atbsg128
g619
sbatba(lp653
g617
atbsg128
S'Expr'
p654
sbatba(lp655
g555
atbsg128
S'Expr'
p656
sbag1
(g44
g3
NtRp657
(dp658
g47
g1
(g48
g3
NtRp659
((lp660
g51
(g52
(I0
tS'b'
tRp661
((I1
(L0L
tg55
I00
(lt(Nttba(lp662
g51
(g59
(I0
tS'b'
tRp663
(I1
(L0L
tg55
I00
(ltba(lp664
g661
atbsg128
S'-'
sbag1
(g44
g3
NtRp665
(dp666
g47
g1
(g48
g3
NtRp667
((lp668
g51
(g52
(I0
tS'b'
tRp669
((I1
(L3L
tg55
I00
(lp670
S'Expr1'
p671
aS'_/_'
p672
aS'Expr2'
p673
at(Nttba(lp674
g51
(g59
(I0
tS'b'
tRp675
(I1
(L3L
tg55
I00
(lp676
g1
(g44
g3
NtRp677
(dp678
g47
g1
(g48
g3
NtRp679
((lp680
g51
(g52
(I0
tS'b'
tRp681
((I1
(L3L
tg55
I00
(lp682
S'_(_'
p683
aS'Expr'
p684
aS'_)_'
p685
at(Nttba(lp686
g51
(g59
(I0
tS'b'
tRp687
(I1
(L3L
tg55
I00
(lp688
g1
(g44
g3
NtRp689
(dp690
g47
g1
(g48
g3
NtRp691
((lp692
g51
(g52
(I0
tS'b'
tRp693
((I1
(L0L
tg55
I00
(lt(Nttba(lp694
g51
(g59
(I0
tS'b'
tRp695
(I1
(L0L
tg55
I00
(ltba(lp696
g693
atbsg128
S'('
sbag1
(g44
g3
NtRp697
(dp698
g47
g1
(g48
g3
NtRp699
((lp700
g51
(g52
(I0
tS'b'
tRp701
((I1
(L3L
tg55
I00
(lp702
S'Expr1'
p703
aS'_-_'
p704
aS'Expr2'
p705
at(Nttba(lp706
g51
(g59
(I0
tS'b'
tRp707
(I1
(L3L
tg55
I00
(lp708
g1
(g44
g3
NtRp709
(dp710
g47
g1
(g48
g3
NtRp711
((lp712
g51
(g52
(I0
tS'b'
tRp713
((I1
(L1L
tg55
I00
(lp714
S'Val'
p715
at(Nttba(lp716
g51
(g59
(I0
tS'b'
tRp717
(I1
(L1L
tg55
I00
(lp718
g1
(g44
g3
NtRp719
(dp720
g47
g1
(g48
g3
NtRp721
((lp722
g51
(g52
(I0
tS'b'
tRp723
((I1
(L1L
tg55
I00
(lp724
S'Var'
p725
at(Nttba(lp726
g51
(g59
(I0
tS'b'
tRp727
(I1
(L1L
tg55
I00
(lp728
g1
(g44
g3
NtRp729
(dp730
g47
g1
(g48
g3
NtRp731
((lp732
g51
(g52
(I0
tS'b'
tRp733
((I1
(L1L
tg55
I00
(lp734
S'_x_'
p735
at(Nttba(lp736
g51
(g59
(I0
tS'b'
tRp737
(I1
(L1L
tg55
I00
(lp738
g1
(g44
g3
NtRp739
(dp740
g47
g1
(g48
g3
NtRp741
((lp742
g51
(g52
(I0
tS'b'
tRp743
((I1
(L0L
tg55
I00
(lt(Nttba(lp744
g51
(g59
(I0
tS'b'
tRp745
(I1
(L0L
tg55
I00
(ltba(lp746
g743
atbsg128
S'x'
sbatba(lp747
g733
atbsg128
g725
sbatba(lp748
g723
atbsg128
g715
sbatba(lp749
g713
atbsg128
S'Expr'
p750
sbag1
(g44
g3
NtRp751
(dp752
g47
g1
(g48
g3
NtRp753
((lp754
g51
(g52
(I0
tS'b'
tRp755
((I1
(L0L
tg55
I00
(lt(Nttba(lp756
g51
(g59
(I0
tS'b'
tRp757
(I1
(L0L
tg55
I00
(ltba(lp758
g755
atbsg128
S'-'
sbag1
(g44
g3
NtRp759
(dp760
g47
g1
(g48
g3
NtRp761
((lp762
g51
(g52
(I0
tS'b'
tRp763
((I1
(L1L
tg55
I00
(lp764
S'Val'
p765
at(Nttba(lp766
g51
(g59
(I0
tS'b'
tRp767
(I1
(L1L
tg55
I00
(lp768
g1
(g44
g3
NtRp769
(dp770
g47
g1
(g48
g3
NtRp771
((lp772
g51
(g52
(I0
tS'b'
tRp773
((I1
(L1L
tg55
I00
(lp774
S'Number'
p775
at(Nttba(lp776
g51
(g59
(I0
tS'b'
tRp777
(I1
(L1L
tg55
I00
(lp778
g1
(g44
g3
NtRp779
(dp780
g47
g1
(g48
g3
NtRp781
((lp782
g51
(g52
(I0
tS'b'
tRp783
((I1
(L1L
tg55
I00
(lp784
S'_3_'
p785
at(Nttba(lp786
g51
(g59
(I0
tS'b'
tRp787
(I1
(L1L
tg55
I00
(lp788
g1
(g44
g3
NtRp789
(dp790
g47
g1
(g48
g3
NtRp791
((lp792
g51
(g52
(I0
tS'b'
tRp793
((I1
(L0L
tg55
I00
(lt(Nttba(lp794
g51
(g59
(I0
tS'b'
tRp795
(I1
(L0L
tg55
I00
(ltba(lp796
g793
atbsg128
S'3'
sbatba(lp797
g783
atbsg128
g775
sbatba(lp798
g773
atbsg128
g765
sbatba(lp799
g763
atbsg128
S'Expr'
p800
sbatba(lp801
g701
atbsg128
g684
sbag1
(g44
g3
NtRp802
(dp803
g47
g1
(g48
g3
NtRp804
((lp805
g51
(g52
(I0
tS'b'
tRp806
((I1
(L0L
tg55
I00
(lt(Nttba(lp807
g51
(g59
(I0
tS'b'
tRp808
(I1
(L0L
tg55
I00
(ltba(lp809
g806
atbsg128
S')'
sbatba(lp810
g681
atbsg128
S'Expr'
p811
sbag1
(g44
g3
NtRp812
(dp813
g47
g1
(g48
g3
NtRp814
((lp815
g51
(g52
(I0
tS'b'
tRp816
((I1
(L0L
tg55
I00
(lt(Nttba(lp817
g51
(g59
(I0
tS'b'
tRp818
(I1
(L0L
tg55
I00
(ltba(lp819
g816
atbsg128
S'/'
sbag1
(g44
g3
NtRp820
(dp821
g47
g1
(g48
g3
NtRp822
((lp823
g51
(g52
(I0
tS'b'
tRp824
((I1
(L1L
tg55
I00
(lp825
S'Val'
p826
at(Nttba(lp827
g51
(g59
(I0
tS'b'
tRp828
(I1
(L1L
tg55
I00
(lp829
g1
(g44
g3
NtRp830
(dp831
g47
g1
(g48
g3
NtRp832
((lp833
g51
(g52
(I0
tS'b'
tRp834
((I1
(L1L
tg55
I00
(lp835
S'Var'
p836
at(Nttba(lp837
g51
(g59
(I0
tS'b'
tRp838
(I1
(L1L
tg55
I00
(lp839
g1
(g44
g3
NtRp840
(dp841
g47
g1
(g48
g3
NtRp842
((lp843
g51
(g52
(I0
tS'b'
tRp844
((I1
(L1L
tg55
I00
(lp845
S'_x_'
p846
at(Nttba(lp847
g51
(g59
(I0
tS'b'
tRp848
(I1
(L1L
tg55
I00
(lp849
g1
(g44
g3
NtRp850
(dp851
g47
g1
(g48
g3
NtRp852
((lp853
g51
(g52
(I0
tS'b'
tRp854
((I1
(L0L
tg55
I00
(lt(Nttba(lp855
g51
(g59
(I0
tS'b'
tRp856
(I1
(L0L
tg55
I00
(ltba(lp857
g854
atbsg128
S'x'
sbatba(lp858
g844
atbsg128
g836
sbatba(lp859
g834
atbsg128
g826
sbatba(lp860
g824
atbsg128
S'Expr'
p861
sbatba(lp862
g669
atbsg128
S'Expr'
p863
sbatba(lp864
g543
atbsg128
S'Expr'
p865
sbag1
(g44
g3
NtRp866
(dp867
g47
g1
(g48
g3
NtRp868
((lp869
g51
(g52
(I0
tS'b'
tRp870
((I1
(L0L
tg55
I00
(lt(Nttba(lp871
g51
(g59
(I0
tS'b'
tRp872
(I1
(L0L
tg55
I00
(ltba(lp873
g870
atbsg128
S'-'
sbag1
(g44
g3
NtRp874
(dp875
g47
g1
(g48
g3
NtRp876
((lp877
g51
(g52
(I0
tS'b'
tRp878
((I1
(L1L
tg55
I00
(lp879
S'Val'
p880
at(Nttba(lp881
g51
(g59
(I0
tS'b'
tRp882
(I1
(L1L
tg55
I00
(lp883
g1
(g44
g3
NtRp884
(dp885
g47
g1
(g48
g3
NtRp886
((lp887
g51
(g52
(I0
tS'b'
tRp888
((I1
(L1L
tg55
I00
(lp889
S'Number'
p890
at(Nttba(lp891
g51
(g59
(I0
tS'b'
tRp892
(I1
(L1L
tg55
I00
(lp893
g1
(g44
g3
NtRp894
(dp895
g47
g1
(g48
g3
NtRp896
((lp897
g51
(g52
(I0
tS'b'
tRp898
((I1
(L1L
tg55
I00
(lp899
S'_1.3e4_'
p900
at(Nttba(lp901
g51
(g59
(I0
tS'b'
tRp902
(I1
(L1L
tg55
I00
(lp903
g1
(g44
g3
NtRp904
(dp905
g47
g1
(g48
g3
NtRp906
((lp907
g51
(g52
(I0
tS'b'
tRp908
((I1
(L0L
tg55
I00
(lt(Nttba(lp909
g51
(g59
(I0
tS'b'
tRp910
(I1
(L0L
tg55
I00
(ltba(lp911
g908
atbsg128
S'1.3e4'
p912
sbatba(lp913
g898
atbsg128
g890
sbatba(lp914
g888
atbsg128
g880
sbatba(lp915
g878
atbsg128
S'Expr'
p916
sbatba(lp917
g531
atbsg128
S'Expr'
p918
sbatba(lp919
g404
atbsg128
S'Expr'
p920
sbag1
(g44
g3
NtRp921
(dp922
g47
g1
(g48
g3
NtRp923
((lp924
g51
(g52
(I0
tS'b'
tRp925
((I1
(L0L
tg55
I00
(lt(Nttba(lp926
g51
(g59
(I0
tS'b'
tRp927
(I1
(L0L
tg55
I00
(ltba(lp928
g925
atbsg128
S'+'
sbag1
(g44
g3
NtRp929
(dp930
g47
g1
(g48
g3
NtRp931
((lp932
g51
(g52
(I0
tS'b'
tRp933
((I1
(L1L
tg55
I00
(lp934
S'Val'
p935
at(Nttba(lp936
g51
(g59
(I0
tS'b'
tRp937
(I1
(L1L
tg55
I00
(lp938
g1
(g44
g3
NtRp939
(dp940
g47
g1
(g48
g3
NtRp941
((lp942
g51
(g52
(I0
tS'b'
tRp943
((I1
(L1L
tg55
I00
(lp944
S'Number'
p945
at(Nttba(lp946
g51
(g59
(I0
tS'b'
tRp947
(I1
(L1L
tg55
I00
(lp948
g1
(g44
g3
NtRp949
(dp950
g47
g1
(g48
g3
NtRp951
((lp952
g51
(g52
(I0
tS'b'
tRp953
((I1
(L1L
tg55
I00
(lp954
S'_2_'
p955
at(Nttba(lp956
g51
(g59
(I0
tS'b'
tRp957
(I1
(L1L
tg55
I00
(lp958
g1
(g44
g3
NtRp959
(dp960
g47
g1
(g48
g3
NtRp961
((lp962
g51
(g52
(I0
tS'b'
tRp963
((I1
(L0L
tg55
I00
(lt(Nttba(lp964
g51
(g59
(I0
tS'b'
tRp965
(I1
(L0L
tg55
I00
(ltba(lp966
g963
atbsg128
S'2'
sbatba(lp967
g953
atbsg128
g945
sbatba(lp968
g943
atbsg128
g935
sbatba(lp969
g933
atbsg128
S'Expr'
p970
sbatba(lp971
g392
atbsg128
S'Expr'
p972
sbag1
(g44
g3
NtRp973
(dp974
g47
g1
(g48
g3
NtRp975
((lp976
g51
(g52
(I0
tS'b'
tRp977
((I1
(L0L
tg55
I00
(lt(Nttba(lp978
g51
(g59
(I0
tS'b'
tRp979
(I1
(L0L
tg55
I00
(ltba(lp980
g977
atbsg128
S'+'
sbag1
(g44
g3
NtRp981
(dp982
g47
g1
(g48
g3
NtRp983
((lp984
g51
(g52
(I0
tS'b'
tRp985
((I1
(L1L
tg55
I00
(lp986
S'Val'
p987
at(Nttba(lp988
g51
(g59
(I0
tS'b'
tRp989
(I1
(L1L
tg55
I00
(lp990
g1
(g44
g3
NtRp991
(dp992
g47
g1
(g48
g3
NtRp993
((lp994
g51
(g52
(I0
tS'b'
tRp995
((I1
(L1L
tg55
I00
(lp996
S'Number'
p997
at(Nttba(lp998
g51
(g59
(I0
tS'b'
tRp999
(I1
(L1L
tg55
I00
(lp1000
g1
(g44
g3
NtRp1001
(dp1002
g47
g1
(g48
g3
NtRp1003
((lp1004
g51
(g52
(I0
tS'b'
tRp1005
((I1
(L1L
tg55
I00
(lp1006
S'_5_'
p1007
at(Nttba(lp1008
g51
(g59
(I0
tS'b'
tRp1009
(I1
(L1L
tg55
I00
(lp1010
g1
(g44
g3
NtRp1011
(dp1012
g47
g1
(g48
g3
NtRp1013
((lp1014
g51
(g52
(I0
tS'b'
tRp1015
((I1
(L0L
tg55
I00
(lt(Nttba(lp1016
g51
(g59
(I0
tS'b'
tRp1017
(I1
(L0L
tg55
I00
(ltba(lp1018
g1015
atbsg128
S'5'
sbatba(lp1019
g1005
atbsg128
g997
sbatba(lp1020
g995
atbsg128
g987
sbatba(lp1021
g985
atbsg128
S'Expr'
p1022
sbatba(lp1023
g380
atbsg128
g372
sbatba(lp1024
g370
atbsg128
g353
sbatba(lp1025
g350
atbsg128
g341
sbag1
(g44
g3
NtRp1026
(dp1027
g47
g1
(g48
g3
NtRp1028
((lp1029
g51
(g52
(I0
tS'b'
tRp1030
((I1
(L0L
tg55
I00
(lt(Nttba(lp1031
g51
(g59
(I0
tS'b'
tRp1032
(I1
(L0L
tg55
I00
(ltba(lp1033
g1030
atbsg128
S';'
sbatba(lp1034
g339
atbsg128
g331
sbatba(lp1035
g329
atbsg128
S'Stmt'
p1036
sbatba(lp1037
g233
atbsg128
g215
sbag1
(g44
g3
NtRp1038
(dp1039
g47
g1
(g48
g3
NtRp1040
((lp1041
g51
(g52
(I0
tS'b'
tRp1042
((I1
(L0L
tg55
I00
(lt(Nttba(lp1043
g51
(g59
(I0
tS'b'
tRp1044
(I1
(L0L
tg55
I00
(ltba(lp1045
g1042
atbsg128
S'$blockend'
p1046
sbatba(lp1047
g212
atbsg128
g92
sbatba(lp1048
g89
atbsg128
g81
sbatba(lp1049
g79
atbsg128
S'Stmt'
p1050
sbag1
(g44
g3
NtRp1051
(dp1052
g47
g1
(g48
g3
NtRp1053
((lp1054
g51
(g52
(I0
tS'b'
tRp1055
((I1
(L1L
tg55
I00
(lp1056
S'Single_stmt'
p1057
at(Nttba(lp1058
g51
(g59
(I0
tS'b'
tRp1059
(I1
(L1L
tg55
I00
(lp1060
g1
(g44
g3
NtRp1061
(dp1062
g47
g1
(g48
g3
NtRp1063
((lp1064
g51
(g52
(I0
tS'b'
tRp1065
((I1
(L2L
tg55
I00
(lp1066
S'Assign_stmt'
p1067
aS'_;_'
p1068
at(Nttba(lp1069
g51
(g59
(I0
tS'b'
tRp1070
(I1
(L2L
tg55
I00
(lp1071
g1
(g44
g3
NtRp1072
(dp1073
g47
g1
(g48
g3
NtRp1074
((lp1075
g51
(g52
(I0
tS'b'
tRp1076
((I1
(L1L
tg55
I00
(lp1077
S'Assign'
p1078
at(Nttba(lp1079
g51
(g59
(I0
tS'b'
tRp1080
(I1
(L1L
tg55
I00
(lp1081
g1
(g44
g3
NtRp1082
(dp1083
g47
g1
(g48
g3
NtRp1084
((lp1085
g51
(g52
(I0
tS'b'
tRp1086
((I1
(L3L
tg55
I00
(lp1087
S'Varlist'
p1088
aS'_=_'
p1089
aS'Exprlist'
p1090
at(Nttba(lp1091
g51
(g59
(I0
tS'b'
tRp1092
(I1
(L3L
tg55
I00
(lp1093
g1
(g44
g3
NtRp1094
(dp1095
g47
g1
(g48
g3
NtRp1096
((lp1097
g51
(g52
(I0
tS'b'
tRp1098
((I1
(L1L
tg55
I00
(lp1099
S'Vartuple'
p1100
at(Nttba(lp1101
g51
(g59
(I0
tS'b'
tRp1102
(I1
(L1L
tg55
I00
(lp1103
g1
(g44
g3
NtRp1104
(dp1105
g47
g1
(g48
g3
NtRp1106
((lp1107
g51
(g52
(I0
tS'b'
tRp1108
((I1
(L1L
tg55
I00
(lp1109
S'Var'
p1110
at(Nttba(lp1111
g51
(g59
(I0
tS'b'
tRp1112
(I1
(L1L
tg55
I00
(lp1113
g1
(g44
g3
NtRp1114
(dp1115
g47
g1
(g48
g3
NtRp1116
((lp1117
g51
(g52
(I0
tS'b'
tRp1118
((I1
(L1L
tg55
I00
(lp1119
S'_L_'
p1120
at(Nttba(lp1121
g51
(g59
(I0
tS'b'
tRp1122
(I1
(L1L
tg55
I00
(lp1123
g1
(g44
g3
NtRp1124
(dp1125
g47
g1
(g48
g3
NtRp1126
((lp1127
g51
(g52
(I0
tS'b'
tRp1128
((I1
(L0L
tg55
I00
(lt(Nttba(lp1129
g51
(g59
(I0
tS'b'
tRp1130
(I1
(L0L
tg55
I00
(ltba(lp1131
g1128
atbsg128
S'L'
sbatba(lp1132
g1118
atbsg128
g1110
sbatba(lp1133
g1108
atbsg128
g1100
sbatba(lp1134
g1098
atbsg128
g1088
sbag1
(g44
g3
NtRp1135
(dp1136
g47
g1
(g48
g3
NtRp1137
((lp1138
g51
(g52
(I0
tS'b'
tRp1139
((I1
(L0L
tg55
I00
(lt(Nttba(lp1140
g51
(g59
(I0
tS'b'
tRp1141
(I1
(L0L
tg55
I00
(ltba(lp1142
g1139
atbsg128
S'='
sbag1
(g44
g3
NtRp1143
(dp1144
g47
g1
(g48
g3
NtRp1145
((lp1146
g51
(g52
(I0
tS'b'
tRp1147
((I1
(L1L
tg55
I00
(lp1148
S'Expr'
p1149
at(Nttba(lp1150
g51
(g59
(I0
tS'b'
tRp1151
(I1
(L1L
tg55
I00
(lp1152
g1
(g44
g3
NtRp1153
(dp1154
g47
g1
(g48
g3
NtRp1155
((lp1156
g51
(g52
(I0
tS'b'
tRp1157
((I1
(L3L
tg55
I00
(lp1158
S'Expr1'
p1159
aS'_*_'
p1160
aS'Expr2'
p1161
at(Nttba(lp1162
g51
(g59
(I0
tS'b'
tRp1163
(I1
(L3L
tg55
I00
(lp1164
g1
(g44
g3
NtRp1165
(dp1166
g47
g1
(g48
g3
NtRp1167
((lp1168
g51
(g52
(I0
tS'b'
tRp1169
((I1
(L1L
tg55
I00
(lp1170
S'Val'
p1171
at(Nttba(lp1172
g51
(g59
(I0
tS'b'
tRp1173
(I1
(L1L
tg55
I00
(lp1174
g1
(g44
g3
NtRp1175
(dp1176
g47
g1
(g48
g3
NtRp1177
((lp1178
g51
(g52
(I0
tS'b'
tRp1179
((I1
(L1L
tg55
I00
(lp1180
S'List'
p1181
at(Nttba(lp1182
g51
(g59
(I0
tS'b'
tRp1183
(I1
(L1L
tg55
I00
(lp1184
g1
(g44
g3
NtRp1185
(dp1186
g47
g1
(g48
g3
NtRp1187
((lp1188
g51
(g52
(I0
tS'b'
tRp1189
((I1
(L3L
tg55
I00
(lp1190
S'_[_'
p1191
aS'Exprlist'
p1192
aS'_]_'
p1193
at(Nttba(lp1194
g51
(g59
(I0
tS'b'
tRp1195
(I1
(L3L
tg55
I00
(lp1196
g1
(g44
g3
NtRp1197
(dp1198
g47
g1
(g48
g3
NtRp1199
((lp1200
g51
(g52
(I0
tS'b'
tRp1201
((I1
(L0L
tg55
I00
(lt(Nttba(lp1202
g51
(g59
(I0
tS'b'
tRp1203
(I1
(L0L
tg55
I00
(ltba(lp1204
g1201
atbsg128
S'['
sbag1
(g44
g3
NtRp1205
(dp1206
g47
g1
(g48
g3
NtRp1207
((lp1208
g51
(g52
(I0
tS'b'
tRp1209
((I1
(L1L
tg55
I00
(lp1210
S'Expr'
p1211
at(Nttba(lp1212
g51
(g59
(I0
tS'b'
tRp1213
(I1
(L1L
tg55
I00
(lp1214
g1
(g44
g3
NtRp1215
(dp1216
g47
g1
(g48
g3
NtRp1217
((lp1218
g51
(g52
(I0
tS'b'
tRp1219
((I1
(L1L
tg55
I00
(lp1220
S'Val'
p1221
at(Nttba(lp1222
g51
(g59
(I0
tS'b'
tRp1223
(I1
(L1L
tg55
I00
(lp1224
g1
(g44
g3
NtRp1225
(dp1226
g47
g1
(g48
g3
NtRp1227
((lp1228
g51
(g52
(I0
tS'b'
tRp1229
((I1
(L1L
tg55
I00
(lp1230
S'Number'
p1231
at(Nttba(lp1232
g51
(g59
(I0
tS'b'
tRp1233
(I1
(L1L
tg55
I00
(lp1234
g1
(g44
g3
NtRp1235
(dp1236
g47
g1
(g48
g3
NtRp1237
((lp1238
g51
(g52
(I0
tS'b'
tRp1239
((I1
(L1L
tg55
I00
(lp1240
S'_0_'
p1241
at(Nttba(lp1242
g51
(g59
(I0
tS'b'
tRp1243
(I1
(L1L
tg55
I00
(lp1244
g1
(g44
g3
NtRp1245
(dp1246
g47
g1
(g48
g3
NtRp1247
((lp1248
g51
(g52
(I0
tS'b'
tRp1249
((I1
(L0L
tg55
I00
(lt(Nttba(lp1250
g51
(g59
(I0
tS'b'
tRp1251
(I1
(L0L
tg55
I00
(ltba(lp1252
g1249
atbsg128
S'0'
sbatba(lp1253
g1239
atbsg128
g1231
sbatba(lp1254
g1229
atbsg128
g1221
sbatba(lp1255
g1219
atbsg128
g1211
sbatba(lp1256
g1209
atbsg128
g1192
sbag1
(g44
g3
NtRp1257
(dp1258
g47
g1
(g48
g3
NtRp1259
((lp1260
g51
(g52
(I0
tS'b'
tRp1261
((I1
(L0L
tg55
I00
(lt(Nttba(lp1262
g51
(g59
(I0
tS'b'
tRp1263
(I1
(L0L
tg55
I00
(ltba(lp1264
g1261
atbsg128
S']'
sbatba(lp1265
g1189
atbsg128
g1181
sbatba(lp1266
g1179
atbsg128
g1171
sbatba(lp1267
g1169
atbsg128
S'Expr'
p1268
sbag1
(g44
g3
NtRp1269
(dp1270
g47
g1
(g48
g3
NtRp1271
((lp1272
g51
(g52
(I0
tS'b'
tRp1273
((I1
(L0L
tg55
I00
(lt(Nttba(lp1274
g51
(g59
(I0
tS'b'
tRp1275
(I1
(L0L
tg55
I00
(ltba(lp1276
g1273
atbsg128
S'*'
sbag1
(g44
g3
NtRp1277
(dp1278
g47
g1
(g48
g3
NtRp1279
((lp1280
g51
(g52
(I0
tS'b'
tRp1281
((I1
(L1L
tg55
I00
(lp1282
S'Val'
p1283
at(Nttba(lp1284
g51
(g59
(I0
tS'b'
tRp1285
(I1
(L1L
tg55
I00
(lp1286
g1
(g44
g3
NtRp1287
(dp1288
g47
g1
(g48
g3
NtRp1289
((lp1290
g51
(g52
(I0
tS'b'
tRp1291
((I1
(L1L
tg55
I00
(lp1292
S'Number'
p1293
at(Nttba(lp1294
g51
(g59
(I0
tS'b'
tRp1295
(I1
(L1L
tg55
I00
(lp1296
g1
(g44
g3
NtRp1297
(dp1298
g47
g1
(g48
g3
NtRp1299
((lp1300
g51
(g52
(I0
tS'b'
tRp1301
((I1
(L1L
tg55
I00
(lp1302
S'_10_'
p1303
at(Nttba(lp1304
g51
(g59
(I0
tS'b'
tRp1305
(I1
(L1L
tg55
I00
(lp1306
g1
(g44
g3
NtRp1307
(dp1308
g47
g1
(g48
g3
NtRp1309
((lp1310
g51
(g52
(I0
tS'b'
tRp1311
((I1
(L0L
tg55
I00
(lt(Nttba(lp1312
g51
(g59
(I0
tS'b'
tRp1313
(I1
(L0L
tg55
I00
(ltba(lp1314
g1311
atbsg128
S'10'
p1315
sbatba(lp1316
g1301
atbsg128
g1293
sbatba(lp1317
g1291
atbsg128
g1283
sbatba(lp1318
g1281
atbsg128
S'Expr'
p1319
sbatba(lp1320
g1157
atbsg128
g1149
sbatba(lp1321
g1147
atbsg128
g1090
sbatba(lp1322
g1086
atbsg128
g1078
sbatba(lp1323
g1076
atbsg128
g1067
sbag1
(g44
g3
NtRp1324
(dp1325
g47
g1
(g48
g3
NtRp1326
((lp1327
g51
(g52
(I0
tS'b'
tRp1328
((I1
(L0L
tg55
I00
(lt(Nttba(lp1329
g51
(g59
(I0
tS'b'
tRp1330
(I1
(L0L
tg55
I00
(ltba(lp1331
g1328
atbsg128
S';'
sbatba(lp1332
g1065
atbsg128
g1057
sbatba(lp1333
g1055
atbsg128
S'Stmt'
p1334
sbag1
(g44
g3
NtRp1335
(dp1336
g47
g1
(g48
g3
NtRp1337
((lp1338
g51
(g52
(I0
tS'b'
tRp1339
((I1
(L1L
tg55
I00
(lp1340
S'Block_stmt'
p1341
at(Nttba(lp1342
g51
(g59
(I0
tS'b'
tRp1343
(I1
(L1L
tg55
I00
(lp1344
g1
(g44
g3
NtRp1345
(dp1346
g47
g1
(g48
g3
NtRp1347
((lp1348
g51
(g52
(I0
tS'b'
tRp1349
((I1
(L2L
tg55
I00
(lp1350
S'Block_head'
p1351
aS'Block'
p1352
at(Nttba(lp1353
g51
(g59
(I0
tS'b'
tRp1354
(I1
(L2L
tg55
I00
(lp1355
g1
(g44
g3
NtRp1356
(dp1357
g47
g1
(g48
g3
NtRp1358
((lp1359
g51
(g52
(I0
tS'b'
tRp1360
((I1
(L1L
tg55
I00
(lp1361
S'Loop'
p1362
at(Nttba(lp1363
g51
(g59
(I0
tS'b'
tRp1364
(I1
(L1L
tg55
I00
(lp1365
g1
(g44
g3
NtRp1366
(dp1367
g47
g1
(g48
g3
NtRp1368
((lp1369
g51
(g52
(I0
tS'b'
tRp1370
((I1
(L1L
tg55
I00
(lp1371
S'For'
p1372
at(Nttba(lp1373
g51
(g59
(I0
tS'b'
tRp1374
(I1
(L1L
tg55
I00
(lp1375
g1
(g44
g3
NtRp1376
(dp1377
g47
g1
(g48
g3
NtRp1378
((lp1379
g51
(g52
(I0
tS'b'
tRp1380
((I1
(L4L
tg55
I00
(lp1381
S'_for_'
p1382
aS'Varlist'
p1383
aS'_in_'
p1384
aS'Exprlist'
p1385
at(Nttba(lp1386
g51
(g59
(I0
tS'b'
tRp1387
(I1
(L4L
tg55
I00
(lp1388
g1
(g44
g3
NtRp1389
(dp1390
g47
g1
(g48
g3
NtRp1391
((lp1392
g51
(g52
(I0
tS'b'
tRp1393
((I1
(L0L
tg55
I00
(lt(Nttba(lp1394
g51
(g59
(I0
tS'b'
tRp1395
(I1
(L0L
tg55
I00
(ltba(lp1396
g1393
atbsg128
S'for'
p1397
sbag1
(g44
g3
NtRp1398
(dp1399
g47
g1
(g48
g3
NtRp1400
((lp1401
g51
(g52
(I0
tS'b'
tRp1402
((I1
(L1L
tg55
I00
(lp1403
S'Vartuple'
p1404
at(Nttba(lp1405
g51
(g59
(I0
tS'b'
tRp1406
(I1
(L1L
tg55
I00
(lp1407
g1
(g44
g3
NtRp1408
(dp1409
g47
g1
(g48
g3
NtRp1410
((lp1411
g51
(g52
(I0
tS'b'
tRp1412
((I1
(L1L
tg55
I00
(lp1413
S'Var'
p1414
at(Nttba(lp1415
g51
(g59
(I0
tS'b'
tRp1416
(I1
(L1L
tg55
I00
(lp1417
g1
(g44
g3
NtRp1418
(dp1419
g47
g1
(g48
g3
NtRp1420
((lp1421
g51
(g52
(I0
tS'b'
tRp1422
((I1
(L1L
tg55
I00
(lp1423
S'_i_'
p1424
at(Nttba(lp1425
g51
(g59
(I0
tS'b'
tRp1426
(I1
(L1L
tg55
I00
(lp1427
g1
(g44
g3
NtRp1428
(dp1429
g47
g1
(g48
g3
NtRp1430
((lp1431
g51
(g52
(I0
tS'b'
tRp1432
((I1
(L0L
tg55
I00
(lt(Nttba(lp1433
g51
(g59
(I0
tS'b'
tRp1434
(I1
(L0L
tg55
I00
(ltba(lp1435
g1432
atbsg128
S'i'
sbatba(lp1436
g1422
atbsg128
g1414
sbatba(lp1437
g1412
atbsg128
g1404
sbatba(lp1438
g1402
atbsg128
g1383
sbag1
(g44
g3
NtRp1439
(dp1440
g47
g1
(g48
g3
NtRp1441
((lp1442
g51
(g52
(I0
tS'b'
tRp1443
((I1
(L0L
tg55
I00
(lt(Nttba(lp1444
g51
(g59
(I0
tS'b'
tRp1445
(I1
(L0L
tg55
I00
(ltba(lp1446
g1443
atbsg128
S'in'
p1447
sbag1
(g44
g3
NtRp1448
(dp1449
g47
g1
(g48
g3
NtRp1450
((lp1451
g51
(g52
(I0
tS'b'
tRp1452
((I1
(L1L
tg55
I00
(lp1453
S'Expr'
p1454
at(Nttba(lp1455
g51
(g59
(I0
tS'b'
tRp1456
(I1
(L1L
tg55
I00
(lp1457
g1
(g44
g3
NtRp1458
(dp1459
g47
g1
(g48
g3
NtRp1460
((lp1461
g51
(g52
(I0
tS'b'
tRp1462
((I1
(L4L
tg55
I00
(lp1463
S'Expr'
p1464
aS'_(_'
p1465
aS'Arglist'
p1466
aS'_)_'
p1467
at(Nttba(lp1468
g51
(g59
(I0
tS'b'
tRp1469
(I1
(L4L
tg55
I00
(lp1470
g1
(g44
g3
NtRp1471
(dp1472
g47
g1
(g48
g3
NtRp1473
((lp1474
g51
(g52
(I0
tS'b'
tRp1475
((I1
(L1L
tg55
I00
(lp1476
S'Val'
p1477
at(Nttba(lp1478
g51
(g59
(I0
tS'b'
tRp1479
(I1
(L1L
tg55
I00
(lp1480
g1
(g44
g3
NtRp1481
(dp1482
g47
g1
(g48
g3
NtRp1483
((lp1484
g51
(g52
(I0
tS'b'
tRp1485
((I1
(L1L
tg55
I00
(lp1486
S'Var'
p1487
at(Nttba(lp1488
g51
(g59
(I0
tS'b'
tRp1489
(I1
(L1L
tg55
I00
(lp1490
g1
(g44
g3
NtRp1491
(dp1492
g47
g1
(g48
g3
NtRp1493
((lp1494
g51
(g52
(I0
tS'b'
tRp1495
((I1
(L1L
tg55
I00
(lp1496
S'_range_'
p1497
at(Nttba(lp1498
g51
(g59
(I0
tS'b'
tRp1499
(I1
(L1L
tg55
I00
(lp1500
g1
(g44
g3
NtRp1501
(dp1502
g47
g1
(g48
g3
NtRp1503
((lp1504
g51
(g52
(I0
tS'b'
tRp1505
((I1
(L0L
tg55
I00
(lt(Nttba(lp1506
g51
(g59
(I0
tS'b'
tRp1507
(I1
(L0L
tg55
I00
(ltba(lp1508
g1505
atbsg128
S'range'
p1509
sbatba(lp1510
g1495
atbsg128
g1487
sbatba(lp1511
g1485
atbsg128
g1477
sbatba(lp1512
g1475
atbsg128
g1464
sbag1
(g44
g3
NtRp1513
(dp1514
g47
g1
(g48
g3
NtRp1515
((lp1516
g51
(g52
(I0
tS'b'
tRp1517
((I1
(L0L
tg55
I00
(lt(Nttba(lp1518
g51
(g59
(I0
tS'b'
tRp1519
(I1
(L0L
tg55
I00
(ltba(lp1520
g1517
atbsg128
S'('
sbag1
(g44
g3
NtRp1521
(dp1522
g47
g1
(g48
g3
NtRp1523
((lp1524
g51
(g52
(I0
tS'b'
tRp1525
((I1
(L1L
tg55
I00
(lp1526
S'Pos_arglist'
p1527
at(Nttba(lp1528
g51
(g59
(I0
tS'b'
tRp1529
(I1
(L1L
tg55
I00
(lp1530
g1
(g44
g3
NtRp1531
(dp1532
g47
g1
(g48
g3
NtRp1533
((lp1534
g51
(g52
(I0
tS'b'
tRp1535
((I1
(L1L
tg55
I00
(lp1536
S'Pos_arg'
p1537
at(Nttba(lp1538
g51
(g59
(I0
tS'b'
tRp1539
(I1
(L1L
tg55
I00
(lp1540
g1
(g44
g3
NtRp1541
(dp1542
g47
g1
(g48
g3
NtRp1543
((lp1544
g51
(g52
(I0
tS'b'
tRp1545
((I1
(L1L
tg55
I00
(lp1546
S'Expr'
p1547
at(Nttba(lp1548
g51
(g59
(I0
tS'b'
tRp1549
(I1
(L1L
tg55
I00
(lp1550
g1
(g44
g3
NtRp1551
(dp1552
g47
g1
(g48
g3
NtRp1553
((lp1554
g51
(g52
(I0
tS'b'
tRp1555
((I1
(L4L
tg55
I00
(lp1556
S'Expr'
p1557
aS'_(_'
p1558
aS'Arglist'
p1559
aS'_)_'
p1560
at(Nttba(lp1561
g51
(g59
(I0
tS'b'
tRp1562
(I1
(L4L
tg55
I00
(lp1563
g1
(g44
g3
NtRp1564
(dp1565
g47
g1
(g48
g3
NtRp1566
((lp1567
g51
(g52
(I0
tS'b'
tRp1568
((I1
(L1L
tg55
I00
(lp1569
S'Val'
p1570
at(Nttba(lp1571
g51
(g59
(I0
tS'b'
tRp1572
(I1
(L1L
tg55
I00
(lp1573
g1
(g44
g3
NtRp1574
(dp1575
g47
g1
(g48
g3
NtRp1576
((lp1577
g51
(g52
(I0
tS'b'
tRp1578
((I1
(L1L
tg55
I00
(lp1579
S'Var'
p1580
at(Nttba(lp1581
g51
(g59
(I0
tS'b'
tRp1582
(I1
(L1L
tg55
I00
(lp1583
g1
(g44
g3
NtRp1584
(dp1585
g47
g1
(g48
g3
NtRp1586
((lp1587
g51
(g52
(I0
tS'b'
tRp1588
((I1
(L1L
tg55
I00
(lp1589
S'_len_'
p1590
at(Nttba(lp1591
g51
(g59
(I0
tS'b'
tRp1592
(I1
(L1L
tg55
I00
(lp1593
g1
(g44
g3
NtRp1594
(dp1595
g47
g1
(g48
g3
NtRp1596
((lp1597
g51
(g52
(I0
tS'b'
tRp1598
((I1
(L0L
tg55
I00
(lt(Nttba(lp1599
g51
(g59
(I0
tS'b'
tRp1600
(I1
(L0L
tg55
I00
(ltba(lp1601
g1598
atbsg128
S'len'
p1602
sbatba(lp1603
g1588
atbsg128
g1580
sbatba(lp1604
g1578
atbsg128
g1570
sbatba(lp1605
g1568
atbsg128
g1557
sbag1
(g44
g3
NtRp1606
(dp1607
g47
g1
(g48
g3
NtRp1608
((lp1609
g51
(g52
(I0
tS'b'
tRp1610
((I1
(L0L
tg55
I00
(lt(Nttba(lp1611
g51
(g59
(I0
tS'b'
tRp1612
(I1
(L0L
tg55
I00
(ltba(lp1613
g1610
atbsg128
S'('
sbag1
(g44
g3
NtRp1614
(dp1615
g47
g1
(g48
g3
NtRp1616
((lp1617
g51
(g52
(I0
tS'b'
tRp1618
((I1
(L1L
tg55
I00
(lp1619
S'Pos_arglist'
p1620
at(Nttba(lp1621
g51
(g59
(I0
tS'b'
tRp1622
(I1
(L1L
tg55
I00
(lp1623
g1
(g44
g3
NtRp1624
(dp1625
g47
g1
(g48
g3
NtRp1626
((lp1627
g51
(g52
(I0
tS'b'
tRp1628
((I1
(L1L
tg55
I00
(lp1629
S'Pos_arg'
p1630
at(Nttba(lp1631
g51
(g59
(I0
tS'b'
tRp1632
(I1
(L1L
tg55
I00
(lp1633
g1
(g44
g3
NtRp1634
(dp1635
g47
g1
(g48
g3
NtRp1636
((lp1637
g51
(g52
(I0
tS'b'
tRp1638
((I1
(L1L
tg55
I00
(lp1639
S'Expr'
p1640
at(Nttba(lp1641
g51
(g59
(I0
tS'b'
tRp1642
(I1
(L1L
tg55
I00
(lp1643
g1
(g44
g3
NtRp1644
(dp1645
g47
g1
(g48
g3
NtRp1646
((lp1647
g51
(g52
(I0
tS'b'
tRp1648
((I1
(L1L
tg55
I00
(lp1649
S'Val'
p1650
at(Nttba(lp1651
g51
(g59
(I0
tS'b'
tRp1652
(I1
(L1L
tg55
I00
(lp1653
g1
(g44
g3
NtRp1654
(dp1655
g47
g1
(g48
g3
NtRp1656
((lp1657
g51
(g52
(I0
tS'b'
tRp1658
((I1
(L1L
tg55
I00
(lp1659
S'Var'
p1660
at(Nttba(lp1661
g51
(g59
(I0
tS'b'
tRp1662
(I1
(L1L
tg55
I00
(lp1663
g1
(g44
g3
NtRp1664
(dp1665
g47
g1
(g48
g3
NtRp1666
((lp1667
g51
(g52
(I0
tS'b'
tRp1668
((I1
(L1L
tg55
I00
(lp1669
S'_L_'
p1670
at(Nttba(lp1671
g51
(g59
(I0
tS'b'
tRp1672
(I1
(L1L
tg55
I00
(lp1673
g1
(g44
g3
NtRp1674
(dp1675
g47
g1
(g48
g3
NtRp1676
((lp1677
g51
(g52
(I0
tS'b'
tRp1678
((I1
(L0L
tg55
I00
(lt(Nttba(lp1679
g51
(g59
(I0
tS'b'
tRp1680
(I1
(L0L
tg55
I00
(ltba(lp1681
g1678
atbsg128
S'L'
sbatba(lp1682
g1668
atbsg128
g1660
sbatba(lp1683
g1658
atbsg128
g1650
sbatba(lp1684
g1648
atbsg128
g1640
sbatba(lp1685
g1638
atbsg128
g1630
sbatba(lp1686
g1628
atbsg128
g1620
sbatba(lp1687
g1618
atbsg128
g1559
sbag1
(g44
g3
NtRp1688
(dp1689
g47
g1
(g48
g3
NtRp1690
((lp1691
g51
(g52
(I0
tS'b'
tRp1692
((I1
(L0L
tg55
I00
(lt(Nttba(lp1693
g51
(g59
(I0
tS'b'
tRp1694
(I1
(L0L
tg55
I00
(ltba(lp1695
g1692
atbsg128
S')'
sbatba(lp1696
g1555
atbsg128
g1547
sbatba(lp1697
g1545
atbsg128
g1537
sbatba(lp1698
g1535
atbsg128
g1527
sbatba(lp1699
g1525
atbsg128
g1466
sbag1
(g44
g3
NtRp1700
(dp1701
g47
g1
(g48
g3
NtRp1702
((lp1703
g51
(g52
(I0
tS'b'
tRp1704
((I1
(L0L
tg55
I00
(lt(Nttba(lp1705
g51
(g59
(I0
tS'b'
tRp1706
(I1
(L0L
tg55
I00
(ltba(lp1707
g1704
atbsg128
S')'
sbatba(lp1708
g1462
atbsg128
g1454
sbatba(lp1709
g1452
atbsg128
g1385
sbatba(lp1710
g1380
atbsg128
g1372
sbatba(lp1711
g1370
atbsg128
g1362
sbatba(lp1712
g1360
atbsg128
g1351
sbag1
(g44
g3
NtRp1713
(dp1714
g47
g1
(g48
g3
NtRp1715
((lp1716
g51
(g52
(I0
tS'b'
tRp1717
((I1
(L3L
tg55
I00
(lp1718
S'_:$blockbegin_'
p1719
aS'Prog'
p1720
aS'_$blockend_'
p1721
at(Nttba(lp1722
g51
(g59
(I0
tS'b'
tRp1723
(I1
(L3L
tg55
I00
(lp1724
g1
(g44
g3
NtRp1725
(dp1726
g47
g1
(g48
g3
NtRp1727
((lp1728
g51
(g52
(I0
tS'b'
tRp1729
((I1
(L0L
tg55
I00
(lt(Nttba(lp1730
g51
(g59
(I0
tS'b'
tRp1731
(I1
(L0L
tg55
I00
(ltba(lp1732
g1729
atbsg128
S':$blockbegin'
p1733
sbag1
(g44
g3
NtRp1734
(dp1735
g47
g1
(g48
g3
NtRp1736
((lp1737
g51
(g52
(I0
tS'b'
tRp1738
((I1
(L1L
tg55
I00
(lp1739
S'Stmt'
p1740
at(Nttba(lp1741
g51
(g59
(I0
tS'b'
tRp1742
(I1
(L1L
tg55
I00
(lp1743
g1
(g44
g3
NtRp1744
(dp1745
g47
g1
(g48
g3
NtRp1746
((lp1747
g51
(g52
(I0
tS'b'
tRp1748
((I1
(L1L
tg55
I00
(lp1749
S'Block_stmt'
p1750
at(Nttba(lp1751
g51
(g59
(I0
tS'b'
tRp1752
(I1
(L1L
tg55
I00
(lp1753
g1
(g44
g3
NtRp1754
(dp1755
g47
g1
(g48
g3
NtRp1756
((lp1757
g51
(g52
(I0
tS'b'
tRp1758
((I1
(L1L
tg55
I00
(lp1759
S'Ifelse'
p1760
at(Nttba(lp1761
g51
(g59
(I0
tS'b'
tRp1762
(I1
(L1L
tg55
I00
(lp1763
g1
(g44
g3
NtRp1764
(dp1765
g47
g1
(g48
g3
NtRp1766
((lp1767
g51
(g52
(I0
tS'b'
tRp1768
((I1
(L4L
tg55
I00
(lp1769
S'If'
p1770
aS'Block1'
p1771
aS'Else'
p1772
aS'Block2'
p1773
at(Nttba(lp1774
g51
(g59
(I0
tS'b'
tRp1775
(I1
(L4L
tg55
I00
(lp1776
g1
(g44
g3
NtRp1777
(dp1778
g47
g1
(g48
g3
NtRp1779
((lp1780
g51
(g52
(I0
tS'b'
tRp1781
((I1
(L2L
tg55
I00
(lp1782
S'_if_'
p1783
aS'Expr'
p1784
at(Nttba(lp1785
g51
(g59
(I0
tS'b'
tRp1786
(I1
(L2L
tg55
I00
(lp1787
g1
(g44
g3
NtRp1788
(dp1789
g47
g1
(g48
g3
NtRp1790
((lp1791
g51
(g52
(I0
tS'b'
tRp1792
((I1
(L0L
tg55
I00
(lt(Nttba(lp1793
g51
(g59
(I0
tS'b'
tRp1794
(I1
(L0L
tg55
I00
(ltba(lp1795
g1792
atbsg128
S'if'
p1796
sbag1
(g44
g3
NtRp1797
(dp1798
g47
g1
(g48
g3
NtRp1799
((lp1800
g51
(g52
(I0
tS'b'
tRp1801
((I1
(L3L
tg55
I00
(lp1802
S'Expr1'
p1803
aS'Op_cmp'
p1804
aS'Expr2'
p1805
at(Nttba(lp1806
g51
(g59
(I0
tS'b'
tRp1807
(I1
(L3L
tg55
I00
(lp1808
g1
(g44
g3
NtRp1809
(dp1810
g47
g1
(g48
g3
NtRp1811
((lp1812
g51
(g52
(I0
tS'b'
tRp1813
((I1
(L1L
tg55
I00
(lp1814
S'Val'
p1815
at(Nttba(lp1816
g51
(g59
(I0
tS'b'
tRp1817
(I1
(L1L
tg55
I00
(lp1818
g1
(g44
g3
NtRp1819
(dp1820
g47
g1
(g48
g3
NtRp1821
((lp1822
g51
(g52
(I0
tS'b'
tRp1823
((I1
(L1L
tg55
I00
(lp1824
S'Var'
p1825
at(Nttba(lp1826
g51
(g59
(I0
tS'b'
tRp1827
(I1
(L1L
tg55
I00
(lp1828
g1
(g44
g3
NtRp1829
(dp1830
g47
g1
(g48
g3
NtRp1831
((lp1832
g51
(g52
(I0
tS'b'
tRp1833
((I1
(L1L
tg55
I00
(lp1834
S'_i_'
p1835
at(Nttba(lp1836
g51
(g59
(I0
tS'b'
tRp1837
(I1
(L1L
tg55
I00
(lp1838
g1
(g44
g3
NtRp1839
(dp1840
g47
g1
(g48
g3
NtRp1841
((lp1842
g51
(g52
(I0
tS'b'
tRp1843
((I1
(L0L
tg55
I00
(lt(Nttba(lp1844
g51
(g59
(I0
tS'b'
tRp1845
(I1
(L0L
tg55
I00
(ltba(lp1846
g1843
atbsg128
S'i'
sbatba(lp1847
g1833
atbsg128
g1825
sbatba(lp1848
g1823
atbsg128
g1815
sbatba(lp1849
g1813
atbsg128
S'Expr'
p1850
sbag1
(g44
g3
NtRp1851
(dp1852
g47
g1
(g48
g3
NtRp1853
((lp1854
g51
(g52
(I0
tS'b'
tRp1855
((I1
(L1L
tg55
I00
(lp1856
S'_>_'
p1857
at(Nttba(lp1858
g51
(g59
(I0
tS'b'
tRp1859
(I1
(L1L
tg55
I00
(lp1860
g1
(g44
g3
NtRp1861
(dp1862
g47
g1
(g48
g3
NtRp1863
((lp1864
g51
(g52
(I0
tS'b'
tRp1865
((I1
(L0L
tg55
I00
(lt(Nttba(lp1866
g51
(g59
(I0
tS'b'
tRp1867
(I1
(L0L
tg55
I00
(ltba(lp1868
g1865
atbsg128
S'>'
sbatba(lp1869
g1855
atbsg128
g1804
sbag1
(g44
g3
NtRp1870
(dp1871
g47
g1
(g48
g3
NtRp1872
((lp1873
g51
(g52
(I0
tS'b'
tRp1874
((I1
(L1L
tg55
I00
(lp1875
S'Val'
p1876
at(Nttba(lp1877
g51
(g59
(I0
tS'b'
tRp1878
(I1
(L1L
tg55
I00
(lp1879
g1
(g44
g3
NtRp1880
(dp1881
g47
g1
(g48
g3
NtRp1882
((lp1883
g51
(g52
(I0
tS'b'
tRp1884
((I1
(L1L
tg55
I00
(lp1885
S'Number'
p1886
at(Nttba(lp1887
g51
(g59
(I0
tS'b'
tRp1888
(I1
(L1L
tg55
I00
(lp1889
g1
(g44
g3
NtRp1890
(dp1891
g47
g1
(g48
g3
NtRp1892
((lp1893
g51
(g52
(I0
tS'b'
tRp1894
((I1
(L1L
tg55
I00
(lp1895
S'_3_'
p1896
at(Nttba(lp1897
g51
(g59
(I0
tS'b'
tRp1898
(I1
(L1L
tg55
I00
(lp1899
g1
(g44
g3
NtRp1900
(dp1901
g47
g1
(g48
g3
NtRp1902
((lp1903
g51
(g52
(I0
tS'b'
tRp1904
((I1
(L0L
tg55
I00
(lt(Nttba(lp1905
g51
(g59
(I0
tS'b'
tRp1906
(I1
(L0L
tg55
I00
(ltba(lp1907
g1904
atbsg128
S'3'
sbatba(lp1908
g1894
atbsg128
g1886
sbatba(lp1909
g1884
atbsg128
g1876
sbatba(lp1910
g1874
atbsg128
S'Expr'
p1911
sbatba(lp1912
g1801
atbsg128
g1784
sbatba(lp1913
g1781
atbsg128
g1770
sbag1
(g44
g3
NtRp1914
(dp1915
g47
g1
(g48
g3
NtRp1916
((lp1917
g51
(g52
(I0
tS'b'
tRp1918
((I1
(L3L
tg55
I00
(lp1919
S'_:$blockbegin_'
p1920
aS'Prog'
p1921
aS'_$blockend_'
p1922
at(Nttba(lp1923
g51
(g59
(I0
tS'b'
tRp1924
(I1
(L3L
tg55
I00
(lp1925
g1
(g44
g3
NtRp1926
(dp1927
g47
g1
(g48
g3
NtRp1928
((lp1929
g51
(g52
(I0
tS'b'
tRp1930
((I1
(L0L
tg55
I00
(lt(Nttba(lp1931
g51
(g59
(I0
tS'b'
tRp1932
(I1
(L0L
tg55
I00
(ltba(lp1933
g1930
atbsg128
S':$blockbegin'
p1934
sbag1
(g44
g3
NtRp1935
(dp1936
g47
g1
(g48
g3
NtRp1937
((lp1938
g51
(g52
(I0
tS'b'
tRp1939
((I1
(L1L
tg55
I00
(lp1940
S'Stmt'
p1941
at(Nttba(lp1942
g51
(g59
(I0
tS'b'
tRp1943
(I1
(L1L
tg55
I00
(lp1944
g1
(g44
g3
NtRp1945
(dp1946
g47
g1
(g48
g3
NtRp1947
((lp1948
g51
(g52
(I0
tS'b'
tRp1949
((I1
(L1L
tg55
I00
(lp1950
S'Single_stmt'
p1951
at(Nttba(lp1952
g51
(g59
(I0
tS'b'
tRp1953
(I1
(L1L
tg55
I00
(lp1954
g1
(g44
g3
NtRp1955
(dp1956
g47
g1
(g48
g3
NtRp1957
((lp1958
g51
(g52
(I0
tS'b'
tRp1959
((I1
(L2L
tg55
I00
(lp1960
S'Assign_stmt'
p1961
aS'_;_'
p1962
at(Nttba(lp1963
g51
(g59
(I0
tS'b'
tRp1964
(I1
(L2L
tg55
I00
(lp1965
g1
(g44
g3
NtRp1966
(dp1967
g47
g1
(g48
g3
NtRp1968
((lp1969
g51
(g52
(I0
tS'b'
tRp1970
((I1
(L1L
tg55
I00
(lp1971
S'Assign'
p1972
at(Nttba(lp1973
g51
(g59
(I0
tS'b'
tRp1974
(I1
(L1L
tg55
I00
(lp1975
g1
(g44
g3
NtRp1976
(dp1977
g47
g1
(g48
g3
NtRp1978
((lp1979
g51
(g52
(I0
tS'b'
tRp1980
((I1
(L3L
tg55
I00
(lp1981
S'Varlist'
p1982
aS'_=_'
p1983
aS'Exprlist'
p1984
at(Nttba(lp1985
g51
(g59
(I0
tS'b'
tRp1986
(I1
(L3L
tg55
I00
(lp1987
g1
(g44
g3
NtRp1988
(dp1989
g47
g1
(g48
g3
NtRp1990
((lp1991
g51
(g52
(I0
tS'b'
tRp1992
((I1
(L1L
tg55
I00
(lp1993
S'Vartuple'
p1994
at(Nttba(lp1995
g51
(g59
(I0
tS'b'
tRp1996
(I1
(L1L
tg55
I00
(lp1997
g1
(g44
g3
NtRp1998
(dp1999
g47
g1
(g48
g3
NtRp2000
((lp2001
g51
(g52
(I0
tS'b'
tRp2002
((I1
(L1L
tg55
I00
(lp2003
S'Var'
p2004
at(Nttba(lp2005
g51
(g59
(I0
tS'b'
tRp2006
(I1
(L1L
tg55
I00
(lp2007
g1
(g44
g3
NtRp2008
(dp2009
g47
g1
(g48
g3
NtRp2010
((lp2011
g51
(g52
(I0
tS'b'
tRp2012
((I1
(L4L
tg55
I00
(lp2013
S'Var'
p2014
aS'_[_'
p2015
aS'Slice'
p2016
aS'_]_'
p2017
at(Nttba(lp2018
g51
(g59
(I0
tS'b'
tRp2019
(I1
(L4L
tg55
I00
(lp2020
g1
(g44
g3
NtRp2021
(dp2022
g47
g1
(g48
g3
NtRp2023
((lp2024
g51
(g52
(I0
tS'b'
tRp2025
((I1
(L1L
tg55
I00
(lp2026
S'_L_'
p2027
at(Nttba(lp2028
g51
(g59
(I0
tS'b'
tRp2029
(I1
(L1L
tg55
I00
(lp2030
g1
(g44
g3
NtRp2031
(dp2032
g47
g1
(g48
g3
NtRp2033
((lp2034
g51
(g52
(I0
tS'b'
tRp2035
((I1
(L0L
tg55
I00
(lt(Nttba(lp2036
g51
(g59
(I0
tS'b'
tRp2037
(I1
(L0L
tg55
I00
(ltba(lp2038
g2035
atbsg128
S'L'
sbatba(lp2039
g2025
atbsg128
g2014
sbag1
(g44
g3
NtRp2040
(dp2041
g47
g1
(g48
g3
NtRp2042
((lp2043
g51
(g52
(I0
tS'b'
tRp2044
((I1
(L0L
tg55
I00
(lt(Nttba(lp2045
g51
(g59
(I0
tS'b'
tRp2046
(I1
(L0L
tg55
I00
(ltba(lp2047
g2044
atbsg128
S'['
sbag1
(g44
g3
NtRp2048
(dp2049
g47
g1
(g48
g3
NtRp2050
((lp2051
g51
(g52
(I0
tS'b'
tRp2052
((I1
(L1L
tg55
I00
(lp2053
S'Expr'
p2054
at(Nttba(lp2055
g51
(g59
(I0
tS'b'
tRp2056
(I1
(L1L
tg55
I00
(lp2057
g1
(g44
g3
NtRp2058
(dp2059
g47
g1
(g48
g3
NtRp2060
((lp2061
g51
(g52
(I0
tS'b'
tRp2062
((I1
(L1L
tg55
I00
(lp2063
S'Val'
p2064
at(Nttba(lp2065
g51
(g59
(I0
tS'b'
tRp2066
(I1
(L1L
tg55
I00
(lp2067
g1
(g44
g3
NtRp2068
(dp2069
g47
g1
(g48
g3
NtRp2070
((lp2071
g51
(g52
(I0
tS'b'
tRp2072
((I1
(L1L
tg55
I00
(lp2073
S'Var'
p2074
at(Nttba(lp2075
g51
(g59
(I0
tS'b'
tRp2076
(I1
(L1L
tg55
I00
(lp2077
g1
(g44
g3
NtRp2078
(dp2079
g47
g1
(g48
g3
NtRp2080
((lp2081
g51
(g52
(I0
tS'b'
tRp2082
((I1
(L1L
tg55
I00
(lp2083
S'_i_'
p2084
at(Nttba(lp2085
g51
(g59
(I0
tS'b'
tRp2086
(I1
(L1L
tg55
I00
(lp2087
g1
(g44
g3
NtRp2088
(dp2089
g47
g1
(g48
g3
NtRp2090
((lp2091
g51
(g52
(I0
tS'b'
tRp2092
((I1
(L0L
tg55
I00
(lt(Nttba(lp2093
g51
(g59
(I0
tS'b'
tRp2094
(I1
(L0L
tg55
I00
(ltba(lp2095
g2092
atbsg128
S'i'
sbatba(lp2096
g2082
atbsg128
g2074
sbatba(lp2097
g2072
atbsg128
g2064
sbatba(lp2098
g2062
atbsg128
g2054
sbatba(lp2099
g2052
atbsg128
g2016
sbag1
(g44
g3
NtRp2100
(dp2101
g47
g1
(g48
g3
NtRp2102
((lp2103
g51
(g52
(I0
tS'b'
tRp2104
((I1
(L0L
tg55
I00
(lt(Nttba(lp2105
g51
(g59
(I0
tS'b'
tRp2106
(I1
(L0L
tg55
I00
(ltba(lp2107
g2104
atbsg128
S']'
sbatba(lp2108
g2012
atbsg128
g2004
sbatba(lp2109
g2002
atbsg128
g1994
sbatba(lp2110
g1992
atbsg128
g1982
sbag1
(g44
g3
NtRp2111
(dp2112
g47
g1
(g48
g3
NtRp2113
((lp2114
g51
(g52
(I0
tS'b'
tRp2115
((I1
(L0L
tg55
I00
(lt(Nttba(lp2116
g51
(g59
(I0
tS'b'
tRp2117
(I1
(L0L
tg55
I00
(ltba(lp2118
g2115
atbsg128
S'='
sbag1
(g44
g3
NtRp2119
(dp2120
g47
g1
(g48
g3
NtRp2121
((lp2122
g51
(g52
(I0
tS'b'
tRp2123
((I1
(L1L
tg55
I00
(lp2124
S'Expr'
p2125
at(Nttba(lp2126
g51
(g59
(I0
tS'b'
tRp2127
(I1
(L1L
tg55
I00
(lp2128
g1
(g44
g3
NtRp2129
(dp2130
g47
g1
(g48
g3
NtRp2131
((lp2132
g51
(g52
(I0
tS'b'
tRp2133
((I1
(L4L
tg55
I00
(lp2134
S'Expr'
p2135
aS'_(_'
p2136
aS'Arglist'
p2137
aS'_)_'
p2138
at(Nttba(lp2139
g51
(g59
(I0
tS'b'
tRp2140
(I1
(L4L
tg55
I00
(lp2141
g1
(g44
g3
NtRp2142
(dp2143
g47
g1
(g48
g3
NtRp2144
((lp2145
g51
(g52
(I0
tS'b'
tRp2146
((I1
(L1L
tg55
I00
(lp2147
S'Val'
p2148
at(Nttba(lp2149
g51
(g59
(I0
tS'b'
tRp2150
(I1
(L1L
tg55
I00
(lp2151
g1
(g44
g3
NtRp2152
(dp2153
g47
g1
(g48
g3
NtRp2154
((lp2155
g51
(g52
(I0
tS'b'
tRp2156
((I1
(L1L
tg55
I00
(lp2157
S'Var'
p2158
at(Nttba(lp2159
g51
(g59
(I0
tS'b'
tRp2160
(I1
(L1L
tg55
I00
(lp2161
g1
(g44
g3
NtRp2162
(dp2163
g47
g1
(g48
g3
NtRp2164
((lp2165
g51
(g52
(I0
tS'b'
tRp2166
((I1
(L1L
tg55
I00
(lp2167
S'_f_'
p2168
at(Nttba(lp2169
g51
(g59
(I0
tS'b'
tRp2170
(I1
(L1L
tg55
I00
(lp2171
g1
(g44
g3
NtRp2172
(dp2173
g47
g1
(g48
g3
NtRp2174
((lp2175
g51
(g52
(I0
tS'b'
tRp2176
((I1
(L0L
tg55
I00
(lt(Nttba(lp2177
g51
(g59
(I0
tS'b'
tRp2178
(I1
(L0L
tg55
I00
(ltba(lp2179
g2176
atbsg128
S'f'
sbatba(lp2180
g2166
atbsg128
g2158
sbatba(lp2181
g2156
atbsg128
g2148
sbatba(lp2182
g2146
atbsg128
g2135
sbag1
(g44
g3
NtRp2183
(dp2184
g47
g1
(g48
g3
NtRp2185
((lp2186
g51
(g52
(I0
tS'b'
tRp2187
((I1
(L0L
tg55
I00
(lt(Nttba(lp2188
g51
(g59
(I0
tS'b'
tRp2189
(I1
(L0L
tg55
I00
(ltba(lp2190
g2187
atbsg128
S'('
sbag1
(g44
g3
NtRp2191
(dp2192
g47
g1
(g48
g3
NtRp2193
((lp2194
g51
(g52
(I0
tS'b'
tRp2195
((I1
(L1L
tg55
I00
(lp2196
S'Pos_arglist'
p2197
at(Nttba(lp2198
g51
(g59
(I0
tS'b'
tRp2199
(I1
(L1L
tg55
I00
(lp2200
g1
(g44
g3
NtRp2201
(dp2202
g47
g1
(g48
g3
NtRp2203
((lp2204
g51
(g52
(I0
tS'b'
tRp2205
((I1
(L1L
tg55
I00
(lp2206
S'Pos_arg'
p2207
at(Nttba(lp2208
g51
(g59
(I0
tS'b'
tRp2209
(I1
(L1L
tg55
I00
(lp2210
g1
(g44
g3
NtRp2211
(dp2212
g47
g1
(g48
g3
NtRp2213
((lp2214
g51
(g52
(I0
tS'b'
tRp2215
((I1
(L1L
tg55
I00
(lp2216
S'Expr'
p2217
at(Nttba(lp2218
g51
(g59
(I0
tS'b'
tRp2219
(I1
(L1L
tg55
I00
(lp2220
g1
(g44
g3
NtRp2221
(dp2222
g47
g1
(g48
g3
NtRp2223
((lp2224
g51
(g52
(I0
tS'b'
tRp2225
((I1
(L3L
tg55
I00
(lp2226
S'Expr1'
p2227
aS'_+_'
p2228
aS'Expr2'
p2229
at(Nttba(lp2230
g51
(g59
(I0
tS'b'
tRp2231
(I1
(L3L
tg55
I00
(lp2232
g1
(g44
g3
NtRp2233
(dp2234
g47
g1
(g48
g3
NtRp2235
((lp2236
g51
(g52
(I0
tS'b'
tRp2237
((I1
(L1L
tg55
I00
(lp2238
S'Val'
p2239
at(Nttba(lp2240
g51
(g59
(I0
tS'b'
tRp2241
(I1
(L1L
tg55
I00
(lp2242
g1
(g44
g3
NtRp2243
(dp2244
g47
g1
(g48
g3
NtRp2245
((lp2246
g51
(g52
(I0
tS'b'
tRp2247
((I1
(L1L
tg55
I00
(lp2248
S'Var'
p2249
at(Nttba(lp2250
g51
(g59
(I0
tS'b'
tRp2251
(I1
(L1L
tg55
I00
(lp2252
g1
(g44
g3
NtRp2253
(dp2254
g47
g1
(g48
g3
NtRp2255
((lp2256
g51
(g52
(I0
tS'b'
tRp2257
((I1
(L1L
tg55
I00
(lp2258
S'_i_'
p2259
at(Nttba(lp2260
g51
(g59
(I0
tS'b'
tRp2261
(I1
(L1L
tg55
I00
(lp2262
g1
(g44
g3
NtRp2263
(dp2264
g47
g1
(g48
g3
NtRp2265
((lp2266
g51
(g52
(I0
tS'b'
tRp2267
((I1
(L0L
tg55
I00
(lt(Nttba(lp2268
g51
(g59
(I0
tS'b'
tRp2269
(I1
(L0L
tg55
I00
(ltba(lp2270
g2267
atbsg128
S'i'
sbatba(lp2271
g2257
atbsg128
g2249
sbatba(lp2272
g2247
atbsg128
g2239
sbatba(lp2273
g2237
atbsg128
S'Expr'
p2274
sbag1
(g44
g3
NtRp2275
(dp2276
g47
g1
(g48
g3
NtRp2277
((lp2278
g51
(g52
(I0
tS'b'
tRp2279
((I1
(L0L
tg55
I00
(lt(Nttba(lp2280
g51
(g59
(I0
tS'b'
tRp2281
(I1
(L0L
tg55
I00
(ltba(lp2282
g2279
atbsg128
S'+'
sbag1
(g44
g3
NtRp2283
(dp2284
g47
g1
(g48
g3
NtRp2285
((lp2286
g51
(g52
(I0
tS'b'
tRp2287
((I1
(L1L
tg55
I00
(lp2288
S'Val'
p2289
at(Nttba(lp2290
g51
(g59
(I0
tS'b'
tRp2291
(I1
(L1L
tg55
I00
(lp2292
g1
(g44
g3
NtRp2293
(dp2294
g47
g1
(g48
g3
NtRp2295
((lp2296
g51
(g52
(I0
tS'b'
tRp2297
((I1
(L1L
tg55
I00
(lp2298
S'Number'
p2299
at(Nttba(lp2300
g51
(g59
(I0
tS'b'
tRp2301
(I1
(L1L
tg55
I00
(lp2302
g1
(g44
g3
NtRp2303
(dp2304
g47
g1
(g48
g3
NtRp2305
((lp2306
g51
(g52
(I0
tS'b'
tRp2307
((I1
(L1L
tg55
I00
(lp2308
S'_1_'
p2309
at(Nttba(lp2310
g51
(g59
(I0
tS'b'
tRp2311
(I1
(L1L
tg55
I00
(lp2312
g1
(g44
g3
NtRp2313
(dp2314
g47
g1
(g48
g3
NtRp2315
((lp2316
g51
(g52
(I0
tS'b'
tRp2317
((I1
(L0L
tg55
I00
(lt(Nttba(lp2318
g51
(g59
(I0
tS'b'
tRp2319
(I1
(L0L
tg55
I00
(ltba(lp2320
g2317
atbsg128
S'1'
sbatba(lp2321
g2307
atbsg128
g2299
sbatba(lp2322
g2297
atbsg128
g2289
sbatba(lp2323
g2287
atbsg128
S'Expr'
p2324
sbatba(lp2325
g2225
atbsg128
g2217
sbatba(lp2326
g2215
atbsg128
g2207
sbatba(lp2327
g2205
atbsg128
g2197
sbatba(lp2328
g2195
atbsg128
g2137
sbag1
(g44
g3
NtRp2329
(dp2330
g47
g1
(g48
g3
NtRp2331
((lp2332
g51
(g52
(I0
tS'b'
tRp2333
((I1
(L0L
tg55
I00
(lt(Nttba(lp2334
g51
(g59
(I0
tS'b'
tRp2335
(I1
(L0L
tg55
I00
(ltba(lp2336
g2333
atbsg128
S')'
sbatba(lp2337
g2133
atbsg128
g2125
sbatba(lp2338
g2123
atbsg128
g1984
sbatba(lp2339
g1980
atbsg128
g1972
sbatba(lp2340
g1970
atbsg128
g1961
sbag1
(g44
g3
NtRp2341
(dp2342
g47
g1
(g48
g3
NtRp2343
((lp2344
g51
(g52
(I0
tS'b'
tRp2345
((I1
(L0L
tg55
I00
(lt(Nttba(lp2346
g51
(g59
(I0
tS'b'
tRp2347
(I1
(L0L
tg55
I00
(ltba(lp2348
g2345
atbsg128
S';'
sbatba(lp2349
g1959
atbsg128
g1951
sbatba(lp2350
g1949
atbsg128
g1941
sbatba(lp2351
g1939
atbsg128
g1921
sbag1
(g44
g3
NtRp2352
(dp2353
g47
g1
(g48
g3
NtRp2354
((lp2355
g51
(g52
(I0
tS'b'
tRp2356
((I1
(L0L
tg55
I00
(lt(Nttba(lp2357
g51
(g59
(I0
tS'b'
tRp2358
(I1
(L0L
tg55
I00
(ltba(lp2359
g2356
atbsg128
S'$blockend'
p2360
sbatba(lp2361
g1918
atbsg128
S'Block'
p2362
sbag1
(g44
g3
NtRp2363
(dp2364
g47
g1
(g48
g3
NtRp2365
((lp2366
g51
(g52
(I0
tS'b'
tRp2367
((I1
(L1L
tg55
I00
(lp2368
S'_else_'
p2369
at(Nttba(lp2370
g51
(g59
(I0
tS'b'
tRp2371
(I1
(L1L
tg55
I00
(lp2372
g1
(g44
g3
NtRp2373
(dp2374
g47
g1
(g48
g3
NtRp2375
((lp2376
g51
(g52
(I0
tS'b'
tRp2377
((I1
(L0L
tg55
I00
(lt(Nttba(lp2378
g51
(g59
(I0
tS'b'
tRp2379
(I1
(L0L
tg55
I00
(ltba(lp2380
g2377
atbsg128
S'else'
p2381
sbatba(lp2382
g2367
atbsg128
g1772
sbag1
(g44
g3
NtRp2383
(dp2384
g47
g1
(g48
g3
NtRp2385
((lp2386
g51
(g52
(I0
tS'b'
tRp2387
((I1
(L3L
tg55
I00
(lp2388
S'_:$blockbegin_'
p2389
aS'Prog'
p2390
aS'_$blockend_'
p2391
at(Nttba(lp2392
g51
(g59
(I0
tS'b'
tRp2393
(I1
(L3L
tg55
I00
(lp2394
g1
(g44
g3
NtRp2395
(dp2396
g47
g1
(g48
g3
NtRp2397
((lp2398
g51
(g52
(I0
tS'b'
tRp2399
((I1
(L0L
tg55
I00
(lt(Nttba(lp2400
g51
(g59
(I0
tS'b'
tRp2401
(I1
(L0L
tg55
I00
(ltba(lp2402
g2399
atbsg128
S':$blockbegin'
p2403
sbag1
(g44
g3
NtRp2404
(dp2405
g47
g1
(g48
g3
NtRp2406
((lp2407
g51
(g52
(I0
tS'b'
tRp2408
((I1
(L1L
tg55
I00
(lp2409
S'Stmt'
p2410
at(Nttba(lp2411
g51
(g59
(I0
tS'b'
tRp2412
(I1
(L1L
tg55
I00
(lp2413
g1
(g44
g3
NtRp2414
(dp2415
g47
g1
(g48
g3
NtRp2416
((lp2417
g51
(g52
(I0
tS'b'
tRp2418
((I1
(L1L
tg55
I00
(lp2419
S'Single_stmt'
p2420
at(Nttba(lp2421
g51
(g59
(I0
tS'b'
tRp2422
(I1
(L1L
tg55
I00
(lp2423
g1
(g44
g3
NtRp2424
(dp2425
g47
g1
(g48
g3
NtRp2426
((lp2427
g51
(g52
(I0
tS'b'
tRp2428
((I1
(L2L
tg55
I00
(lp2429
S'Stmts'
p2430
aS'_;_'
p2431
at(Nttba(lp2432
g51
(g59
(I0
tS'b'
tRp2433
(I1
(L2L
tg55
I00
(lp2434
g1
(g44
g3
NtRp2435
(dp2436
g47
g1
(g48
g3
NtRp2437
((lp2438
g51
(g52
(I0
tS'b'
tRp2439
((I1
(L1L
tg55
I00
(lp2440
S'_pass_'
p2441
at(Nttba(lp2442
g51
(g59
(I0
tS'b'
tRp2443
(I1
(L1L
tg55
I00
(lp2444
g1
(g44
g3
NtRp2445
(dp2446
g47
g1
(g48
g3
NtRp2447
((lp2448
g51
(g52
(I0
tS'b'
tRp2449
((I1
(L0L
tg55
I00
(lt(Nttba(lp2450
g51
(g59
(I0
tS'b'
tRp2451
(I1
(L0L
tg55
I00
(ltba(lp2452
g2449
atbsg128
S'pass'
p2453
sbatba(lp2454
g2439
atbsg128
g2430
sbag1
(g44
g3
NtRp2455
(dp2456
g47
g1
(g48
g3
NtRp2457
((lp2458
g51
(g52
(I0
tS'b'
tRp2459
((I1
(L0L
tg55
I00
(lt(Nttba(lp2460
g51
(g59
(I0
tS'b'
tRp2461
(I1
(L0L
tg55
I00
(ltba(lp2462
g2459
atbsg128
S';'
sbatba(lp2463
g2428
atbsg128
g2420
sbatba(lp2464
g2418
atbsg128
g2410
sbatba(lp2465
g2408
atbsg128
g2390
sbag1
(g44
g3
NtRp2466
(dp2467
g47
g1
(g48
g3
NtRp2468
((lp2469
g51
(g52
(I0
tS'b'
tRp2470
((I1
(L0L
tg55
I00
(lt(Nttba(lp2471
g51
(g59
(I0
tS'b'
tRp2472
(I1
(L0L
tg55
I00
(ltba(lp2473
g2470
atbsg128
S'$blockend'
p2474
sbatba(lp2475
g2387
atbsg128
S'Block'
p2476
sbatba(lp2477
g1768
atbsg128
g1760
sbatba(lp2478
g1758
atbsg128
g1750
sbatba(lp2479
g1748
atbsg128
g1740
sbatba(lp2480
g1738
atbsg128
g1720
sbag1
(g44
g3
NtRp2481
(dp2482
g47
g1
(g48
g3
NtRp2483
((lp2484
g51
(g52
(I0
tS'b'
tRp2485
((I1
(L0L
tg55
I00
(lt(Nttba(lp2486
g51
(g59
(I0
tS'b'
tRp2487
(I1
(L0L
tg55
I00
(ltba(lp2488
g2485
atbsg128
S'$blockend'
p2489
sbatba(lp2490
g1717
atbsg128
g1352
sbatba(lp2491
g1349
atbsg128
g1341
sbatba(lp2492
g1339
atbsg128
S'Stmt'
p2493
sbag1
(g44
g3
NtRp2494
(dp2495
g47
g1
(g48
g3
NtRp2496
((lp2497
g51
(g52
(I0
tS'b'
tRp2498
((I1
(L1L
tg55
I00
(lp2499
S'Single_stmt'
p2500
at(Nttba(lp2501
g51
(g59
(I0
tS'b'
tRp2502
(I1
(L1L
tg55
I00
(lp2503
g1
(g44
g3
NtRp2504
(dp2505
g47
g1
(g48
g3
NtRp2506
((lp2507
g51
(g52
(I0
tS'b'
tRp2508
((I1
(L2L
tg55
I00
(lp2509
S'Stmts'
p2510
aS'_;_'
p2511
at(Nttba(lp2512
g51
(g59
(I0
tS'b'
tRp2513
(I1
(L2L
tg55
I00
(lp2514
g1
(g44
g3
NtRp2515
(dp2516
g47
g1
(g48
g3
NtRp2517
((lp2518
g51
(g52
(I0
tS'b'
tRp2519
((I1
(L2L
tg55
I00
(lp2520
S'_print_'
p2521
aS'Exprlist'
p2522
at(Nttba(lp2523
g51
(g59
(I0
tS'b'
tRp2524
(I1
(L2L
tg55
I00
(lp2525
g1
(g44
g3
NtRp2526
(dp2527
g47
g1
(g48
g3
NtRp2528
((lp2529
g51
(g52
(I0
tS'b'
tRp2530
((I1
(L0L
tg55
I00
(lt(Nttba(lp2531
g51
(g59
(I0
tS'b'
tRp2532
(I1
(L0L
tg55
I00
(ltba(lp2533
g2530
atbsg128
S'print'
p2534
sbag1
(g44
g3
NtRp2535
(dp2536
g47
g1
(g48
g3
NtRp2537
((lp2538
g51
(g52
(I0
tS'b'
tRp2539
((I1
(L1L
tg55
I00
(lp2540
S'Expr'
p2541
at(Nttba(lp2542
g51
(g59
(I0
tS'b'
tRp2543
(I1
(L1L
tg55
I00
(lp2544
g1
(g44
g3
NtRp2545
(dp2546
g47
g1
(g48
g3
NtRp2547
((lp2548
g51
(g52
(I0
tS'b'
tRp2549
((I1
(L1L
tg55
I00
(lp2550
S'Val'
p2551
at(Nttba(lp2552
g51
(g59
(I0
tS'b'
tRp2553
(I1
(L1L
tg55
I00
(lp2554
g1
(g44
g3
NtRp2555
(dp2556
g47
g1
(g48
g3
NtRp2557
((lp2558
g51
(g52
(I0
tS'b'
tRp2559
((I1
(L1L
tg55
I00
(lp2560
S'Var'
p2561
at(Nttba(lp2562
g51
(g59
(I0
tS'b'
tRp2563
(I1
(L1L
tg55
I00
(lp2564
g1
(g44
g3
NtRp2565
(dp2566
g47
g1
(g48
g3
NtRp2567
((lp2568
g51
(g52
(I0
tS'b'
tRp2569
((I1
(L1L
tg55
I00
(lp2570
S'_L_'
p2571
at(Nttba(lp2572
g51
(g59
(I0
tS'b'
tRp2573
(I1
(L1L
tg55
I00
(lp2574
g1
(g44
g3
NtRp2575
(dp2576
g47
g1
(g48
g3
NtRp2577
((lp2578
g51
(g52
(I0
tS'b'
tRp2579
((I1
(L0L
tg55
I00
(lt(Nttba(lp2580
g51
(g59
(I0
tS'b'
tRp2581
(I1
(L0L
tg55
I00
(ltba(lp2582
g2579
atbsg128
S'L'
sbatba(lp2583
g2569
atbsg128
g2561
sbatba(lp2584
g2559
atbsg128
g2551
sbatba(lp2585
g2549
atbsg128
g2541
sbatba(lp2586
g2539
atbsg128
g2522
sbatba(lp2587
g2519
atbsg128
g2510
sbag1
(g44
g3
NtRp2588
(dp2589
g47
g1
(g48
g3
NtRp2590
((lp2591
g51
(g52
(I0
tS'b'
tRp2592
((I1
(L0L
tg55
I00
(lt(Nttba(lp2593
g51
(g59
(I0
tS'b'
tRp2594
(I1
(L0L
tg55
I00
(ltba(lp2595
g2592
atbsg128
S';'
sbatba(lp2596
g2508
atbsg128
g2500
sbatba(lp2597
g2498
atbsg128
S'Stmt'
p2598
sbatba(lp2599
g66
atbsg128
g57
sbatba(lp2600
g53
atbsg128
g43
sbsS'pos'
p2601
g45
sb.