ccopy_reg
_reconstructor
p1
(ctree
Tree
p2
c__builtin__
object
p3
NtRp4
(dp5
S'patterns'
p6
c__builtin__
set
p7
((ltRp8
sS'root'
p9
g1
(ctree
vertex
p10
g3
NtRp11
(dp12
S'_data'
p13
g1
(cpandas.core.internals
SingleBlockManager
p14
g3
NtRp15
((lp16
cnumpy.core.multiarray
_reconstruct
p17
(cpandas.core.index
Index
p18
(I0
tS'b'
tRp19
((I1
(L1L
tcnumpy
dtype
p20
(S'O8'
I0
I1
tRp21
(I3
S'|'
NNNI-1
I-1
I63
tbI00
(lp22
S'Prog'
p23
at(Nttba(lp24
g17
(cnumpy
ndarray
p25
(I0
tS'b'
tRp26
(I1
(L1L
tg21
I00
(lp27
g1
(g10
g3
NtRp28
(dp29
g13
g1
(g14
g3
NtRp30
((lp31
g17
(g18
(I0
tS'b'
tRp32
((I1
(L5L
tg21
I00
(lp33
S'Stmt1'
p34
aS'Stmt2'
p35
aS'Stmt3'
p36
aS'Stmt4'
p37
aS'Stmt5'
p38
at(Nttba(lp39
g17
(g25
(I0
tS'b'
tRp40
(I1
(L5L
tg21
I00
(lp41
g1
(g10
g3
NtRp42
(dp43
g13
g1
(g14
g3
NtRp44
((lp45
g17
(g18
(I0
tS'b'
tRp46
((I1
(L1L
tg21
I00
(lp47
S'Single_stmt'
p48
at(Nttba(lp49
g17
(g25
(I0
tS'b'
tRp50
(I1
(L1L
tg21
I00
(lp51
g1
(g10
g3
NtRp52
(dp53
g13
g1
(g14
g3
NtRp54
((lp55
g17
(g18
(I0
tS'b'
tRp56
((I1
(L2L
tg21
I00
(lp57
S'Exprlist'
p58
aS'_;_'
p59
at(Nttba(lp60
g17
(g25
(I0
tS'b'
tRp61
(I1
(L2L
tg21
I00
(lp62
g1
(g10
g3
NtRp63
(dp64
g13
g1
(g14
g3
NtRp65
((lp66
g17
(g18
(I0
tS'b'
tRp67
((I1
(L1L
tg21
I00
(lp68
S'Expr'
p69
at(Nttba(lp70
g17
(g25
(I0
tS'b'
tRp71
(I1
(L1L
tg21
I00
(lp72
g1
(g10
g3
NtRp73
(dp74
g13
g1
(g14
g3
NtRp75
((lp76
g17
(g18
(I0
tS'b'
tRp77
((I1
(L1L
tg21
I00
(lp78
S'Val_label'
p79
at(Nttba(lp80
g17
(g25
(I0
tS'b'
tRp81
(I1
(L1L
tg21
I00
(lp82
g1
(g10
g3
NtRp83
(dp84
g13
g1
(g14
g3
NtRp85
((lp86
g17
(g18
(I0
tS'b'
tRp87
((I1
(L1L
tg21
I00
(lp88
S'String'
p89
at(Nttba(lp90
g17
(g25
(I0
tS'b'
tRp91
(I1
(L1L
tg21
I00
(lp92
g1
(g10
g3
NtRp93
(dp94
g13
g1
(g14
g3
NtRp95
((lp96
g17
(g18
(I0
tS'b'
tRp97
((I1
(L1L
tg21
I00
(lp98
S'_"""\r\nTestprogramm fuer codegen\r\n"""_'
p99
at(Nttba(lp100
g17
(g25
(I0
tS'b'
tRp101
(I1
(L1L
tg21
I00
(lp102
g1
(g10
g3
NtRp103
(dp104
g13
g1
(g14
g3
NtRp105
((lp106
g17
(g18
(I0
tS'b'
tRp107
((I1
(L0L
tg21
I00
(lt(Nttba(lp108
g17
(g25
(I0
tS'b'
tRp109
(I1
(L0L
tg21
I00
(ltba(lp110
g107
atbsS'name'
p111
S'"""\r\nTestprogramm fuer codegen\r\n"""'
p112
sbatba(lp113
g97
atbsg111
g89
sbatba(lp114
g87
atbsg111
S'Val'
p115
sbatba(lp116
g77
atbsg111
S'Expr'
p117
sbatba(lp118
g67
atbsg111
g58
sbag1
(g10
g3
NtRp119
(dp120
g13
g1
(g14
g3
NtRp121
((lp122
g17
(g18
(I0
tS'b'
tRp123
((I1
(L0L
tg21
I00
(lt(Nttba(lp124
g17
(g25
(I0
tS'b'
tRp125
(I1
(L0L
tg21
I00
(ltba(lp126
g123
atbsg111
S';'
sbatba(lp127
g56
atbsg111
g48
sbatba(lp128
g46
atbsg111
S'Stmt'
p129
sbag1
(g10
g3
NtRp130
(dp131
g13
g1
(g14
g3
NtRp132
((lp133
g17
(g18
(I0
tS'b'
tRp134
((I1
(L1L
tg21
I00
(lp135
S'Block_stmt'
p136
at(Nttba(lp137
g17
(g25
(I0
tS'b'
tRp138
(I1
(L1L
tg21
I00
(lp139
g1
(g10
g3
NtRp140
(dp141
g13
g1
(g14
g3
NtRp142
((lp143
g17
(g18
(I0
tS'b'
tRp144
((I1
(L2L
tg21
I00
(lp145
S'Block_head'
p146
aS'Block'
p147
at(Nttba(lp148
g17
(g25
(I0
tS'b'
tRp149
(I1
(L2L
tg21
I00
(lp150
g1
(g10
g3
NtRp151
(dp152
g13
g1
(g14
g3
NtRp153
((lp154
g17
(g18
(I0
tS'b'
tRp155
((I1
(L1L
tg21
I00
(lp156
S'Func'
p157
at(Nttba(lp158
g17
(g25
(I0
tS'b'
tRp159
(I1
(L1L
tg21
I00
(lp160
g1
(g10
g3
NtRp161
(dp162
g13
g1
(g14
g3
NtRp163
((lp164
g17
(g18
(I0
tS'b'
tRp165
((I1
(L5L
tg21
I00
(lp166
S'_def_'
p167
aS'Id'
p168
aS'_(_'
p169
aS'Paramlist'
p170
aS'_)_'
p171
at(Nttba(lp172
g17
(g25
(I0
tS'b'
tRp173
(I1
(L5L
tg21
I00
(lp174
g1
(g10
g3
NtRp175
(dp176
g13
g1
(g14
g3
NtRp177
((lp178
g17
(g18
(I0
tS'b'
tRp179
((I1
(L0L
tg21
I00
(lt(Nttba(lp180
g17
(g25
(I0
tS'b'
tRp181
(I1
(L0L
tg21
I00
(ltba(lp182
g179
atbsg111
S'def'
p183
sbag1
(g10
g3
NtRp184
(dp185
g13
g1
(g14
g3
NtRp186
((lp187
g17
(g18
(I0
tS'b'
tRp188
((I1
(L1L
tg21
I00
(lp189
S'_f_'
p190
at(Nttba(lp191
g17
(g25
(I0
tS'b'
tRp192
(I1
(L1L
tg21
I00
(lp193
g1
(g10
g3
NtRp194
(dp195
g13
g1
(g14
g3
NtRp196
((lp197
g17
(g18
(I0
tS'b'
tRp198
((I1
(L0L
tg21
I00
(lt(Nttba(lp199
g17
(g25
(I0
tS'b'
tRp200
(I1
(L0L
tg21
I00
(ltba(lp201
g198
atbsg111
S'f'
sbatba(lp202
g188
atbsg111
g168
sbag1
(g10
g3
NtRp203
(dp204
g13
g1
(g14
g3
NtRp205
((lp206
g17
(g18
(I0
tS'b'
tRp207
((I1
(L0L
tg21
I00
(lt(Nttba(lp208
g17
(g25
(I0
tS'b'
tRp209
(I1
(L0L
tg21
I00
(ltba(lp210
g207
atbsg111
S'('
sbag1
(g10
g3
NtRp211
(dp212
g13
g1
(g14
g3
NtRp213
((lp214
g17
(g18
(I0
tS'b'
tRp215
((I1
(L1L
tg21
I00
(lp216
S'Pos_paramlist'
p217
at(Nttba(lp218
g17
(g25
(I0
tS'b'
tRp219
(I1
(L1L
tg21
I00
(lp220
g1
(g10
g3
NtRp221
(dp222
g13
g1
(g14
g3
NtRp223
((lp224
g17
(g18
(I0
tS'b'
tRp225
((I1
(L1L
tg21
I00
(lp226
S'Pos_paramtuple'
p227
at(Nttba(lp228
g17
(g25
(I0
tS'b'
tRp229
(I1
(L1L
tg21
I00
(lp230
g1
(g10
g3
NtRp231
(dp232
g13
g1
(g14
g3
NtRp233
((lp234
g17
(g18
(I0
tS'b'
tRp235
((I1
(L1L
tg21
I00
(lp236
S'Simple_var'
p237
at(Nttba(lp238
g17
(g25
(I0
tS'b'
tRp239
(I1
(L1L
tg21
I00
(lp240
g1
(g10
g3
NtRp241
(dp242
g13
g1
(g14
g3
NtRp243
((lp244
g17
(g18
(I0
tS'b'
tRp245
((I1
(L1L
tg21
I00
(lp246
S'Id'
p247
at(Nttba(lp248
g17
(g25
(I0
tS'b'
tRp249
(I1
(L1L
tg21
I00
(lp250
g1
(g10
g3
NtRp251
(dp252
g13
g1
(g14
g3
NtRp253
((lp254
g17
(g18
(I0
tS'b'
tRp255
((I1
(L1L
tg21
I00
(lp256
S'_x_'
p257
at(Nttba(lp258
g17
(g25
(I0
tS'b'
tRp259
(I1
(L1L
tg21
I00
(lp260
g1
(g10
g3
NtRp261
(dp262
g13
g1
(g14
g3
NtRp263
((lp264
g17
(g18
(I0
tS'b'
tRp265
((I1
(L0L
tg21
I00
(lt(Nttba(lp266
g17
(g25
(I0
tS'b'
tRp267
(I1
(L0L
tg21
I00
(ltba(lp268
g265
atbsg111
S'x'
sbatba(lp269
g255
atbsg111
g247
sbatba(lp270
g245
atbsg111
g237
sbatba(lp271
g235
atbsg111
g227
sbatba(lp272
g225
atbsg111
g217
sbatba(lp273
g215
atbsg111
g170
sbag1
(g10
g3
NtRp274
(dp275
g13
g1
(g14
g3
NtRp276
((lp277
g17
(g18
(I0
tS'b'
tRp278
((I1
(L0L
tg21
I00
(lt(Nttba(lp279
g17
(g25
(I0
tS'b'
tRp280
(I1
(L0L
tg21
I00
(ltba(lp281
g278
atbsg111
S')'
sbatba(lp282
g165
atbsg111
g157
sbatba(lp283
g155
atbsg111
g146
sbag1
(g10
g3
NtRp284
(dp285
g13
g1
(g14
g3
NtRp286
((lp287
g17
(g18
(I0
tS'b'
tRp288
((I1
(L3L
tg21
I00
(lp289
S'Blockbegin'
p290
aS'Prog'
p291
aS'Blockend'
p292
at(Nttba(lp293
g17
(g25
(I0
tS'b'
tRp294
(I1
(L3L
tg21
I00
(lp295
g1
(g10
g3
NtRp296
(dp297
g13
g1
(g14
g3
NtRp298
((lp299
g17
(g18
(I0
tS'b'
tRp300
((I1
(L1L
tg21
I00
(lp301
S'_:$blockbegin_'
p302
at(Nttba(lp303
g17
(g25
(I0
tS'b'
tRp304
(I1
(L1L
tg21
I00
(lp305
g1
(g10
g3
NtRp306
(dp307
g13
g1
(g14
g3
NtRp308
((lp309
g17
(g18
(I0
tS'b'
tRp310
((I1
(L0L
tg21
I00
(lt(Nttba(lp311
g17
(g25
(I0
tS'b'
tRp312
(I1
(L0L
tg21
I00
(ltba(lp313
g310
atbsg111
S':$blockbegin'
p314
sbatba(lp315
g300
atbsg111
g290
sbag1
(g10
g3
NtRp316
(dp317
g13
g1
(g14
g3
NtRp318
((lp319
g17
(g18
(I0
tS'b'
tRp320
((I1
(L2L
tg21
I00
(lp321
S'Stmt1'
p322
aS'Stmt2'
p323
at(Nttba(lp324
g17
(g25
(I0
tS'b'
tRp325
(I1
(L2L
tg21
I00
(lp326
g1
(g10
g3
NtRp327
(dp328
g13
g1
(g14
g3
NtRp329
((lp330
g17
(g18
(I0
tS'b'
tRp331
((I1
(L1L
tg21
I00
(lp332
S'Single_stmt'
p333
at(Nttba(lp334
g17
(g25
(I0
tS'b'
tRp335
(I1
(L1L
tg21
I00
(lp336
g1
(g10
g3
NtRp337
(dp338
g13
g1
(g14
g3
NtRp339
((lp340
g17
(g18
(I0
tS'b'
tRp341
((I1
(L2L
tg21
I00
(lp342
S'Exprlist'
p343
aS'_;_'
p344
at(Nttba(lp345
g17
(g25
(I0
tS'b'
tRp346
(I1
(L2L
tg21
I00
(lp347
g1
(g10
g3
NtRp348
(dp349
g13
g1
(g14
g3
NtRp350
((lp351
g17
(g18
(I0
tS'b'
tRp352
((I1
(L1L
tg21
I00
(lp353
S'Expr'
p354
at(Nttba(lp355
g17
(g25
(I0
tS'b'
tRp356
(I1
(L1L
tg21
I00
(lp357
g1
(g10
g3
NtRp358
(dp359
g13
g1
(g14
g3
NtRp360
((lp361
g17
(g18
(I0
tS'b'
tRp362
((I1
(L1L
tg21
I00
(lp363
S'Val_label'
p364
at(Nttba(lp365
g17
(g25
(I0
tS'b'
tRp366
(I1
(L1L
tg21
I00
(lp367
g1
(g10
g3
NtRp368
(dp369
g13
g1
(g14
g3
NtRp370
((lp371
g17
(g18
(I0
tS'b'
tRp372
((I1
(L1L
tg21
I00
(lp373
S'String'
p374
at(Nttba(lp375
g17
(g25
(I0
tS'b'
tRp376
(I1
(L1L
tg21
I00
(lp377
g1
(g10
g3
NtRp378
(dp379
g13
g1
(g14
g3
NtRp380
((lp381
g17
(g18
(I0
tS'b'
tRp382
((I1
(L1L
tg21
I00
(lp383
S'_"""rechnen"""_'
p384
at(Nttba(lp385
g17
(g25
(I0
tS'b'
tRp386
(I1
(L1L
tg21
I00
(lp387
g1
(g10
g3
NtRp388
(dp389
g13
g1
(g14
g3
NtRp390
((lp391
g17
(g18
(I0
tS'b'
tRp392
((I1
(L0L
tg21
I00
(lt(Nttba(lp393
g17
(g25
(I0
tS'b'
tRp394
(I1
(L0L
tg21
I00
(ltba(lp395
g392
atbsg111
S'"""rechnen"""'
p396
sbatba(lp397
g382
atbsg111
g374
sbatba(lp398
g372
atbsg111
S'Val'
p399
sbatba(lp400
g362
atbsg111
S'Expr'
p401
sbatba(lp402
g352
atbsg111
g343
sbag1
(g10
g3
NtRp403
(dp404
g13
g1
(g14
g3
NtRp405
((lp406
g17
(g18
(I0
tS'b'
tRp407
((I1
(L0L
tg21
I00
(lt(Nttba(lp408
g17
(g25
(I0
tS'b'
tRp409
(I1
(L0L
tg21
I00
(ltba(lp410
g407
atbsg111
S';'
sbatba(lp411
g341
atbsg111
g333
sbatba(lp412
g331
atbsg111
S'Stmt'
p413
sbag1
(g10
g3
NtRp414
(dp415
g13
g1
(g14
g3
NtRp416
((lp417
g17
(g18
(I0
tS'b'
tRp418
((I1
(L1L
tg21
I00
(lp419
S'Single_stmt'
p420
at(Nttba(lp421
g17
(g25
(I0
tS'b'
tRp422
(I1
(L1L
tg21
I00
(lp423
g1
(g10
g3
NtRp424
(dp425
g13
g1
(g14
g3
NtRp426
((lp427
g17
(g18
(I0
tS'b'
tRp428
((I1
(L2L
tg21
I00
(lp429
S'Func_stmt'
p430
aS'_;_'
p431
at(Nttba(lp432
g17
(g25
(I0
tS'b'
tRp433
(I1
(L2L
tg21
I00
(lp434
g1
(g10
g3
NtRp435
(dp436
g13
g1
(g14
g3
NtRp437
((lp438
g17
(g18
(I0
tS'b'
tRp439
((I1
(L2L
tg21
I00
(lp440
S'_return_'
p441
aS'Exprlist'
p442
at(Nttba(lp443
g17
(g25
(I0
tS'b'
tRp444
(I1
(L2L
tg21
I00
(lp445
g1
(g10
g3
NtRp446
(dp447
g13
g1
(g14
g3
NtRp448
((lp449
g17
(g18
(I0
tS'b'
tRp450
((I1
(L0L
tg21
I00
(lt(Nttba(lp451
g17
(g25
(I0
tS'b'
tRp452
(I1
(L0L
tg21
I00
(ltba(lp453
g450
atbsg111
S'return'
p454
sbag1
(g10
g3
NtRp455
(dp456
g13
g1
(g14
g3
NtRp457
((lp458
g17
(g18
(I0
tS'b'
tRp459
((I1
(L1L
tg21
I00
(lp460
S'Expr'
p461
at(Nttba(lp462
g17
(g25
(I0
tS'b'
tRp463
(I1
(L1L
tg21
I00
(lp464
g1
(g10
g3
NtRp465
(dp466
g13
g1
(g14
g3
NtRp467
((lp468
g17
(g18
(I0
tS'b'
tRp469
((I1
(L1L
tg21
I00
(lp470
S'Dash_calc'
p471
at(Nttba(lp472
g17
(g25
(I0
tS'b'
tRp473
(I1
(L1L
tg21
I00
(lp474
g1
(g10
g3
NtRp475
(dp476
g13
g1
(g14
g3
NtRp477
((lp478
g17
(g18
(I0
tS'b'
tRp479
((I1
(L3L
tg21
I00
(lp480
S'Expr1'
p481
aS'_+_'
p482
aS'Expr2'
p483
at(Nttba(lp484
g17
(g25
(I0
tS'b'
tRp485
(I1
(L3L
tg21
I00
(lp486
g1
(g10
g3
NtRp487
(dp488
g13
g1
(g14
g3
NtRp489
((lp490
g17
(g18
(I0
tS'b'
tRp491
((I1
(L1L
tg21
I00
(lp492
S'Dash_calc'
p493
at(Nttba(lp494
g17
(g25
(I0
tS'b'
tRp495
(I1
(L1L
tg21
I00
(lp496
g1
(g10
g3
NtRp497
(dp498
g13
g1
(g14
g3
NtRp499
((lp500
g17
(g18
(I0
tS'b'
tRp501
((I1
(L3L
tg21
I00
(lp502
S'Expr1'
p503
aS'_+_'
p504
aS'Expr2'
p505
at(Nttba(lp506
g17
(g25
(I0
tS'b'
tRp507
(I1
(L3L
tg21
I00
(lp508
g1
(g10
g3
NtRp509
(dp510
g13
g1
(g14
g3
NtRp511
((lp512
g17
(g18
(I0
tS'b'
tRp513
((I1
(L1L
tg21
I00
(lp514
S'Dash_calc'
p515
at(Nttba(lp516
g17
(g25
(I0
tS'b'
tRp517
(I1
(L1L
tg21
I00
(lp518
g1
(g10
g3
NtRp519
(dp520
g13
g1
(g14
g3
NtRp521
((lp522
g17
(g18
(I0
tS'b'
tRp523
((I1
(L3L
tg21
I00
(lp524
S'Expr1'
p525
aS'_-_'
p526
aS'Expr2'
p527
at(Nttba(lp528
g17
(g25
(I0
tS'b'
tRp529
(I1
(L3L
tg21
I00
(lp530
g1
(g10
g3
NtRp531
(dp532
g13
g1
(g14
g3
NtRp533
((lp534
g17
(g18
(I0
tS'b'
tRp535
((I1
(L1L
tg21
I00
(lp536
S'Dash_calc'
p537
at(Nttba(lp538
g17
(g25
(I0
tS'b'
tRp539
(I1
(L1L
tg21
I00
(lp540
g1
(g10
g3
NtRp541
(dp542
g13
g1
(g14
g3
NtRp543
((lp544
g17
(g18
(I0
tS'b'
tRp545
((I1
(L3L
tg21
I00
(lp546
S'Expr1'
p547
aS'_-_'
p548
aS'Expr2'
p549
at(Nttba(lp550
g17
(g25
(I0
tS'b'
tRp551
(I1
(L3L
tg21
I00
(lp552
g1
(g10
g3
NtRp553
(dp554
g13
g1
(g14
g3
NtRp555
((lp556
g17
(g18
(I0
tS'b'
tRp557
((I1
(L1L
tg21
I00
(lp558
S'Dash_calc'
p559
at(Nttba(lp560
g17
(g25
(I0
tS'b'
tRp561
(I1
(L1L
tg21
I00
(lp562
g1
(g10
g3
NtRp563
(dp564
g13
g1
(g14
g3
NtRp565
((lp566
g17
(g18
(I0
tS'b'
tRp567
((I1
(L3L
tg21
I00
(lp568
S'Expr1'
p569
aS'_+_'
p570
aS'Expr2'
p571
at(Nttba(lp572
g17
(g25
(I0
tS'b'
tRp573
(I1
(L3L
tg21
I00
(lp574
g1
(g10
g3
NtRp575
(dp576
g13
g1
(g14
g3
NtRp577
((lp578
g17
(g18
(I0
tS'b'
tRp579
((I1
(L1L
tg21
I00
(lp580
S'Exponentiation'
p581
at(Nttba(lp582
g17
(g25
(I0
tS'b'
tRp583
(I1
(L1L
tg21
I00
(lp584
g1
(g10
g3
NtRp585
(dp586
g13
g1
(g14
g3
NtRp587
((lp588
g17
(g18
(I0
tS'b'
tRp589
((I1
(L3L
tg21
I00
(lp590
S'Expr1'
p591
aS'_**_'
p592
aS'Expr2'
p593
at(Nttba(lp594
g17
(g25
(I0
tS'b'
tRp595
(I1
(L3L
tg21
I00
(lp596
g1
(g10
g3
NtRp597
(dp598
g13
g1
(g14
g3
NtRp599
((lp600
g17
(g18
(I0
tS'b'
tRp601
((I1
(L1L
tg21
I00
(lp602
S'Val_label'
p603
at(Nttba(lp604
g17
(g25
(I0
tS'b'
tRp605
(I1
(L1L
tg21
I00
(lp606
g1
(g10
g3
NtRp607
(dp608
g13
g1
(g14
g3
NtRp609
((lp610
g17
(g18
(I0
tS'b'
tRp611
((I1
(L1L
tg21
I00
(lp612
S'Var'
p613
at(Nttba(lp614
g17
(g25
(I0
tS'b'
tRp615
(I1
(L1L
tg21
I00
(lp616
g1
(g10
g3
NtRp617
(dp618
g13
g1
(g14
g3
NtRp619
((lp620
g17
(g18
(I0
tS'b'
tRp621
((I1
(L1L
tg21
I00
(lp622
S'Id'
p623
at(Nttba(lp624
g17
(g25
(I0
tS'b'
tRp625
(I1
(L1L
tg21
I00
(lp626
g1
(g10
g3
NtRp627
(dp628
g13
g1
(g14
g3
NtRp629
((lp630
g17
(g18
(I0
tS'b'
tRp631
((I1
(L1L
tg21
I00
(lp632
S'_x_'
p633
at(Nttba(lp634
g17
(g25
(I0
tS'b'
tRp635
(I1
(L1L
tg21
I00
(lp636
g1
(g10
g3
NtRp637
(dp638
g13
g1
(g14
g3
NtRp639
((lp640
g17
(g18
(I0
tS'b'
tRp641
((I1
(L0L
tg21
I00
(lt(Nttba(lp642
g17
(g25
(I0
tS'b'
tRp643
(I1
(L0L
tg21
I00
(ltba(lp644
g641
atbsg111
S'x'
sbatba(lp645
g631
atbsg111
g623
sbatba(lp646
g621
atbsg111
g613
sbatba(lp647
g611
atbsg111
S'Val'
p648
sbatba(lp649
g601
atbsg111
S'Expr'
p650
sbag1
(g10
g3
NtRp651
(dp652
g13
g1
(g14
g3
NtRp653
((lp654
g17
(g18
(I0
tS'b'
tRp655
((I1
(L0L
tg21
I00
(lt(Nttba(lp656
g17
(g25
(I0
tS'b'
tRp657
(I1
(L0L
tg21
I00
(ltba(lp658
g655
atbsg111
S'**'
p659
sbag1
(g10
g3
NtRp660
(dp661
g13
g1
(g14
g3
NtRp662
((lp663
g17
(g18
(I0
tS'b'
tRp664
((I1
(L1L
tg21
I00
(lp665
S'Val_label'
p666
at(Nttba(lp667
g17
(g25
(I0
tS'b'
tRp668
(I1
(L1L
tg21
I00
(lp669
g1
(g10
g3
NtRp670
(dp671
g13
g1
(g14
g3
NtRp672
((lp673
g17
(g18
(I0
tS'b'
tRp674
((I1
(L1L
tg21
I00
(lp675
S'Number'
p676
at(Nttba(lp677
g17
(g25
(I0
tS'b'
tRp678
(I1
(L1L
tg21
I00
(lp679
g1
(g10
g3
NtRp680
(dp681
g13
g1
(g14
g3
NtRp682
((lp683
g17
(g18
(I0
tS'b'
tRp684
((I1
(L1L
tg21
I00
(lp685
S'Int'
p686
at(Nttba(lp687
g17
(g25
(I0
tS'b'
tRp688
(I1
(L1L
tg21
I00
(lp689
g1
(g10
g3
NtRp690
(dp691
g13
g1
(g14
g3
NtRp692
((lp693
g17
(g18
(I0
tS'b'
tRp694
((I1
(L1L
tg21
I00
(lp695
S'_2_'
p696
at(Nttba(lp697
g17
(g25
(I0
tS'b'
tRp698
(I1
(L1L
tg21
I00
(lp699
g1
(g10
g3
NtRp700
(dp701
g13
g1
(g14
g3
NtRp702
((lp703
g17
(g18
(I0
tS'b'
tRp704
((I1
(L0L
tg21
I00
(lt(Nttba(lp705
g17
(g25
(I0
tS'b'
tRp706
(I1
(L0L
tg21
I00
(ltba(lp707
g704
atbsg111
S'2'
sbatba(lp708
g694
atbsg111
g686
sbatba(lp709
g684
atbsg111
g676
sbatba(lp710
g674
atbsg111
S'Val'
p711
sbatba(lp712
g664
atbsg111
S'Expr'
p713
sbatba(lp714
g589
atbsg111
g581
sbatba(lp715
g579
atbsg111
S'Expr'
p716
sbag1
(g10
g3
NtRp717
(dp718
g13
g1
(g14
g3
NtRp719
((lp720
g17
(g18
(I0
tS'b'
tRp721
((I1
(L0L
tg21
I00
(lt(Nttba(lp722
g17
(g25
(I0
tS'b'
tRp723
(I1
(L0L
tg21
I00
(ltba(lp724
g721
atbsg111
S'+'
sbag1
(g10
g3
NtRp725
(dp726
g13
g1
(g14
g3
NtRp727
((lp728
g17
(g18
(I0
tS'b'
tRp729
((I1
(L1L
tg21
I00
(lp730
S'Dot_calc'
p731
at(Nttba(lp732
g17
(g25
(I0
tS'b'
tRp733
(I1
(L1L
tg21
I00
(lp734
g1
(g10
g3
NtRp735
(dp736
g13
g1
(g14
g3
NtRp737
((lp738
g17
(g18
(I0
tS'b'
tRp739
((I1
(L3L
tg21
I00
(lp740
S'Expr1'
p741
aS'_*_'
p742
aS'Expr2'
p743
at(Nttba(lp744
g17
(g25
(I0
tS'b'
tRp745
(I1
(L3L
tg21
I00
(lp746
g1
(g10
g3
NtRp747
(dp748
g13
g1
(g14
g3
NtRp749
((lp750
g17
(g18
(I0
tS'b'
tRp751
((I1
(L1L
tg21
I00
(lp752
S'Val_label'
p753
at(Nttba(lp754
g17
(g25
(I0
tS'b'
tRp755
(I1
(L1L
tg21
I00
(lp756
g1
(g10
g3
NtRp757
(dp758
g13
g1
(g14
g3
NtRp759
((lp760
g17
(g18
(I0
tS'b'
tRp761
((I1
(L1L
tg21
I00
(lp762
S'Var'
p763
at(Nttba(lp764
g17
(g25
(I0
tS'b'
tRp765
(I1
(L1L
tg21
I00
(lp766
g1
(g10
g3
NtRp767
(dp768
g13
g1
(g14
g3
NtRp769
((lp770
g17
(g18
(I0
tS'b'
tRp771
((I1
(L1L
tg21
I00
(lp772
S'Id'
p773
at(Nttba(lp774
g17
(g25
(I0
tS'b'
tRp775
(I1
(L1L
tg21
I00
(lp776
g1
(g10
g3
NtRp777
(dp778
g13
g1
(g14
g3
NtRp779
((lp780
g17
(g18
(I0
tS'b'
tRp781
((I1
(L1L
tg21
I00
(lp782
S'_x_'
p783
at(Nttba(lp784
g17
(g25
(I0
tS'b'
tRp785
(I1
(L1L
tg21
I00
(lp786
g1
(g10
g3
NtRp787
(dp788
g13
g1
(g14
g3
NtRp789
((lp790
g17
(g18
(I0
tS'b'
tRp791
((I1
(L0L
tg21
I00
(lt(Nttba(lp792
g17
(g25
(I0
tS'b'
tRp793
(I1
(L0L
tg21
I00
(ltba(lp794
g791
atbsg111
S'x'
sbatba(lp795
g781
atbsg111
g773
sbatba(lp796
g771
atbsg111
g763
sbatba(lp797
g761
atbsg111
S'Val'
p798
sbatba(lp799
g751
atbsg111
S'Expr'
p800
sbag1
(g10
g3
NtRp801
(dp802
g13
g1
(g14
g3
NtRp803
((lp804
g17
(g18
(I0
tS'b'
tRp805
((I1
(L0L
tg21
I00
(lt(Nttba(lp806
g17
(g25
(I0
tS'b'
tRp807
(I1
(L0L
tg21
I00
(ltba(lp808
g805
atbsg111
S'*'
sbag1
(g10
g3
NtRp809
(dp810
g13
g1
(g14
g3
NtRp811
((lp812
g17
(g18
(I0
tS'b'
tRp813
((I1
(L1L
tg21
I00
(lp814
S'Val_label'
p815
at(Nttba(lp816
g17
(g25
(I0
tS'b'
tRp817
(I1
(L1L
tg21
I00
(lp818
g1
(g10
g3
NtRp819
(dp820
g13
g1
(g14
g3
NtRp821
((lp822
g17
(g18
(I0
tS'b'
tRp823
((I1
(L1L
tg21
I00
(lp824
S'Number'
p825
at(Nttba(lp826
g17
(g25
(I0
tS'b'
tRp827
(I1
(L1L
tg21
I00
(lp828
g1
(g10
g3
NtRp829
(dp830
g13
g1
(g14
g3
NtRp831
((lp832
g17
(g18
(I0
tS'b'
tRp833
((I1
(L1L
tg21
I00
(lp834
S'Int'
p835
at(Nttba(lp836
g17
(g25
(I0
tS'b'
tRp837
(I1
(L1L
tg21
I00
(lp838
g1
(g10
g3
NtRp839
(dp840
g13
g1
(g14
g3
NtRp841
((lp842
g17
(g18
(I0
tS'b'
tRp843
((I1
(L1L
tg21
I00
(lp844
S'_4_'
p845
at(Nttba(lp846
g17
(g25
(I0
tS'b'
tRp847
(I1
(L1L
tg21
I00
(lp848
g1
(g10
g3
NtRp849
(dp850
g13
g1
(g14
g3
NtRp851
((lp852
g17
(g18
(I0
tS'b'
tRp853
((I1
(L0L
tg21
I00
(lt(Nttba(lp854
g17
(g25
(I0
tS'b'
tRp855
(I1
(L0L
tg21
I00
(ltba(lp856
g853
atbsg111
S'4'
sbatba(lp857
g843
atbsg111
g835
sbatba(lp858
g833
atbsg111
g825
sbatba(lp859
g823
atbsg111
S'Val'
p860
sbatba(lp861
g813
atbsg111
S'Expr'
p862
sbatba(lp863
g739
atbsg111
g731
sbatba(lp864
g729
atbsg111
S'Expr'
p865
sbatba(lp866
g567
atbsg111
g559
sbatba(lp867
g557
atbsg111
S'Expr'
p868
sbag1
(g10
g3
NtRp869
(dp870
g13
g1
(g14
g3
NtRp871
((lp872
g17
(g18
(I0
tS'b'
tRp873
((I1
(L0L
tg21
I00
(lt(Nttba(lp874
g17
(g25
(I0
tS'b'
tRp875
(I1
(L0L
tg21
I00
(ltba(lp876
g873
atbsg111
S'-'
sbag1
(g10
g3
NtRp877
(dp878
g13
g1
(g14
g3
NtRp879
((lp880
g17
(g18
(I0
tS'b'
tRp881
((I1
(L1L
tg21
I00
(lp882
S'Dot_calc'
p883
at(Nttba(lp884
g17
(g25
(I0
tS'b'
tRp885
(I1
(L1L
tg21
I00
(lp886
g1
(g10
g3
NtRp887
(dp888
g13
g1
(g14
g3
NtRp889
((lp890
g17
(g18
(I0
tS'b'
tRp891
((I1
(L3L
tg21
I00
(lp892
S'Expr1'
p893
aS'_/_'
p894
aS'Expr2'
p895
at(Nttba(lp896
g17
(g25
(I0
tS'b'
tRp897
(I1
(L3L
tg21
I00
(lp898
g1
(g10
g3
NtRp899
(dp900
g13
g1
(g14
g3
NtRp901
((lp902
g17
(g18
(I0
tS'b'
tRp903
((I1
(L1L
tg21
I00
(lp904
S'Brackets'
p905
at(Nttba(lp906
g17
(g25
(I0
tS'b'
tRp907
(I1
(L1L
tg21
I00
(lp908
g1
(g10
g3
NtRp909
(dp910
g13
g1
(g14
g3
NtRp911
((lp912
g17
(g18
(I0
tS'b'
tRp913
((I1
(L3L
tg21
I00
(lp914
S'_(_'
p915
aS'Expr'
p916
aS'_)_'
p917
at(Nttba(lp918
g17
(g25
(I0
tS'b'
tRp919
(I1
(L3L
tg21
I00
(lp920
g1
(g10
g3
NtRp921
(dp922
g13
g1
(g14
g3
NtRp923
((lp924
g17
(g18
(I0
tS'b'
tRp925
((I1
(L0L
tg21
I00
(lt(Nttba(lp926
g17
(g25
(I0
tS'b'
tRp927
(I1
(L0L
tg21
I00
(ltba(lp928
g925
atbsg111
S'('
sbag1
(g10
g3
NtRp929
(dp930
g13
g1
(g14
g3
NtRp931
((lp932
g17
(g18
(I0
tS'b'
tRp933
((I1
(L1L
tg21
I00
(lp934
S'Dash_calc'
p935
at(Nttba(lp936
g17
(g25
(I0
tS'b'
tRp937
(I1
(L1L
tg21
I00
(lp938
g1
(g10
g3
NtRp939
(dp940
g13
g1
(g14
g3
NtRp941
((lp942
g17
(g18
(I0
tS'b'
tRp943
((I1
(L3L
tg21
I00
(lp944
S'Expr1'
p945
aS'_-_'
p946
aS'Expr2'
p947
at(Nttba(lp948
g17
(g25
(I0
tS'b'
tRp949
(I1
(L3L
tg21
I00
(lp950
g1
(g10
g3
NtRp951
(dp952
g13
g1
(g14
g3
NtRp953
((lp954
g17
(g18
(I0
tS'b'
tRp955
((I1
(L1L
tg21
I00
(lp956
S'Val_label'
p957
at(Nttba(lp958
g17
(g25
(I0
tS'b'
tRp959
(I1
(L1L
tg21
I00
(lp960
g1
(g10
g3
NtRp961
(dp962
g13
g1
(g14
g3
NtRp963
((lp964
g17
(g18
(I0
tS'b'
tRp965
((I1
(L1L
tg21
I00
(lp966
S'Var'
p967
at(Nttba(lp968
g17
(g25
(I0
tS'b'
tRp969
(I1
(L1L
tg21
I00
(lp970
g1
(g10
g3
NtRp971
(dp972
g13
g1
(g14
g3
NtRp973
((lp974
g17
(g18
(I0
tS'b'
tRp975
((I1
(L1L
tg21
I00
(lp976
S'Id'
p977
at(Nttba(lp978
g17
(g25
(I0
tS'b'
tRp979
(I1
(L1L
tg21
I00
(lp980
g1
(g10
g3
NtRp981
(dp982
g13
g1
(g14
g3
NtRp983
((lp984
g17
(g18
(I0
tS'b'
tRp985
((I1
(L1L
tg21
I00
(lp986
S'_x_'
p987
at(Nttba(lp988
g17
(g25
(I0
tS'b'
tRp989
(I1
(L1L
tg21
I00
(lp990
g1
(g10
g3
NtRp991
(dp992
g13
g1
(g14
g3
NtRp993
((lp994
g17
(g18
(I0
tS'b'
tRp995
((I1
(L0L
tg21
I00
(lt(Nttba(lp996
g17
(g25
(I0
tS'b'
tRp997
(I1
(L0L
tg21
I00
(ltba(lp998
g995
atbsg111
S'x'
sbatba(lp999
g985
atbsg111
g977
sbatba(lp1000
g975
atbsg111
g967
sbatba(lp1001
g965
atbsg111
S'Val'
p1002
sbatba(lp1003
g955
atbsg111
S'Expr'
p1004
sbag1
(g10
g3
NtRp1005
(dp1006
g13
g1
(g14
g3
NtRp1007
((lp1008
g17
(g18
(I0
tS'b'
tRp1009
((I1
(L0L
tg21
I00
(lt(Nttba(lp1010
g17
(g25
(I0
tS'b'
tRp1011
(I1
(L0L
tg21
I00
(ltba(lp1012
g1009
atbsg111
S'-'
sbag1
(g10
g3
NtRp1013
(dp1014
g13
g1
(g14
g3
NtRp1015
((lp1016
g17
(g18
(I0
tS'b'
tRp1017
((I1
(L1L
tg21
I00
(lp1018
S'Val_label'
p1019
at(Nttba(lp1020
g17
(g25
(I0
tS'b'
tRp1021
(I1
(L1L
tg21
I00
(lp1022
g1
(g10
g3
NtRp1023
(dp1024
g13
g1
(g14
g3
NtRp1025
((lp1026
g17
(g18
(I0
tS'b'
tRp1027
((I1
(L1L
tg21
I00
(lp1028
S'Number'
p1029
at(Nttba(lp1030
g17
(g25
(I0
tS'b'
tRp1031
(I1
(L1L
tg21
I00
(lp1032
g1
(g10
g3
NtRp1033
(dp1034
g13
g1
(g14
g3
NtRp1035
((lp1036
g17
(g18
(I0
tS'b'
tRp1037
((I1
(L1L
tg21
I00
(lp1038
S'Int'
p1039
at(Nttba(lp1040
g17
(g25
(I0
tS'b'
tRp1041
(I1
(L1L
tg21
I00
(lp1042
g1
(g10
g3
NtRp1043
(dp1044
g13
g1
(g14
g3
NtRp1045
((lp1046
g17
(g18
(I0
tS'b'
tRp1047
((I1
(L1L
tg21
I00
(lp1048
S'_3_'
p1049
at(Nttba(lp1050
g17
(g25
(I0
tS'b'
tRp1051
(I1
(L1L
tg21
I00
(lp1052
g1
(g10
g3
NtRp1053
(dp1054
g13
g1
(g14
g3
NtRp1055
((lp1056
g17
(g18
(I0
tS'b'
tRp1057
((I1
(L0L
tg21
I00
(lt(Nttba(lp1058
g17
(g25
(I0
tS'b'
tRp1059
(I1
(L0L
tg21
I00
(ltba(lp1060
g1057
atbsg111
S'3'
sbatba(lp1061
g1047
atbsg111
g1039
sbatba(lp1062
g1037
atbsg111
g1029
sbatba(lp1063
g1027
atbsg111
S'Val'
p1064
sbatba(lp1065
g1017
atbsg111
S'Expr'
p1066
sbatba(lp1067
g943
atbsg111
g935
sbatba(lp1068
g933
atbsg111
S'Expr'
p1069
sbag1
(g10
g3
NtRp1070
(dp1071
g13
g1
(g14
g3
NtRp1072
((lp1073
g17
(g18
(I0
tS'b'
tRp1074
((I1
(L0L
tg21
I00
(lt(Nttba(lp1075
g17
(g25
(I0
tS'b'
tRp1076
(I1
(L0L
tg21
I00
(ltba(lp1077
g1074
atbsg111
S')'
sbatba(lp1078
g913
atbsg111
g905
sbatba(lp1079
g903
atbsg111
S'Expr'
p1080
sbag1
(g10
g3
NtRp1081
(dp1082
g13
g1
(g14
g3
NtRp1083
((lp1084
g17
(g18
(I0
tS'b'
tRp1085
((I1
(L0L
tg21
I00
(lt(Nttba(lp1086
g17
(g25
(I0
tS'b'
tRp1087
(I1
(L0L
tg21
I00
(ltba(lp1088
g1085
atbsg111
S'/'
sbag1
(g10
g3
NtRp1089
(dp1090
g13
g1
(g14
g3
NtRp1091
((lp1092
g17
(g18
(I0
tS'b'
tRp1093
((I1
(L1L
tg21
I00
(lp1094
S'Val_label'
p1095
at(Nttba(lp1096
g17
(g25
(I0
tS'b'
tRp1097
(I1
(L1L
tg21
I00
(lp1098
g1
(g10
g3
NtRp1099
(dp1100
g13
g1
(g14
g3
NtRp1101
((lp1102
g17
(g18
(I0
tS'b'
tRp1103
((I1
(L1L
tg21
I00
(lp1104
S'Var'
p1105
at(Nttba(lp1106
g17
(g25
(I0
tS'b'
tRp1107
(I1
(L1L
tg21
I00
(lp1108
g1
(g10
g3
NtRp1109
(dp1110
g13
g1
(g14
g3
NtRp1111
((lp1112
g17
(g18
(I0
tS'b'
tRp1113
((I1
(L1L
tg21
I00
(lp1114
S'Id'
p1115
at(Nttba(lp1116
g17
(g25
(I0
tS'b'
tRp1117
(I1
(L1L
tg21
I00
(lp1118
g1
(g10
g3
NtRp1119
(dp1120
g13
g1
(g14
g3
NtRp1121
((lp1122
g17
(g18
(I0
tS'b'
tRp1123
((I1
(L1L
tg21
I00
(lp1124
S'_x_'
p1125
at(Nttba(lp1126
g17
(g25
(I0
tS'b'
tRp1127
(I1
(L1L
tg21
I00
(lp1128
g1
(g10
g3
NtRp1129
(dp1130
g13
g1
(g14
g3
NtRp1131
((lp1132
g17
(g18
(I0
tS'b'
tRp1133
((I1
(L0L
tg21
I00
(lt(Nttba(lp1134
g17
(g25
(I0
tS'b'
tRp1135
(I1
(L0L
tg21
I00
(ltba(lp1136
g1133
atbsg111
S'x'
sbatba(lp1137
g1123
atbsg111
g1115
sbatba(lp1138
g1113
atbsg111
g1105
sbatba(lp1139
g1103
atbsg111
S'Val'
p1140
sbatba(lp1141
g1093
atbsg111
S'Expr'
p1142
sbatba(lp1143
g891
atbsg111
g883
sbatba(lp1144
g881
atbsg111
S'Expr'
p1145
sbatba(lp1146
g545
atbsg111
g537
sbatba(lp1147
g535
atbsg111
S'Expr'
p1148
sbag1
(g10
g3
NtRp1149
(dp1150
g13
g1
(g14
g3
NtRp1151
((lp1152
g17
(g18
(I0
tS'b'
tRp1153
((I1
(L0L
tg21
I00
(lt(Nttba(lp1154
g17
(g25
(I0
tS'b'
tRp1155
(I1
(L0L
tg21
I00
(ltba(lp1156
g1153
atbsg111
S'-'
sbag1
(g10
g3
NtRp1157
(dp1158
g13
g1
(g14
g3
NtRp1159
((lp1160
g17
(g18
(I0
tS'b'
tRp1161
((I1
(L1L
tg21
I00
(lp1162
S'Val_label'
p1163
at(Nttba(lp1164
g17
(g25
(I0
tS'b'
tRp1165
(I1
(L1L
tg21
I00
(lp1166
g1
(g10
g3
NtRp1167
(dp1168
g13
g1
(g14
g3
NtRp1169
((lp1170
g17
(g18
(I0
tS'b'
tRp1171
((I1
(L1L
tg21
I00
(lp1172
S'Number'
p1173
at(Nttba(lp1174
g17
(g25
(I0
tS'b'
tRp1175
(I1
(L1L
tg21
I00
(lp1176
g1
(g10
g3
NtRp1177
(dp1178
g13
g1
(g14
g3
NtRp1179
((lp1180
g17
(g18
(I0
tS'b'
tRp1181
((I1
(L1L
tg21
I00
(lp1182
S'Float'
p1183
at(Nttba(lp1184
g17
(g25
(I0
tS'b'
tRp1185
(I1
(L1L
tg21
I00
(lp1186
g1
(g10
g3
NtRp1187
(dp1188
g13
g1
(g14
g3
NtRp1189
((lp1190
g17
(g18
(I0
tS'b'
tRp1191
((I1
(L1L
tg21
I00
(lp1192
S'_1.3e2_'
p1193
at(Nttba(lp1194
g17
(g25
(I0
tS'b'
tRp1195
(I1
(L1L
tg21
I00
(lp1196
g1
(g10
g3
NtRp1197
(dp1198
g13
g1
(g14
g3
NtRp1199
((lp1200
g17
(g18
(I0
tS'b'
tRp1201
((I1
(L0L
tg21
I00
(lt(Nttba(lp1202
g17
(g25
(I0
tS'b'
tRp1203
(I1
(L0L
tg21
I00
(ltba(lp1204
g1201
atbsg111
S'1.3e2'
p1205
sbatba(lp1206
g1191
atbsg111
g1183
sbatba(lp1207
g1181
atbsg111
g1173
sbatba(lp1208
g1171
atbsg111
S'Val'
p1209
sbatba(lp1210
g1161
atbsg111
S'Expr'
p1211
sbatba(lp1212
g523
atbsg111
g515
sbatba(lp1213
g513
atbsg111
S'Expr'
p1214
sbag1
(g10
g3
NtRp1215
(dp1216
g13
g1
(g14
g3
NtRp1217
((lp1218
g17
(g18
(I0
tS'b'
tRp1219
((I1
(L0L
tg21
I00
(lt(Nttba(lp1220
g17
(g25
(I0
tS'b'
tRp1221
(I1
(L0L
tg21
I00
(ltba(lp1222
g1219
atbsg111
S'+'
sbag1
(g10
g3
NtRp1223
(dp1224
g13
g1
(g14
g3
NtRp1225
((lp1226
g17
(g18
(I0
tS'b'
tRp1227
((I1
(L1L
tg21
I00
(lp1228
S'Val_label'
p1229
at(Nttba(lp1230
g17
(g25
(I0
tS'b'
tRp1231
(I1
(L1L
tg21
I00
(lp1232
g1
(g10
g3
NtRp1233
(dp1234
g13
g1
(g14
g3
NtRp1235
((lp1236
g17
(g18
(I0
tS'b'
tRp1237
((I1
(L1L
tg21
I00
(lp1238
S'Number'
p1239
at(Nttba(lp1240
g17
(g25
(I0
tS'b'
tRp1241
(I1
(L1L
tg21
I00
(lp1242
g1
(g10
g3
NtRp1243
(dp1244
g13
g1
(g14
g3
NtRp1245
((lp1246
g17
(g18
(I0
tS'b'
tRp1247
((I1
(L1L
tg21
I00
(lp1248
S'Int'
p1249
at(Nttba(lp1250
g17
(g25
(I0
tS'b'
tRp1251
(I1
(L1L
tg21
I00
(lp1252
g1
(g10
g3
NtRp1253
(dp1254
g13
g1
(g14
g3
NtRp1255
((lp1256
g17
(g18
(I0
tS'b'
tRp1257
((I1
(L1L
tg21
I00
(lp1258
S'_2_'
p1259
at(Nttba(lp1260
g17
(g25
(I0
tS'b'
tRp1261
(I1
(L1L
tg21
I00
(lp1262
g1
(g10
g3
NtRp1263
(dp1264
g13
g1
(g14
g3
NtRp1265
((lp1266
g17
(g18
(I0
tS'b'
tRp1267
((I1
(L0L
tg21
I00
(lt(Nttba(lp1268
g17
(g25
(I0
tS'b'
tRp1269
(I1
(L0L
tg21
I00
(ltba(lp1270
g1267
atbsg111
S'2'
sbatba(lp1271
g1257
atbsg111
g1249
sbatba(lp1272
g1247
atbsg111
g1239
sbatba(lp1273
g1237
atbsg111
S'Val'
p1274
sbatba(lp1275
g1227
atbsg111
S'Expr'
p1276
sbatba(lp1277
g501
atbsg111
g493
sbatba(lp1278
g491
atbsg111
S'Expr'
p1279
sbag1
(g10
g3
NtRp1280
(dp1281
g13
g1
(g14
g3
NtRp1282
((lp1283
g17
(g18
(I0
tS'b'
tRp1284
((I1
(L0L
tg21
I00
(lt(Nttba(lp1285
g17
(g25
(I0
tS'b'
tRp1286
(I1
(L0L
tg21
I00
(ltba(lp1287
g1284
atbsg111
S'+'
sbag1
(g10
g3
NtRp1288
(dp1289
g13
g1
(g14
g3
NtRp1290
((lp1291
g17
(g18
(I0
tS'b'
tRp1292
((I1
(L1L
tg21
I00
(lp1293
S'Val_label'
p1294
at(Nttba(lp1295
g17
(g25
(I0
tS'b'
tRp1296
(I1
(L1L
tg21
I00
(lp1297
g1
(g10
g3
NtRp1298
(dp1299
g13
g1
(g14
g3
NtRp1300
((lp1301
g17
(g18
(I0
tS'b'
tRp1302
((I1
(L1L
tg21
I00
(lp1303
S'Number'
p1304
at(Nttba(lp1305
g17
(g25
(I0
tS'b'
tRp1306
(I1
(L1L
tg21
I00
(lp1307
g1
(g10
g3
NtRp1308
(dp1309
g13
g1
(g14
g3
NtRp1310
((lp1311
g17
(g18
(I0
tS'b'
tRp1312
((I1
(L1L
tg21
I00
(lp1313
S'Int'
p1314
at(Nttba(lp1315
g17
(g25
(I0
tS'b'
tRp1316
(I1
(L1L
tg21
I00
(lp1317
g1
(g10
g3
NtRp1318
(dp1319
g13
g1
(g14
g3
NtRp1320
((lp1321
g17
(g18
(I0
tS'b'
tRp1322
((I1
(L1L
tg21
I00
(lp1323
S'_5_'
p1324
at(Nttba(lp1325
g17
(g25
(I0
tS'b'
tRp1326
(I1
(L1L
tg21
I00
(lp1327
g1
(g10
g3
NtRp1328
(dp1329
g13
g1
(g14
g3
NtRp1330
((lp1331
g17
(g18
(I0
tS'b'
tRp1332
((I1
(L0L
tg21
I00
(lt(Nttba(lp1333
g17
(g25
(I0
tS'b'
tRp1334
(I1
(L0L
tg21
I00
(ltba(lp1335
g1332
atbsg111
S'5'
sbatba(lp1336
g1322
atbsg111
g1314
sbatba(lp1337
g1312
atbsg111
g1304
sbatba(lp1338
g1302
atbsg111
S'Val'
p1339
sbatba(lp1340
g1292
atbsg111
S'Expr'
p1341
sbatba(lp1342
g479
atbsg111
g471
sbatba(lp1343
g469
atbsg111
S'Expr'
p1344
sbatba(lp1345
g459
atbsg111
g442
sbatba(lp1346
g439
atbsg111
g430
sbag1
(g10
g3
NtRp1347
(dp1348
g13
g1
(g14
g3
NtRp1349
((lp1350
g17
(g18
(I0
tS'b'
tRp1351
((I1
(L0L
tg21
I00
(lt(Nttba(lp1352
g17
(g25
(I0
tS'b'
tRp1353
(I1
(L0L
tg21
I00
(ltba(lp1354
g1351
atbsg111
S';'
sbatba(lp1355
g428
atbsg111
g420
sbatba(lp1356
g418
atbsg111
S'Stmt'
p1357
sbatba(lp1358
g320
atbsg111
g291
sbag1
(g10
g3
NtRp1359
(dp1360
g13
g1
(g14
g3
NtRp1361
((lp1362
g17
(g18
(I0
tS'b'
tRp1363
((I1
(L1L
tg21
I00
(lp1364
S'_$blockend_'
p1365
at(Nttba(lp1366
g17
(g25
(I0
tS'b'
tRp1367
(I1
(L1L
tg21
I00
(lp1368
g1
(g10
g3
NtRp1369
(dp1370
g13
g1
(g14
g3
NtRp1371
((lp1372
g17
(g18
(I0
tS'b'
tRp1373
((I1
(L0L
tg21
I00
(lt(Nttba(lp1374
g17
(g25
(I0
tS'b'
tRp1375
(I1
(L0L
tg21
I00
(ltba(lp1376
g1373
atbsg111
S'$blockend'
p1377
sbatba(lp1378
g1363
atbsg111
g292
sbatba(lp1379
g288
atbsg111
g147
sbatba(lp1380
g144
atbsg111
g136
sbatba(lp1381
g134
atbsg111
S'Stmt'
p1382
sbag1
(g10
g3
NtRp1383
(dp1384
g13
g1
(g14
g3
NtRp1385
((lp1386
g17
(g18
(I0
tS'b'
tRp1387
((I1
(L1L
tg21
I00
(lp1388
S'Single_stmt'
p1389
at(Nttba(lp1390
g17
(g25
(I0
tS'b'
tRp1391
(I1
(L1L
tg21
I00
(lp1392
g1
(g10
g3
NtRp1393
(dp1394
g13
g1
(g14
g3
NtRp1395
((lp1396
g17
(g18
(I0
tS'b'
tRp1397
((I1
(L2L
tg21
I00
(lp1398
S'Assign_stmt'
p1399
aS'_;_'
p1400
at(Nttba(lp1401
g17
(g25
(I0
tS'b'
tRp1402
(I1
(L2L
tg21
I00
(lp1403
g1
(g10
g3
NtRp1404
(dp1405
g13
g1
(g14
g3
NtRp1406
((lp1407
g17
(g18
(I0
tS'b'
tRp1408
((I1
(L1L
tg21
I00
(lp1409
S'Assign'
p1410
at(Nttba(lp1411
g17
(g25
(I0
tS'b'
tRp1412
(I1
(L1L
tg21
I00
(lp1413
g1
(g10
g3
NtRp1414
(dp1415
g13
g1
(g14
g3
NtRp1416
((lp1417
g17
(g18
(I0
tS'b'
tRp1418
((I1
(L3L
tg21
I00
(lp1419
S'Varlist'
p1420
aS'_=_'
p1421
aS'Exprlist'
p1422
at(Nttba(lp1423
g17
(g25
(I0
tS'b'
tRp1424
(I1
(L3L
tg21
I00
(lp1425
g1
(g10
g3
NtRp1426
(dp1427
g13
g1
(g14
g3
NtRp1428
((lp1429
g17
(g18
(I0
tS'b'
tRp1430
((I1
(L1L
tg21
I00
(lp1431
S'Vartuple'
p1432
at(Nttba(lp1433
g17
(g25
(I0
tS'b'
tRp1434
(I1
(L1L
tg21
I00
(lp1435
g1
(g10
g3
NtRp1436
(dp1437
g13
g1
(g14
g3
NtRp1438
((lp1439
g17
(g18
(I0
tS'b'
tRp1440
((I1
(L1L
tg21
I00
(lp1441
S'Var'
p1442
at(Nttba(lp1443
g17
(g25
(I0
tS'b'
tRp1444
(I1
(L1L
tg21
I00
(lp1445
g1
(g10
g3
NtRp1446
(dp1447
g13
g1
(g14
g3
NtRp1448
((lp1449
g17
(g18
(I0
tS'b'
tRp1450
((I1
(L1L
tg21
I00
(lp1451
S'Id'
p1452
at(Nttba(lp1453
g17
(g25
(I0
tS'b'
tRp1454
(I1
(L1L
tg21
I00
(lp1455
g1
(g10
g3
NtRp1456
(dp1457
g13
g1
(g14
g3
NtRp1458
((lp1459
g17
(g18
(I0
tS'b'
tRp1460
((I1
(L1L
tg21
I00
(lp1461
S'_L_'
p1462
at(Nttba(lp1463
g17
(g25
(I0
tS'b'
tRp1464
(I1
(L1L
tg21
I00
(lp1465
g1
(g10
g3
NtRp1466
(dp1467
g13
g1
(g14
g3
NtRp1468
((lp1469
g17
(g18
(I0
tS'b'
tRp1470
((I1
(L0L
tg21
I00
(lt(Nttba(lp1471
g17
(g25
(I0
tS'b'
tRp1472
(I1
(L0L
tg21
I00
(ltba(lp1473
g1470
atbsg111
S'L'
sbatba(lp1474
g1460
atbsg111
g1452
sbatba(lp1475
g1450
atbsg111
g1442
sbatba(lp1476
g1440
atbsg111
g1432
sbatba(lp1477
g1430
atbsg111
g1420
sbag1
(g10
g3
NtRp1478
(dp1479
g13
g1
(g14
g3
NtRp1480
((lp1481
g17
(g18
(I0
tS'b'
tRp1482
((I1
(L0L
tg21
I00
(lt(Nttba(lp1483
g17
(g25
(I0
tS'b'
tRp1484
(I1
(L0L
tg21
I00
(ltba(lp1485
g1482
atbsg111
S'='
sbag1
(g10
g3
NtRp1486
(dp1487
g13
g1
(g14
g3
NtRp1488
((lp1489
g17
(g18
(I0
tS'b'
tRp1490
((I1
(L1L
tg21
I00
(lp1491
S'Expr'
p1492
at(Nttba(lp1493
g17
(g25
(I0
tS'b'
tRp1494
(I1
(L1L
tg21
I00
(lp1495
g1
(g10
g3
NtRp1496
(dp1497
g13
g1
(g14
g3
NtRp1498
((lp1499
g17
(g18
(I0
tS'b'
tRp1500
((I1
(L1L
tg21
I00
(lp1501
S'Dot_calc'
p1502
at(Nttba(lp1503
g17
(g25
(I0
tS'b'
tRp1504
(I1
(L1L
tg21
I00
(lp1505
g1
(g10
g3
NtRp1506
(dp1507
g13
g1
(g14
g3
NtRp1508
((lp1509
g17
(g18
(I0
tS'b'
tRp1510
((I1
(L3L
tg21
I00
(lp1511
S'Expr1'
p1512
aS'_*_'
p1513
aS'Expr2'
p1514
at(Nttba(lp1515
g17
(g25
(I0
tS'b'
tRp1516
(I1
(L3L
tg21
I00
(lp1517
g1
(g10
g3
NtRp1518
(dp1519
g13
g1
(g14
g3
NtRp1520
((lp1521
g17
(g18
(I0
tS'b'
tRp1522
((I1
(L1L
tg21
I00
(lp1523
S'Val_label'
p1524
at(Nttba(lp1525
g17
(g25
(I0
tS'b'
tRp1526
(I1
(L1L
tg21
I00
(lp1527
g1
(g10
g3
NtRp1528
(dp1529
g13
g1
(g14
g3
NtRp1530
((lp1531
g17
(g18
(I0
tS'b'
tRp1532
((I1
(L1L
tg21
I00
(lp1533
S'List'
p1534
at(Nttba(lp1535
g17
(g25
(I0
tS'b'
tRp1536
(I1
(L1L
tg21
I00
(lp1537
g1
(g10
g3
NtRp1538
(dp1539
g13
g1
(g14
g3
NtRp1540
((lp1541
g17
(g18
(I0
tS'b'
tRp1542
((I1
(L3L
tg21
I00
(lp1543
S'_[_'
p1544
aS'Exprlist'
p1545
aS'_]_'
p1546
at(Nttba(lp1547
g17
(g25
(I0
tS'b'
tRp1548
(I1
(L3L
tg21
I00
(lp1549
g1
(g10
g3
NtRp1550
(dp1551
g13
g1
(g14
g3
NtRp1552
((lp1553
g17
(g18
(I0
tS'b'
tRp1554
((I1
(L0L
tg21
I00
(lt(Nttba(lp1555
g17
(g25
(I0
tS'b'
tRp1556
(I1
(L0L
tg21
I00
(ltba(lp1557
g1554
atbsg111
S'['
sbag1
(g10
g3
NtRp1558
(dp1559
g13
g1
(g14
g3
NtRp1560
((lp1561
g17
(g18
(I0
tS'b'
tRp1562
((I1
(L1L
tg21
I00
(lp1563
S'Expr'
p1564
at(Nttba(lp1565
g17
(g25
(I0
tS'b'
tRp1566
(I1
(L1L
tg21
I00
(lp1567
g1
(g10
g3
NtRp1568
(dp1569
g13
g1
(g14
g3
NtRp1570
((lp1571
g17
(g18
(I0
tS'b'
tRp1572
((I1
(L1L
tg21
I00
(lp1573
S'Val_label'
p1574
at(Nttba(lp1575
g17
(g25
(I0
tS'b'
tRp1576
(I1
(L1L
tg21
I00
(lp1577
g1
(g10
g3
NtRp1578
(dp1579
g13
g1
(g14
g3
NtRp1580
((lp1581
g17
(g18
(I0
tS'b'
tRp1582
((I1
(L1L
tg21
I00
(lp1583
S'Number'
p1584
at(Nttba(lp1585
g17
(g25
(I0
tS'b'
tRp1586
(I1
(L1L
tg21
I00
(lp1587
g1
(g10
g3
NtRp1588
(dp1589
g13
g1
(g14
g3
NtRp1590
((lp1591
g17
(g18
(I0
tS'b'
tRp1592
((I1
(L1L
tg21
I00
(lp1593
S'Int'
p1594
at(Nttba(lp1595
g17
(g25
(I0
tS'b'
tRp1596
(I1
(L1L
tg21
I00
(lp1597
g1
(g10
g3
NtRp1598
(dp1599
g13
g1
(g14
g3
NtRp1600
((lp1601
g17
(g18
(I0
tS'b'
tRp1602
((I1
(L1L
tg21
I00
(lp1603
S'_0_'
p1604
at(Nttba(lp1605
g17
(g25
(I0
tS'b'
tRp1606
(I1
(L1L
tg21
I00
(lp1607
g1
(g10
g3
NtRp1608
(dp1609
g13
g1
(g14
g3
NtRp1610
((lp1611
g17
(g18
(I0
tS'b'
tRp1612
((I1
(L0L
tg21
I00
(lt(Nttba(lp1613
g17
(g25
(I0
tS'b'
tRp1614
(I1
(L0L
tg21
I00
(ltba(lp1615
g1612
atbsg111
S'0'
sbatba(lp1616
g1602
atbsg111
g1594
sbatba(lp1617
g1592
atbsg111
g1584
sbatba(lp1618
g1582
atbsg111
S'Val'
p1619
sbatba(lp1620
g1572
atbsg111
S'Expr'
p1621
sbatba(lp1622
g1562
atbsg111
g1545
sbag1
(g10
g3
NtRp1623
(dp1624
g13
g1
(g14
g3
NtRp1625
((lp1626
g17
(g18
(I0
tS'b'
tRp1627
((I1
(L0L
tg21
I00
(lt(Nttba(lp1628
g17
(g25
(I0
tS'b'
tRp1629
(I1
(L0L
tg21
I00
(ltba(lp1630
g1627
atbsg111
S']'
sbatba(lp1631
g1542
atbsg111
g1534
sbatba(lp1632
g1532
atbsg111
S'Val'
p1633
sbatba(lp1634
g1522
atbsg111
S'Expr'
p1635
sbag1
(g10
g3
NtRp1636
(dp1637
g13
g1
(g14
g3
NtRp1638
((lp1639
g17
(g18
(I0
tS'b'
tRp1640
((I1
(L0L
tg21
I00
(lt(Nttba(lp1641
g17
(g25
(I0
tS'b'
tRp1642
(I1
(L0L
tg21
I00
(ltba(lp1643
g1640
atbsg111
S'*'
sbag1
(g10
g3
NtRp1644
(dp1645
g13
g1
(g14
g3
NtRp1646
((lp1647
g17
(g18
(I0
tS'b'
tRp1648
((I1
(L1L
tg21
I00
(lp1649
S'Val_label'
p1650
at(Nttba(lp1651
g17
(g25
(I0
tS'b'
tRp1652
(I1
(L1L
tg21
I00
(lp1653
g1
(g10
g3
NtRp1654
(dp1655
g13
g1
(g14
g3
NtRp1656
((lp1657
g17
(g18
(I0
tS'b'
tRp1658
((I1
(L1L
tg21
I00
(lp1659
S'Number'
p1660
at(Nttba(lp1661
g17
(g25
(I0
tS'b'
tRp1662
(I1
(L1L
tg21
I00
(lp1663
g1
(g10
g3
NtRp1664
(dp1665
g13
g1
(g14
g3
NtRp1666
((lp1667
g17
(g18
(I0
tS'b'
tRp1668
((I1
(L1L
tg21
I00
(lp1669
S'Int'
p1670
at(Nttba(lp1671
g17
(g25
(I0
tS'b'
tRp1672
(I1
(L1L
tg21
I00
(lp1673
g1
(g10
g3
NtRp1674
(dp1675
g13
g1
(g14
g3
NtRp1676
((lp1677
g17
(g18
(I0
tS'b'
tRp1678
((I1
(L1L
tg21
I00
(lp1679
S'_10_'
p1680
at(Nttba(lp1681
g17
(g25
(I0
tS'b'
tRp1682
(I1
(L1L
tg21
I00
(lp1683
g1
(g10
g3
NtRp1684
(dp1685
g13
g1
(g14
g3
NtRp1686
((lp1687
g17
(g18
(I0
tS'b'
tRp1688
((I1
(L0L
tg21
I00
(lt(Nttba(lp1689
g17
(g25
(I0
tS'b'
tRp1690
(I1
(L0L
tg21
I00
(ltba(lp1691
g1688
atbsg111
S'10'
p1692
sbatba(lp1693
g1678
atbsg111
g1670
sbatba(lp1694
g1668
atbsg111
g1660
sbatba(lp1695
g1658
atbsg111
S'Val'
p1696
sbatba(lp1697
g1648
atbsg111
S'Expr'
p1698
sbatba(lp1699
g1510
atbsg111
g1502
sbatba(lp1700
g1500
atbsg111
S'Expr'
p1701
sbatba(lp1702
g1490
atbsg111
g1422
sbatba(lp1703
g1418
atbsg111
g1410
sbatba(lp1704
g1408
atbsg111
g1399
sbag1
(g10
g3
NtRp1705
(dp1706
g13
g1
(g14
g3
NtRp1707
((lp1708
g17
(g18
(I0
tS'b'
tRp1709
((I1
(L0L
tg21
I00
(lt(Nttba(lp1710
g17
(g25
(I0
tS'b'
tRp1711
(I1
(L0L
tg21
I00
(ltba(lp1712
g1709
atbsg111
S';'
sbatba(lp1713
g1397
atbsg111
g1389
sbatba(lp1714
g1387
atbsg111
S'Stmt'
p1715
sbag1
(g10
g3
NtRp1716
(dp1717
g13
g1
(g14
g3
NtRp1718
((lp1719
g17
(g18
(I0
tS'b'
tRp1720
((I1
(L1L
tg21
I00
(lp1721
S'Block_stmt'
p1722
at(Nttba(lp1723
g17
(g25
(I0
tS'b'
tRp1724
(I1
(L1L
tg21
I00
(lp1725
g1
(g10
g3
NtRp1726
(dp1727
g13
g1
(g14
g3
NtRp1728
((lp1729
g17
(g18
(I0
tS'b'
tRp1730
((I1
(L2L
tg21
I00
(lp1731
S'Block_head'
p1732
aS'Block'
p1733
at(Nttba(lp1734
g17
(g25
(I0
tS'b'
tRp1735
(I1
(L2L
tg21
I00
(lp1736
g1
(g10
g3
NtRp1737
(dp1738
g13
g1
(g14
g3
NtRp1739
((lp1740
g17
(g18
(I0
tS'b'
tRp1741
((I1
(L1L
tg21
I00
(lp1742
S'Loop'
p1743
at(Nttba(lp1744
g17
(g25
(I0
tS'b'
tRp1745
(I1
(L1L
tg21
I00
(lp1746
g1
(g10
g3
NtRp1747
(dp1748
g13
g1
(g14
g3
NtRp1749
((lp1750
g17
(g18
(I0
tS'b'
tRp1751
((I1
(L1L
tg21
I00
(lp1752
S'For'
p1753
at(Nttba(lp1754
g17
(g25
(I0
tS'b'
tRp1755
(I1
(L1L
tg21
I00
(lp1756
g1
(g10
g3
NtRp1757
(dp1758
g13
g1
(g14
g3
NtRp1759
((lp1760
g17
(g18
(I0
tS'b'
tRp1761
((I1
(L4L
tg21
I00
(lp1762
S'_for_'
p1763
aS'Varlist'
p1764
aS'_in_'
p1765
aS'Exprlist'
p1766
at(Nttba(lp1767
g17
(g25
(I0
tS'b'
tRp1768
(I1
(L4L
tg21
I00
(lp1769
g1
(g10
g3
NtRp1770
(dp1771
g13
g1
(g14
g3
NtRp1772
((lp1773
g17
(g18
(I0
tS'b'
tRp1774
((I1
(L0L
tg21
I00
(lt(Nttba(lp1775
g17
(g25
(I0
tS'b'
tRp1776
(I1
(L0L
tg21
I00
(ltba(lp1777
g1774
atbsg111
S'for'
p1778
sbag1
(g10
g3
NtRp1779
(dp1780
g13
g1
(g14
g3
NtRp1781
((lp1782
g17
(g18
(I0
tS'b'
tRp1783
((I1
(L1L
tg21
I00
(lp1784
S'Vartuple'
p1785
at(Nttba(lp1786
g17
(g25
(I0
tS'b'
tRp1787
(I1
(L1L
tg21
I00
(lp1788
g1
(g10
g3
NtRp1789
(dp1790
g13
g1
(g14
g3
NtRp1791
((lp1792
g17
(g18
(I0
tS'b'
tRp1793
((I1
(L1L
tg21
I00
(lp1794
S'Var'
p1795
at(Nttba(lp1796
g17
(g25
(I0
tS'b'
tRp1797
(I1
(L1L
tg21
I00
(lp1798
g1
(g10
g3
NtRp1799
(dp1800
g13
g1
(g14
g3
NtRp1801
((lp1802
g17
(g18
(I0
tS'b'
tRp1803
((I1
(L1L
tg21
I00
(lp1804
S'Id'
p1805
at(Nttba(lp1806
g17
(g25
(I0
tS'b'
tRp1807
(I1
(L1L
tg21
I00
(lp1808
g1
(g10
g3
NtRp1809
(dp1810
g13
g1
(g14
g3
NtRp1811
((lp1812
g17
(g18
(I0
tS'b'
tRp1813
((I1
(L1L
tg21
I00
(lp1814
S'_i_'
p1815
at(Nttba(lp1816
g17
(g25
(I0
tS'b'
tRp1817
(I1
(L1L
tg21
I00
(lp1818
g1
(g10
g3
NtRp1819
(dp1820
g13
g1
(g14
g3
NtRp1821
((lp1822
g17
(g18
(I0
tS'b'
tRp1823
((I1
(L0L
tg21
I00
(lt(Nttba(lp1824
g17
(g25
(I0
tS'b'
tRp1825
(I1
(L0L
tg21
I00
(ltba(lp1826
g1823
atbsg111
S'i'
sbatba(lp1827
g1813
atbsg111
g1805
sbatba(lp1828
g1803
atbsg111
g1795
sbatba(lp1829
g1793
atbsg111
g1785
sbatba(lp1830
g1783
atbsg111
g1764
sbag1
(g10
g3
NtRp1831
(dp1832
g13
g1
(g14
g3
NtRp1833
((lp1834
g17
(g18
(I0
tS'b'
tRp1835
((I1
(L0L
tg21
I00
(lt(Nttba(lp1836
g17
(g25
(I0
tS'b'
tRp1837
(I1
(L0L
tg21
I00
(ltba(lp1838
g1835
atbsg111
S'in'
p1839
sbag1
(g10
g3
NtRp1840
(dp1841
g13
g1
(g14
g3
NtRp1842
((lp1843
g17
(g18
(I0
tS'b'
tRp1844
((I1
(L1L
tg21
I00
(lp1845
S'Expr'
p1846
at(Nttba(lp1847
g17
(g25
(I0
tS'b'
tRp1848
(I1
(L1L
tg21
I00
(lp1849
g1
(g10
g3
NtRp1850
(dp1851
g13
g1
(g14
g3
NtRp1852
((lp1853
g17
(g18
(I0
tS'b'
tRp1854
((I1
(L1L
tg21
I00
(lp1855
S'Funccall'
p1856
at(Nttba(lp1857
g17
(g25
(I0
tS'b'
tRp1858
(I1
(L1L
tg21
I00
(lp1859
g1
(g10
g3
NtRp1860
(dp1861
g13
g1
(g14
g3
NtRp1862
((lp1863
g17
(g18
(I0
tS'b'
tRp1864
((I1
(L4L
tg21
I00
(lp1865
S'Expr'
p1866
aS'_(_'
p1867
aS'Arglist'
p1868
aS'_)_'
p1869
at(Nttba(lp1870
g17
(g25
(I0
tS'b'
tRp1871
(I1
(L4L
tg21
I00
(lp1872
g1
(g10
g3
NtRp1873
(dp1874
g13
g1
(g14
g3
NtRp1875
((lp1876
g17
(g18
(I0
tS'b'
tRp1877
((I1
(L1L
tg21
I00
(lp1878
S'Val_label'
p1879
at(Nttba(lp1880
g17
(g25
(I0
tS'b'
tRp1881
(I1
(L1L
tg21
I00
(lp1882
g1
(g10
g3
NtRp1883
(dp1884
g13
g1
(g14
g3
NtRp1885
((lp1886
g17
(g18
(I0
tS'b'
tRp1887
((I1
(L1L
tg21
I00
(lp1888
S'Var'
p1889
at(Nttba(lp1890
g17
(g25
(I0
tS'b'
tRp1891
(I1
(L1L
tg21
I00
(lp1892
g1
(g10
g3
NtRp1893
(dp1894
g13
g1
(g14
g3
NtRp1895
((lp1896
g17
(g18
(I0
tS'b'
tRp1897
((I1
(L1L
tg21
I00
(lp1898
S'Id'
p1899
at(Nttba(lp1900
g17
(g25
(I0
tS'b'
tRp1901
(I1
(L1L
tg21
I00
(lp1902
g1
(g10
g3
NtRp1903
(dp1904
g13
g1
(g14
g3
NtRp1905
((lp1906
g17
(g18
(I0
tS'b'
tRp1907
((I1
(L1L
tg21
I00
(lp1908
S'_range_'
p1909
at(Nttba(lp1910
g17
(g25
(I0
tS'b'
tRp1911
(I1
(L1L
tg21
I00
(lp1912
g1
(g10
g3
NtRp1913
(dp1914
g13
g1
(g14
g3
NtRp1915
((lp1916
g17
(g18
(I0
tS'b'
tRp1917
((I1
(L0L
tg21
I00
(lt(Nttba(lp1918
g17
(g25
(I0
tS'b'
tRp1919
(I1
(L0L
tg21
I00
(ltba(lp1920
g1917
atbsg111
S'range'
p1921
sbatba(lp1922
g1907
atbsg111
g1899
sbatba(lp1923
g1897
atbsg111
g1889
sbatba(lp1924
g1887
atbsg111
S'Val'
p1925
sbatba(lp1926
g1877
atbsg111
S'Expr'
p1927
sbag1
(g10
g3
NtRp1928
(dp1929
g13
g1
(g14
g3
NtRp1930
((lp1931
g17
(g18
(I0
tS'b'
tRp1932
((I1
(L0L
tg21
I00
(lt(Nttba(lp1933
g17
(g25
(I0
tS'b'
tRp1934
(I1
(L0L
tg21
I00
(ltba(lp1935
g1932
atbsg111
S'('
sbag1
(g10
g3
NtRp1936
(dp1937
g13
g1
(g14
g3
NtRp1938
((lp1939
g17
(g18
(I0
tS'b'
tRp1940
((I1
(L1L
tg21
I00
(lp1941
S'Pos_arglist'
p1942
at(Nttba(lp1943
g17
(g25
(I0
tS'b'
tRp1944
(I1
(L1L
tg21
I00
(lp1945
g1
(g10
g3
NtRp1946
(dp1947
g13
g1
(g14
g3
NtRp1948
((lp1949
g17
(g18
(I0
tS'b'
tRp1950
((I1
(L1L
tg21
I00
(lp1951
S'Pos_arg'
p1952
at(Nttba(lp1953
g17
(g25
(I0
tS'b'
tRp1954
(I1
(L1L
tg21
I00
(lp1955
g1
(g10
g3
NtRp1956
(dp1957
g13
g1
(g14
g3
NtRp1958
((lp1959
g17
(g18
(I0
tS'b'
tRp1960
((I1
(L1L
tg21
I00
(lp1961
S'Expr'
p1962
at(Nttba(lp1963
g17
(g25
(I0
tS'b'
tRp1964
(I1
(L1L
tg21
I00
(lp1965
g1
(g10
g3
NtRp1966
(dp1967
g13
g1
(g14
g3
NtRp1968
((lp1969
g17
(g18
(I0
tS'b'
tRp1970
((I1
(L1L
tg21
I00
(lp1971
S'Funccall'
p1972
at(Nttba(lp1973
g17
(g25
(I0
tS'b'
tRp1974
(I1
(L1L
tg21
I00
(lp1975
g1
(g10
g3
NtRp1976
(dp1977
g13
g1
(g14
g3
NtRp1978
((lp1979
g17
(g18
(I0
tS'b'
tRp1980
((I1
(L4L
tg21
I00
(lp1981
S'Expr'
p1982
aS'_(_'
p1983
aS'Arglist'
p1984
aS'_)_'
p1985
at(Nttba(lp1986
g17
(g25
(I0
tS'b'
tRp1987
(I1
(L4L
tg21
I00
(lp1988
g1
(g10
g3
NtRp1989
(dp1990
g13
g1
(g14
g3
NtRp1991
((lp1992
g17
(g18
(I0
tS'b'
tRp1993
((I1
(L1L
tg21
I00
(lp1994
S'Val_label'
p1995
at(Nttba(lp1996
g17
(g25
(I0
tS'b'
tRp1997
(I1
(L1L
tg21
I00
(lp1998
g1
(g10
g3
NtRp1999
(dp2000
g13
g1
(g14
g3
NtRp2001
((lp2002
g17
(g18
(I0
tS'b'
tRp2003
((I1
(L1L
tg21
I00
(lp2004
S'Var'
p2005
at(Nttba(lp2006
g17
(g25
(I0
tS'b'
tRp2007
(I1
(L1L
tg21
I00
(lp2008
g1
(g10
g3
NtRp2009
(dp2010
g13
g1
(g14
g3
NtRp2011
((lp2012
g17
(g18
(I0
tS'b'
tRp2013
((I1
(L1L
tg21
I00
(lp2014
S'Id'
p2015
at(Nttba(lp2016
g17
(g25
(I0
tS'b'
tRp2017
(I1
(L1L
tg21
I00
(lp2018
g1
(g10
g3
NtRp2019
(dp2020
g13
g1
(g14
g3
NtRp2021
((lp2022
g17
(g18
(I0
tS'b'
tRp2023
((I1
(L1L
tg21
I00
(lp2024
S'_len_'
p2025
at(Nttba(lp2026
g17
(g25
(I0
tS'b'
tRp2027
(I1
(L1L
tg21
I00
(lp2028
g1
(g10
g3
NtRp2029
(dp2030
g13
g1
(g14
g3
NtRp2031
((lp2032
g17
(g18
(I0
tS'b'
tRp2033
((I1
(L0L
tg21
I00
(lt(Nttba(lp2034
g17
(g25
(I0
tS'b'
tRp2035
(I1
(L0L
tg21
I00
(ltba(lp2036
g2033
atbsg111
S'len'
p2037
sbatba(lp2038
g2023
atbsg111
g2015
sbatba(lp2039
g2013
atbsg111
g2005
sbatba(lp2040
g2003
atbsg111
S'Val'
p2041
sbatba(lp2042
g1993
atbsg111
S'Expr'
p2043
sbag1
(g10
g3
NtRp2044
(dp2045
g13
g1
(g14
g3
NtRp2046
((lp2047
g17
(g18
(I0
tS'b'
tRp2048
((I1
(L0L
tg21
I00
(lt(Nttba(lp2049
g17
(g25
(I0
tS'b'
tRp2050
(I1
(L0L
tg21
I00
(ltba(lp2051
g2048
atbsg111
S'('
sbag1
(g10
g3
NtRp2052
(dp2053
g13
g1
(g14
g3
NtRp2054
((lp2055
g17
(g18
(I0
tS'b'
tRp2056
((I1
(L1L
tg21
I00
(lp2057
S'Pos_arglist'
p2058
at(Nttba(lp2059
g17
(g25
(I0
tS'b'
tRp2060
(I1
(L1L
tg21
I00
(lp2061
g1
(g10
g3
NtRp2062
(dp2063
g13
g1
(g14
g3
NtRp2064
((lp2065
g17
(g18
(I0
tS'b'
tRp2066
((I1
(L1L
tg21
I00
(lp2067
S'Pos_arg'
p2068
at(Nttba(lp2069
g17
(g25
(I0
tS'b'
tRp2070
(I1
(L1L
tg21
I00
(lp2071
g1
(g10
g3
NtRp2072
(dp2073
g13
g1
(g14
g3
NtRp2074
((lp2075
g17
(g18
(I0
tS'b'
tRp2076
((I1
(L1L
tg21
I00
(lp2077
S'Expr'
p2078
at(Nttba(lp2079
g17
(g25
(I0
tS'b'
tRp2080
(I1
(L1L
tg21
I00
(lp2081
g1
(g10
g3
NtRp2082
(dp2083
g13
g1
(g14
g3
NtRp2084
((lp2085
g17
(g18
(I0
tS'b'
tRp2086
((I1
(L1L
tg21
I00
(lp2087
S'Val_label'
p2088
at(Nttba(lp2089
g17
(g25
(I0
tS'b'
tRp2090
(I1
(L1L
tg21
I00
(lp2091
g1
(g10
g3
NtRp2092
(dp2093
g13
g1
(g14
g3
NtRp2094
((lp2095
g17
(g18
(I0
tS'b'
tRp2096
((I1
(L1L
tg21
I00
(lp2097
S'Var'
p2098
at(Nttba(lp2099
g17
(g25
(I0
tS'b'
tRp2100
(I1
(L1L
tg21
I00
(lp2101
g1
(g10
g3
NtRp2102
(dp2103
g13
g1
(g14
g3
NtRp2104
((lp2105
g17
(g18
(I0
tS'b'
tRp2106
((I1
(L1L
tg21
I00
(lp2107
S'Id'
p2108
at(Nttba(lp2109
g17
(g25
(I0
tS'b'
tRp2110
(I1
(L1L
tg21
I00
(lp2111
g1
(g10
g3
NtRp2112
(dp2113
g13
g1
(g14
g3
NtRp2114
((lp2115
g17
(g18
(I0
tS'b'
tRp2116
((I1
(L1L
tg21
I00
(lp2117
S'_L_'
p2118
at(Nttba(lp2119
g17
(g25
(I0
tS'b'
tRp2120
(I1
(L1L
tg21
I00
(lp2121
g1
(g10
g3
NtRp2122
(dp2123
g13
g1
(g14
g3
NtRp2124
((lp2125
g17
(g18
(I0
tS'b'
tRp2126
((I1
(L0L
tg21
I00
(lt(Nttba(lp2127
g17
(g25
(I0
tS'b'
tRp2128
(I1
(L0L
tg21
I00
(ltba(lp2129
g2126
atbsg111
S'L'
sbatba(lp2130
g2116
atbsg111
g2108
sbatba(lp2131
g2106
atbsg111
g2098
sbatba(lp2132
g2096
atbsg111
S'Val'
p2133
sbatba(lp2134
g2086
atbsg111
S'Expr'
p2135
sbatba(lp2136
g2076
atbsg111
g2068
sbatba(lp2137
g2066
atbsg111
g2058
sbatba(lp2138
g2056
atbsg111
g1984
sbag1
(g10
g3
NtRp2139
(dp2140
g13
g1
(g14
g3
NtRp2141
((lp2142
g17
(g18
(I0
tS'b'
tRp2143
((I1
(L0L
tg21
I00
(lt(Nttba(lp2144
g17
(g25
(I0
tS'b'
tRp2145
(I1
(L0L
tg21
I00
(ltba(lp2146
g2143
atbsg111
S')'
sbatba(lp2147
g1980
atbsg111
g1972
sbatba(lp2148
g1970
atbsg111
S'Expr'
p2149
sbatba(lp2150
g1960
atbsg111
g1952
sbatba(lp2151
g1950
atbsg111
g1942
sbatba(lp2152
g1940
atbsg111
g1868
sbag1
(g10
g3
NtRp2153
(dp2154
g13
g1
(g14
g3
NtRp2155
((lp2156
g17
(g18
(I0
tS'b'
tRp2157
((I1
(L0L
tg21
I00
(lt(Nttba(lp2158
g17
(g25
(I0
tS'b'
tRp2159
(I1
(L0L
tg21
I00
(ltba(lp2160
g2157
atbsg111
S')'
sbatba(lp2161
g1864
atbsg111
g1856
sbatba(lp2162
g1854
atbsg111
S'Expr'
p2163
sbatba(lp2164
g1844
atbsg111
g1766
sbatba(lp2165
g1761
atbsg111
g1753
sbatba(lp2166
g1751
atbsg111
g1743
sbatba(lp2167
g1741
atbsg111
g1732
sbag1
(g10
g3
NtRp2168
(dp2169
g13
g1
(g14
g3
NtRp2170
((lp2171
g17
(g18
(I0
tS'b'
tRp2172
((I1
(L3L
tg21
I00
(lp2173
S'Blockbegin'
p2174
aS'Prog'
p2175
aS'Blockend'
p2176
at(Nttba(lp2177
g17
(g25
(I0
tS'b'
tRp2178
(I1
(L3L
tg21
I00
(lp2179
g1
(g10
g3
NtRp2180
(dp2181
g13
g1
(g14
g3
NtRp2182
((lp2183
g17
(g18
(I0
tS'b'
tRp2184
((I1
(L1L
tg21
I00
(lp2185
S'_:$blockbegin_'
p2186
at(Nttba(lp2187
g17
(g25
(I0
tS'b'
tRp2188
(I1
(L1L
tg21
I00
(lp2189
g1
(g10
g3
NtRp2190
(dp2191
g13
g1
(g14
g3
NtRp2192
((lp2193
g17
(g18
(I0
tS'b'
tRp2194
((I1
(L0L
tg21
I00
(lt(Nttba(lp2195
g17
(g25
(I0
tS'b'
tRp2196
(I1
(L0L
tg21
I00
(ltba(lp2197
g2194
atbsg111
S':$blockbegin'
p2198
sbatba(lp2199
g2184
atbsg111
g2174
sbag1
(g10
g3
NtRp2200
(dp2201
g13
g1
(g14
g3
NtRp2202
((lp2203
g17
(g18
(I0
tS'b'
tRp2204
((I1
(L1L
tg21
I00
(lp2205
S'Stmt'
p2206
at(Nttba(lp2207
g17
(g25
(I0
tS'b'
tRp2208
(I1
(L1L
tg21
I00
(lp2209
g1
(g10
g3
NtRp2210
(dp2211
g13
g1
(g14
g3
NtRp2212
((lp2213
g17
(g18
(I0
tS'b'
tRp2214
((I1
(L1L
tg21
I00
(lp2215
S'Block_stmt'
p2216
at(Nttba(lp2217
g17
(g25
(I0
tS'b'
tRp2218
(I1
(L1L
tg21
I00
(lp2219
g1
(g10
g3
NtRp2220
(dp2221
g13
g1
(g14
g3
NtRp2222
((lp2223
g17
(g18
(I0
tS'b'
tRp2224
((I1
(L1L
tg21
I00
(lp2225
S'Ifelse'
p2226
at(Nttba(lp2227
g17
(g25
(I0
tS'b'
tRp2228
(I1
(L1L
tg21
I00
(lp2229
g1
(g10
g3
NtRp2230
(dp2231
g13
g1
(g14
g3
NtRp2232
((lp2233
g17
(g18
(I0
tS'b'
tRp2234
((I1
(L4L
tg21
I00
(lp2235
S'If'
p2236
aS'Block1'
p2237
aS'Else'
p2238
aS'Block2'
p2239
at(Nttba(lp2240
g17
(g25
(I0
tS'b'
tRp2241
(I1
(L4L
tg21
I00
(lp2242
g1
(g10
g3
NtRp2243
(dp2244
g13
g1
(g14
g3
NtRp2245
((lp2246
g17
(g18
(I0
tS'b'
tRp2247
((I1
(L2L
tg21
I00
(lp2248
S'_if_'
p2249
aS'Expr'
p2250
at(Nttba(lp2251
g17
(g25
(I0
tS'b'
tRp2252
(I1
(L2L
tg21
I00
(lp2253
g1
(g10
g3
NtRp2254
(dp2255
g13
g1
(g14
g3
NtRp2256
((lp2257
g17
(g18
(I0
tS'b'
tRp2258
((I1
(L0L
tg21
I00
(lt(Nttba(lp2259
g17
(g25
(I0
tS'b'
tRp2260
(I1
(L0L
tg21
I00
(ltba(lp2261
g2258
atbsg111
S'if'
p2262
sbag1
(g10
g3
NtRp2263
(dp2264
g13
g1
(g14
g3
NtRp2265
((lp2266
g17
(g18
(I0
tS'b'
tRp2267
((I1
(L1L
tg21
I00
(lp2268
S'Comparison'
p2269
at(Nttba(lp2270
g17
(g25
(I0
tS'b'
tRp2271
(I1
(L1L
tg21
I00
(lp2272
g1
(g10
g3
NtRp2273
(dp2274
g13
g1
(g14
g3
NtRp2275
((lp2276
g17
(g18
(I0
tS'b'
tRp2277
((I1
(L3L
tg21
I00
(lp2278
S'Expr1'
p2279
aS'Op_cmp'
p2280
aS'Expr2'
p2281
at(Nttba(lp2282
g17
(g25
(I0
tS'b'
tRp2283
(I1
(L3L
tg21
I00
(lp2284
g1
(g10
g3
NtRp2285
(dp2286
g13
g1
(g14
g3
NtRp2287
((lp2288
g17
(g18
(I0
tS'b'
tRp2289
((I1
(L1L
tg21
I00
(lp2290
S'Val_label'
p2291
at(Nttba(lp2292
g17
(g25
(I0
tS'b'
tRp2293
(I1
(L1L
tg21
I00
(lp2294
g1
(g10
g3
NtRp2295
(dp2296
g13
g1
(g14
g3
NtRp2297
((lp2298
g17
(g18
(I0
tS'b'
tRp2299
((I1
(L1L
tg21
I00
(lp2300
S'Var'
p2301
at(Nttba(lp2302
g17
(g25
(I0
tS'b'
tRp2303
(I1
(L1L
tg21
I00
(lp2304
g1
(g10
g3
NtRp2305
(dp2306
g13
g1
(g14
g3
NtRp2307
((lp2308
g17
(g18
(I0
tS'b'
tRp2309
((I1
(L1L
tg21
I00
(lp2310
S'Id'
p2311
at(Nttba(lp2312
g17
(g25
(I0
tS'b'
tRp2313
(I1
(L1L
tg21
I00
(lp2314
g1
(g10
g3
NtRp2315
(dp2316
g13
g1
(g14
g3
NtRp2317
((lp2318
g17
(g18
(I0
tS'b'
tRp2319
((I1
(L1L
tg21
I00
(lp2320
S'_i_'
p2321
at(Nttba(lp2322
g17
(g25
(I0
tS'b'
tRp2323
(I1
(L1L
tg21
I00
(lp2324
g1
(g10
g3
NtRp2325
(dp2326
g13
g1
(g14
g3
NtRp2327
((lp2328
g17
(g18
(I0
tS'b'
tRp2329
((I1
(L0L
tg21
I00
(lt(Nttba(lp2330
g17
(g25
(I0
tS'b'
tRp2331
(I1
(L0L
tg21
I00
(ltba(lp2332
g2329
atbsg111
S'i'
sbatba(lp2333
g2319
atbsg111
g2311
sbatba(lp2334
g2309
atbsg111
g2301
sbatba(lp2335
g2299
atbsg111
S'Val'
p2336
sbatba(lp2337
g2289
atbsg111
S'Expr'
p2338
sbag1
(g10
g3
NtRp2339
(dp2340
g13
g1
(g14
g3
NtRp2341
((lp2342
g17
(g18
(I0
tS'b'
tRp2343
((I1
(L1L
tg21
I00
(lp2344
S'_>_'
p2345
at(Nttba(lp2346
g17
(g25
(I0
tS'b'
tRp2347
(I1
(L1L
tg21
I00
(lp2348
g1
(g10
g3
NtRp2349
(dp2350
g13
g1
(g14
g3
NtRp2351
((lp2352
g17
(g18
(I0
tS'b'
tRp2353
((I1
(L0L
tg21
I00
(lt(Nttba(lp2354
g17
(g25
(I0
tS'b'
tRp2355
(I1
(L0L
tg21
I00
(ltba(lp2356
g2353
atbsg111
S'>'
sbatba(lp2357
g2343
atbsg111
g2280
sbag1
(g10
g3
NtRp2358
(dp2359
g13
g1
(g14
g3
NtRp2360
((lp2361
g17
(g18
(I0
tS'b'
tRp2362
((I1
(L1L
tg21
I00
(lp2363
S'Val_label'
p2364
at(Nttba(lp2365
g17
(g25
(I0
tS'b'
tRp2366
(I1
(L1L
tg21
I00
(lp2367
g1
(g10
g3
NtRp2368
(dp2369
g13
g1
(g14
g3
NtRp2370
((lp2371
g17
(g18
(I0
tS'b'
tRp2372
((I1
(L1L
tg21
I00
(lp2373
S'Number'
p2374
at(Nttba(lp2375
g17
(g25
(I0
tS'b'
tRp2376
(I1
(L1L
tg21
I00
(lp2377
g1
(g10
g3
NtRp2378
(dp2379
g13
g1
(g14
g3
NtRp2380
((lp2381
g17
(g18
(I0
tS'b'
tRp2382
((I1
(L1L
tg21
I00
(lp2383
S'Int'
p2384
at(Nttba(lp2385
g17
(g25
(I0
tS'b'
tRp2386
(I1
(L1L
tg21
I00
(lp2387
g1
(g10
g3
NtRp2388
(dp2389
g13
g1
(g14
g3
NtRp2390
((lp2391
g17
(g18
(I0
tS'b'
tRp2392
((I1
(L1L
tg21
I00
(lp2393
S'_3_'
p2394
at(Nttba(lp2395
g17
(g25
(I0
tS'b'
tRp2396
(I1
(L1L
tg21
I00
(lp2397
g1
(g10
g3
NtRp2398
(dp2399
g13
g1
(g14
g3
NtRp2400
((lp2401
g17
(g18
(I0
tS'b'
tRp2402
((I1
(L0L
tg21
I00
(lt(Nttba(lp2403
g17
(g25
(I0
tS'b'
tRp2404
(I1
(L0L
tg21
I00
(ltba(lp2405
g2402
atbsg111
S'3'
sbatba(lp2406
g2392
atbsg111
g2384
sbatba(lp2407
g2382
atbsg111
g2374
sbatba(lp2408
g2372
atbsg111
S'Val'
p2409
sbatba(lp2410
g2362
atbsg111
S'Expr'
p2411
sbatba(lp2412
g2277
atbsg111
g2269
sbatba(lp2413
g2267
atbsg111
S'Expr'
p2414
sbatba(lp2415
g2247
atbsg111
g2236
sbag1
(g10
g3
NtRp2416
(dp2417
g13
g1
(g14
g3
NtRp2418
((lp2419
g17
(g18
(I0
tS'b'
tRp2420
((I1
(L3L
tg21
I00
(lp2421
S'Blockbegin'
p2422
aS'Prog'
p2423
aS'Blockend'
p2424
at(Nttba(lp2425
g17
(g25
(I0
tS'b'
tRp2426
(I1
(L3L
tg21
I00
(lp2427
g1
(g10
g3
NtRp2428
(dp2429
g13
g1
(g14
g3
NtRp2430
((lp2431
g17
(g18
(I0
tS'b'
tRp2432
((I1
(L1L
tg21
I00
(lp2433
S'_:$blockbegin_'
p2434
at(Nttba(lp2435
g17
(g25
(I0
tS'b'
tRp2436
(I1
(L1L
tg21
I00
(lp2437
g1
(g10
g3
NtRp2438
(dp2439
g13
g1
(g14
g3
NtRp2440
((lp2441
g17
(g18
(I0
tS'b'
tRp2442
((I1
(L0L
tg21
I00
(lt(Nttba(lp2443
g17
(g25
(I0
tS'b'
tRp2444
(I1
(L0L
tg21
I00
(ltba(lp2445
g2442
atbsg111
S':$blockbegin'
p2446
sbatba(lp2447
g2432
atbsg111
g2422
sbag1
(g10
g3
NtRp2448
(dp2449
g13
g1
(g14
g3
NtRp2450
((lp2451
g17
(g18
(I0
tS'b'
tRp2452
((I1
(L1L
tg21
I00
(lp2453
S'Stmt'
p2454
at(Nttba(lp2455
g17
(g25
(I0
tS'b'
tRp2456
(I1
(L1L
tg21
I00
(lp2457
g1
(g10
g3
NtRp2458
(dp2459
g13
g1
(g14
g3
NtRp2460
((lp2461
g17
(g18
(I0
tS'b'
tRp2462
((I1
(L1L
tg21
I00
(lp2463
S'Single_stmt'
p2464
at(Nttba(lp2465
g17
(g25
(I0
tS'b'
tRp2466
(I1
(L1L
tg21
I00
(lp2467
g1
(g10
g3
NtRp2468
(dp2469
g13
g1
(g14
g3
NtRp2470
((lp2471
g17
(g18
(I0
tS'b'
tRp2472
((I1
(L2L
tg21
I00
(lp2473
S'Assign_stmt'
p2474
aS'_;_'
p2475
at(Nttba(lp2476
g17
(g25
(I0
tS'b'
tRp2477
(I1
(L2L
tg21
I00
(lp2478
g1
(g10
g3
NtRp2479
(dp2480
g13
g1
(g14
g3
NtRp2481
((lp2482
g17
(g18
(I0
tS'b'
tRp2483
((I1
(L1L
tg21
I00
(lp2484
S'Assign'
p2485
at(Nttba(lp2486
g17
(g25
(I0
tS'b'
tRp2487
(I1
(L1L
tg21
I00
(lp2488
g1
(g10
g3
NtRp2489
(dp2490
g13
g1
(g14
g3
NtRp2491
((lp2492
g17
(g18
(I0
tS'b'
tRp2493
((I1
(L3L
tg21
I00
(lp2494
S'Varlist'
p2495
aS'_=_'
p2496
aS'Exprlist'
p2497
at(Nttba(lp2498
g17
(g25
(I0
tS'b'
tRp2499
(I1
(L3L
tg21
I00
(lp2500
g1
(g10
g3
NtRp2501
(dp2502
g13
g1
(g14
g3
NtRp2503
((lp2504
g17
(g18
(I0
tS'b'
tRp2505
((I1
(L1L
tg21
I00
(lp2506
S'Vartuple'
p2507
at(Nttba(lp2508
g17
(g25
(I0
tS'b'
tRp2509
(I1
(L1L
tg21
I00
(lp2510
g1
(g10
g3
NtRp2511
(dp2512
g13
g1
(g14
g3
NtRp2513
((lp2514
g17
(g18
(I0
tS'b'
tRp2515
((I1
(L1L
tg21
I00
(lp2516
S'Var'
p2517
at(Nttba(lp2518
g17
(g25
(I0
tS'b'
tRp2519
(I1
(L1L
tg21
I00
(lp2520
g1
(g10
g3
NtRp2521
(dp2522
g13
g1
(g14
g3
NtRp2523
((lp2524
g17
(g18
(I0
tS'b'
tRp2525
((I1
(L4L
tg21
I00
(lp2526
S'Var'
p2527
aS'_[_'
p2528
aS'Slice'
p2529
aS'_]_'
p2530
at(Nttba(lp2531
g17
(g25
(I0
tS'b'
tRp2532
(I1
(L4L
tg21
I00
(lp2533
g1
(g10
g3
NtRp2534
(dp2535
g13
g1
(g14
g3
NtRp2536
((lp2537
g17
(g18
(I0
tS'b'
tRp2538
((I1
(L1L
tg21
I00
(lp2539
S'Id'
p2540
at(Nttba(lp2541
g17
(g25
(I0
tS'b'
tRp2542
(I1
(L1L
tg21
I00
(lp2543
g1
(g10
g3
NtRp2544
(dp2545
g13
g1
(g14
g3
NtRp2546
((lp2547
g17
(g18
(I0
tS'b'
tRp2548
((I1
(L1L
tg21
I00
(lp2549
S'_L_'
p2550
at(Nttba(lp2551
g17
(g25
(I0
tS'b'
tRp2552
(I1
(L1L
tg21
I00
(lp2553
g1
(g10
g3
NtRp2554
(dp2555
g13
g1
(g14
g3
NtRp2556
((lp2557
g17
(g18
(I0
tS'b'
tRp2558
((I1
(L0L
tg21
I00
(lt(Nttba(lp2559
g17
(g25
(I0
tS'b'
tRp2560
(I1
(L0L
tg21
I00
(ltba(lp2561
g2558
atbsg111
S'L'
sbatba(lp2562
g2548
atbsg111
g2540
sbatba(lp2563
g2538
atbsg111
g2527
sbag1
(g10
g3
NtRp2564
(dp2565
g13
g1
(g14
g3
NtRp2566
((lp2567
g17
(g18
(I0
tS'b'
tRp2568
((I1
(L0L
tg21
I00
(lt(Nttba(lp2569
g17
(g25
(I0
tS'b'
tRp2570
(I1
(L0L
tg21
I00
(ltba(lp2571
g2568
atbsg111
S'['
sbag1
(g10
g3
NtRp2572
(dp2573
g13
g1
(g14
g3
NtRp2574
((lp2575
g17
(g18
(I0
tS'b'
tRp2576
((I1
(L1L
tg21
I00
(lp2577
S'Expr'
p2578
at(Nttba(lp2579
g17
(g25
(I0
tS'b'
tRp2580
(I1
(L1L
tg21
I00
(lp2581
g1
(g10
g3
NtRp2582
(dp2583
g13
g1
(g14
g3
NtRp2584
((lp2585
g17
(g18
(I0
tS'b'
tRp2586
((I1
(L1L
tg21
I00
(lp2587
S'Val_label'
p2588
at(Nttba(lp2589
g17
(g25
(I0
tS'b'
tRp2590
(I1
(L1L
tg21
I00
(lp2591
g1
(g10
g3
NtRp2592
(dp2593
g13
g1
(g14
g3
NtRp2594
((lp2595
g17
(g18
(I0
tS'b'
tRp2596
((I1
(L1L
tg21
I00
(lp2597
S'Var'
p2598
at(Nttba(lp2599
g17
(g25
(I0
tS'b'
tRp2600
(I1
(L1L
tg21
I00
(lp2601
g1
(g10
g3
NtRp2602
(dp2603
g13
g1
(g14
g3
NtRp2604
((lp2605
g17
(g18
(I0
tS'b'
tRp2606
((I1
(L1L
tg21
I00
(lp2607
S'Id'
p2608
at(Nttba(lp2609
g17
(g25
(I0
tS'b'
tRp2610
(I1
(L1L
tg21
I00
(lp2611
g1
(g10
g3
NtRp2612
(dp2613
g13
g1
(g14
g3
NtRp2614
((lp2615
g17
(g18
(I0
tS'b'
tRp2616
((I1
(L1L
tg21
I00
(lp2617
S'_i_'
p2618
at(Nttba(lp2619
g17
(g25
(I0
tS'b'
tRp2620
(I1
(L1L
tg21
I00
(lp2621
g1
(g10
g3
NtRp2622
(dp2623
g13
g1
(g14
g3
NtRp2624
((lp2625
g17
(g18
(I0
tS'b'
tRp2626
((I1
(L0L
tg21
I00
(lt(Nttba(lp2627
g17
(g25
(I0
tS'b'
tRp2628
(I1
(L0L
tg21
I00
(ltba(lp2629
g2626
atbsg111
S'i'
sbatba(lp2630
g2616
atbsg111
g2608
sbatba(lp2631
g2606
atbsg111
g2598
sbatba(lp2632
g2596
atbsg111
S'Val'
p2633
sbatba(lp2634
g2586
atbsg111
S'Expr'
p2635
sbatba(lp2636
g2576
atbsg111
g2529
sbag1
(g10
g3
NtRp2637
(dp2638
g13
g1
(g14
g3
NtRp2639
((lp2640
g17
(g18
(I0
tS'b'
tRp2641
((I1
(L0L
tg21
I00
(lt(Nttba(lp2642
g17
(g25
(I0
tS'b'
tRp2643
(I1
(L0L
tg21
I00
(ltba(lp2644
g2641
atbsg111
S']'
sbatba(lp2645
g2525
atbsg111
g2517
sbatba(lp2646
g2515
atbsg111
g2507
sbatba(lp2647
g2505
atbsg111
g2495
sbag1
(g10
g3
NtRp2648
(dp2649
g13
g1
(g14
g3
NtRp2650
((lp2651
g17
(g18
(I0
tS'b'
tRp2652
((I1
(L0L
tg21
I00
(lt(Nttba(lp2653
g17
(g25
(I0
tS'b'
tRp2654
(I1
(L0L
tg21
I00
(ltba(lp2655
g2652
atbsg111
S'='
sbag1
(g10
g3
NtRp2656
(dp2657
g13
g1
(g14
g3
NtRp2658
((lp2659
g17
(g18
(I0
tS'b'
tRp2660
((I1
(L1L
tg21
I00
(lp2661
S'Expr'
p2662
at(Nttba(lp2663
g17
(g25
(I0
tS'b'
tRp2664
(I1
(L1L
tg21
I00
(lp2665
g1
(g10
g3
NtRp2666
(dp2667
g13
g1
(g14
g3
NtRp2668
((lp2669
g17
(g18
(I0
tS'b'
tRp2670
((I1
(L1L
tg21
I00
(lp2671
S'Funccall'
p2672
at(Nttba(lp2673
g17
(g25
(I0
tS'b'
tRp2674
(I1
(L1L
tg21
I00
(lp2675
g1
(g10
g3
NtRp2676
(dp2677
g13
g1
(g14
g3
NtRp2678
((lp2679
g17
(g18
(I0
tS'b'
tRp2680
((I1
(L4L
tg21
I00
(lp2681
S'Expr'
p2682
aS'_(_'
p2683
aS'Arglist'
p2684
aS'_)_'
p2685
at(Nttba(lp2686
g17
(g25
(I0
tS'b'
tRp2687
(I1
(L4L
tg21
I00
(lp2688
g1
(g10
g3
NtRp2689
(dp2690
g13
g1
(g14
g3
NtRp2691
((lp2692
g17
(g18
(I0
tS'b'
tRp2693
((I1
(L1L
tg21
I00
(lp2694
S'Val_label'
p2695
at(Nttba(lp2696
g17
(g25
(I0
tS'b'
tRp2697
(I1
(L1L
tg21
I00
(lp2698
g1
(g10
g3
NtRp2699
(dp2700
g13
g1
(g14
g3
NtRp2701
((lp2702
g17
(g18
(I0
tS'b'
tRp2703
((I1
(L1L
tg21
I00
(lp2704
S'Var'
p2705
at(Nttba(lp2706
g17
(g25
(I0
tS'b'
tRp2707
(I1
(L1L
tg21
I00
(lp2708
g1
(g10
g3
NtRp2709
(dp2710
g13
g1
(g14
g3
NtRp2711
((lp2712
g17
(g18
(I0
tS'b'
tRp2713
((I1
(L1L
tg21
I00
(lp2714
S'Id'
p2715
at(Nttba(lp2716
g17
(g25
(I0
tS'b'
tRp2717
(I1
(L1L
tg21
I00
(lp2718
g1
(g10
g3
NtRp2719
(dp2720
g13
g1
(g14
g3
NtRp2721
((lp2722
g17
(g18
(I0
tS'b'
tRp2723
((I1
(L1L
tg21
I00
(lp2724
S'_f_'
p2725
at(Nttba(lp2726
g17
(g25
(I0
tS'b'
tRp2727
(I1
(L1L
tg21
I00
(lp2728
g1
(g10
g3
NtRp2729
(dp2730
g13
g1
(g14
g3
NtRp2731
((lp2732
g17
(g18
(I0
tS'b'
tRp2733
((I1
(L0L
tg21
I00
(lt(Nttba(lp2734
g17
(g25
(I0
tS'b'
tRp2735
(I1
(L0L
tg21
I00
(ltba(lp2736
g2733
atbsg111
S'f'
sbatba(lp2737
g2723
atbsg111
g2715
sbatba(lp2738
g2713
atbsg111
g2705
sbatba(lp2739
g2703
atbsg111
S'Val'
p2740
sbatba(lp2741
g2693
atbsg111
S'Expr'
p2742
sbag1
(g10
g3
NtRp2743
(dp2744
g13
g1
(g14
g3
NtRp2745
((lp2746
g17
(g18
(I0
tS'b'
tRp2747
((I1
(L0L
tg21
I00
(lt(Nttba(lp2748
g17
(g25
(I0
tS'b'
tRp2749
(I1
(L0L
tg21
I00
(ltba(lp2750
g2747
atbsg111
S'('
sbag1
(g10
g3
NtRp2751
(dp2752
g13
g1
(g14
g3
NtRp2753
((lp2754
g17
(g18
(I0
tS'b'
tRp2755
((I1
(L1L
tg21
I00
(lp2756
S'Pos_arglist'
p2757
at(Nttba(lp2758
g17
(g25
(I0
tS'b'
tRp2759
(I1
(L1L
tg21
I00
(lp2760
g1
(g10
g3
NtRp2761
(dp2762
g13
g1
(g14
g3
NtRp2763
((lp2764
g17
(g18
(I0
tS'b'
tRp2765
((I1
(L1L
tg21
I00
(lp2766
S'Pos_arg'
p2767
at(Nttba(lp2768
g17
(g25
(I0
tS'b'
tRp2769
(I1
(L1L
tg21
I00
(lp2770
g1
(g10
g3
NtRp2771
(dp2772
g13
g1
(g14
g3
NtRp2773
((lp2774
g17
(g18
(I0
tS'b'
tRp2775
((I1
(L1L
tg21
I00
(lp2776
S'Expr'
p2777
at(Nttba(lp2778
g17
(g25
(I0
tS'b'
tRp2779
(I1
(L1L
tg21
I00
(lp2780
g1
(g10
g3
NtRp2781
(dp2782
g13
g1
(g14
g3
NtRp2783
((lp2784
g17
(g18
(I0
tS'b'
tRp2785
((I1
(L1L
tg21
I00
(lp2786
S'Dash_calc'
p2787
at(Nttba(lp2788
g17
(g25
(I0
tS'b'
tRp2789
(I1
(L1L
tg21
I00
(lp2790
g1
(g10
g3
NtRp2791
(dp2792
g13
g1
(g14
g3
NtRp2793
((lp2794
g17
(g18
(I0
tS'b'
tRp2795
((I1
(L3L
tg21
I00
(lp2796
S'Expr1'
p2797
aS'_+_'
p2798
aS'Expr2'
p2799
at(Nttba(lp2800
g17
(g25
(I0
tS'b'
tRp2801
(I1
(L3L
tg21
I00
(lp2802
g1
(g10
g3
NtRp2803
(dp2804
g13
g1
(g14
g3
NtRp2805
((lp2806
g17
(g18
(I0
tS'b'
tRp2807
((I1
(L1L
tg21
I00
(lp2808
S'Val_label'
p2809
at(Nttba(lp2810
g17
(g25
(I0
tS'b'
tRp2811
(I1
(L1L
tg21
I00
(lp2812
g1
(g10
g3
NtRp2813
(dp2814
g13
g1
(g14
g3
NtRp2815
((lp2816
g17
(g18
(I0
tS'b'
tRp2817
((I1
(L1L
tg21
I00
(lp2818
S'Var'
p2819
at(Nttba(lp2820
g17
(g25
(I0
tS'b'
tRp2821
(I1
(L1L
tg21
I00
(lp2822
g1
(g10
g3
NtRp2823
(dp2824
g13
g1
(g14
g3
NtRp2825
((lp2826
g17
(g18
(I0
tS'b'
tRp2827
((I1
(L1L
tg21
I00
(lp2828
S'Id'
p2829
at(Nttba(lp2830
g17
(g25
(I0
tS'b'
tRp2831
(I1
(L1L
tg21
I00
(lp2832
g1
(g10
g3
NtRp2833
(dp2834
g13
g1
(g14
g3
NtRp2835
((lp2836
g17
(g18
(I0
tS'b'
tRp2837
((I1
(L1L
tg21
I00
(lp2838
S'_i_'
p2839
at(Nttba(lp2840
g17
(g25
(I0
tS'b'
tRp2841
(I1
(L1L
tg21
I00
(lp2842
g1
(g10
g3
NtRp2843
(dp2844
g13
g1
(g14
g3
NtRp2845
((lp2846
g17
(g18
(I0
tS'b'
tRp2847
((I1
(L0L
tg21
I00
(lt(Nttba(lp2848
g17
(g25
(I0
tS'b'
tRp2849
(I1
(L0L
tg21
I00
(ltba(lp2850
g2847
atbsg111
S'i'
sbatba(lp2851
g2837
atbsg111
g2829
sbatba(lp2852
g2827
atbsg111
g2819
sbatba(lp2853
g2817
atbsg111
S'Val'
p2854
sbatba(lp2855
g2807
atbsg111
S'Expr'
p2856
sbag1
(g10
g3
NtRp2857
(dp2858
g13
g1
(g14
g3
NtRp2859
((lp2860
g17
(g18
(I0
tS'b'
tRp2861
((I1
(L0L
tg21
I00
(lt(Nttba(lp2862
g17
(g25
(I0
tS'b'
tRp2863
(I1
(L0L
tg21
I00
(ltba(lp2864
g2861
atbsg111
S'+'
sbag1
(g10
g3
NtRp2865
(dp2866
g13
g1
(g14
g3
NtRp2867
((lp2868
g17
(g18
(I0
tS'b'
tRp2869
((I1
(L1L
tg21
I00
(lp2870
S'Val_label'
p2871
at(Nttba(lp2872
g17
(g25
(I0
tS'b'
tRp2873
(I1
(L1L
tg21
I00
(lp2874
g1
(g10
g3
NtRp2875
(dp2876
g13
g1
(g14
g3
NtRp2877
((lp2878
g17
(g18
(I0
tS'b'
tRp2879
((I1
(L1L
tg21
I00
(lp2880
S'Number'
p2881
at(Nttba(lp2882
g17
(g25
(I0
tS'b'
tRp2883
(I1
(L1L
tg21
I00
(lp2884
g1
(g10
g3
NtRp2885
(dp2886
g13
g1
(g14
g3
NtRp2887
((lp2888
g17
(g18
(I0
tS'b'
tRp2889
((I1
(L1L
tg21
I00
(lp2890
S'Int'
p2891
at(Nttba(lp2892
g17
(g25
(I0
tS'b'
tRp2893
(I1
(L1L
tg21
I00
(lp2894
g1
(g10
g3
NtRp2895
(dp2896
g13
g1
(g14
g3
NtRp2897
((lp2898
g17
(g18
(I0
tS'b'
tRp2899
((I1
(L1L
tg21
I00
(lp2900
S'_1_'
p2901
at(Nttba(lp2902
g17
(g25
(I0
tS'b'
tRp2903
(I1
(L1L
tg21
I00
(lp2904
g1
(g10
g3
NtRp2905
(dp2906
g13
g1
(g14
g3
NtRp2907
((lp2908
g17
(g18
(I0
tS'b'
tRp2909
((I1
(L0L
tg21
I00
(lt(Nttba(lp2910
g17
(g25
(I0
tS'b'
tRp2911
(I1
(L0L
tg21
I00
(ltba(lp2912
g2909
atbsg111
S'1'
sbatba(lp2913
g2899
atbsg111
g2891
sbatba(lp2914
g2889
atbsg111
g2881
sbatba(lp2915
g2879
atbsg111
S'Val'
p2916
sbatba(lp2917
g2869
atbsg111
S'Expr'
p2918
sbatba(lp2919
g2795
atbsg111
g2787
sbatba(lp2920
g2785
atbsg111
S'Expr'
p2921
sbatba(lp2922
g2775
atbsg111
g2767
sbatba(lp2923
g2765
atbsg111
g2757
sbatba(lp2924
g2755
atbsg111
g2684
sbag1
(g10
g3
NtRp2925
(dp2926
g13
g1
(g14
g3
NtRp2927
((lp2928
g17
(g18
(I0
tS'b'
tRp2929
((I1
(L0L
tg21
I00
(lt(Nttba(lp2930
g17
(g25
(I0
tS'b'
tRp2931
(I1
(L0L
tg21
I00
(ltba(lp2932
g2929
atbsg111
S')'
sbatba(lp2933
g2680
atbsg111
g2672
sbatba(lp2934
g2670
atbsg111
S'Expr'
p2935
sbatba(lp2936
g2660
atbsg111
g2497
sbatba(lp2937
g2493
atbsg111
g2485
sbatba(lp2938
g2483
atbsg111
g2474
sbag1
(g10
g3
NtRp2939
(dp2940
g13
g1
(g14
g3
NtRp2941
((lp2942
g17
(g18
(I0
tS'b'
tRp2943
((I1
(L0L
tg21
I00
(lt(Nttba(lp2944
g17
(g25
(I0
tS'b'
tRp2945
(I1
(L0L
tg21
I00
(ltba(lp2946
g2943
atbsg111
S';'
sbatba(lp2947
g2472
atbsg111
g2464
sbatba(lp2948
g2462
atbsg111
g2454
sbatba(lp2949
g2452
atbsg111
g2423
sbag1
(g10
g3
NtRp2950
(dp2951
g13
g1
(g14
g3
NtRp2952
((lp2953
g17
(g18
(I0
tS'b'
tRp2954
((I1
(L1L
tg21
I00
(lp2955
S'_$blockend_'
p2956
at(Nttba(lp2957
g17
(g25
(I0
tS'b'
tRp2958
(I1
(L1L
tg21
I00
(lp2959
g1
(g10
g3
NtRp2960
(dp2961
g13
g1
(g14
g3
NtRp2962
((lp2963
g17
(g18
(I0
tS'b'
tRp2964
((I1
(L0L
tg21
I00
(lt(Nttba(lp2965
g17
(g25
(I0
tS'b'
tRp2966
(I1
(L0L
tg21
I00
(ltba(lp2967
g2964
atbsg111
S'$blockend'
p2968
sbatba(lp2969
g2954
atbsg111
g2424
sbatba(lp2970
g2420
atbsg111
S'Block'
p2971
sbag1
(g10
g3
NtRp2972
(dp2973
g13
g1
(g14
g3
NtRp2974
((lp2975
g17
(g18
(I0
tS'b'
tRp2976
((I1
(L1L
tg21
I00
(lp2977
S'_else_'
p2978
at(Nttba(lp2979
g17
(g25
(I0
tS'b'
tRp2980
(I1
(L1L
tg21
I00
(lp2981
g1
(g10
g3
NtRp2982
(dp2983
g13
g1
(g14
g3
NtRp2984
((lp2985
g17
(g18
(I0
tS'b'
tRp2986
((I1
(L0L
tg21
I00
(lt(Nttba(lp2987
g17
(g25
(I0
tS'b'
tRp2988
(I1
(L0L
tg21
I00
(ltba(lp2989
g2986
atbsg111
S'else'
p2990
sbatba(lp2991
g2976
atbsg111
g2238
sbag1
(g10
g3
NtRp2992
(dp2993
g13
g1
(g14
g3
NtRp2994
((lp2995
g17
(g18
(I0
tS'b'
tRp2996
((I1
(L3L
tg21
I00
(lp2997
S'Blockbegin'
p2998
aS'Prog'
p2999
aS'Blockend'
p3000
at(Nttba(lp3001
g17
(g25
(I0
tS'b'
tRp3002
(I1
(L3L
tg21
I00
(lp3003
g1
(g10
g3
NtRp3004
(dp3005
g13
g1
(g14
g3
NtRp3006
((lp3007
g17
(g18
(I0
tS'b'
tRp3008
((I1
(L1L
tg21
I00
(lp3009
S'_:$blockbegin_'
p3010
at(Nttba(lp3011
g17
(g25
(I0
tS'b'
tRp3012
(I1
(L1L
tg21
I00
(lp3013
g1
(g10
g3
NtRp3014
(dp3015
g13
g1
(g14
g3
NtRp3016
((lp3017
g17
(g18
(I0
tS'b'
tRp3018
((I1
(L0L
tg21
I00
(lt(Nttba(lp3019
g17
(g25
(I0
tS'b'
tRp3020
(I1
(L0L
tg21
I00
(ltba(lp3021
g3018
atbsg111
S':$blockbegin'
p3022
sbatba(lp3023
g3008
atbsg111
g2998
sbag1
(g10
g3
NtRp3024
(dp3025
g13
g1
(g14
g3
NtRp3026
((lp3027
g17
(g18
(I0
tS'b'
tRp3028
((I1
(L1L
tg21
I00
(lp3029
S'Stmt'
p3030
at(Nttba(lp3031
g17
(g25
(I0
tS'b'
tRp3032
(I1
(L1L
tg21
I00
(lp3033
g1
(g10
g3
NtRp3034
(dp3035
g13
g1
(g14
g3
NtRp3036
((lp3037
g17
(g18
(I0
tS'b'
tRp3038
((I1
(L1L
tg21
I00
(lp3039
S'Single_stmt'
p3040
at(Nttba(lp3041
g17
(g25
(I0
tS'b'
tRp3042
(I1
(L1L
tg21
I00
(lp3043
g1
(g10
g3
NtRp3044
(dp3045
g13
g1
(g14
g3
NtRp3046
((lp3047
g17
(g18
(I0
tS'b'
tRp3048
((I1
(L2L
tg21
I00
(lp3049
S'Assign_stmt'
p3050
aS'_;_'
p3051
at(Nttba(lp3052
g17
(g25
(I0
tS'b'
tRp3053
(I1
(L2L
tg21
I00
(lp3054
g1
(g10
g3
NtRp3055
(dp3056
g13
g1
(g14
g3
NtRp3057
((lp3058
g17
(g18
(I0
tS'b'
tRp3059
((I1
(L1L
tg21
I00
(lp3060
S'Aug_assign'
p3061
at(Nttba(lp3062
g17
(g25
(I0
tS'b'
tRp3063
(I1
(L1L
tg21
I00
(lp3064
g1
(g10
g3
NtRp3065
(dp3066
g13
g1
(g14
g3
NtRp3067
((lp3068
g17
(g18
(I0
tS'b'
tRp3069
((I1
(L3L
tg21
I00
(lp3070
S'Var'
p3071
aS'Aug_op'
p3072
aS'Exprlist'
p3073
at(Nttba(lp3074
g17
(g25
(I0
tS'b'
tRp3075
(I1
(L3L
tg21
I00
(lp3076
g1
(g10
g3
NtRp3077
(dp3078
g13
g1
(g14
g3
NtRp3079
((lp3080
g17
(g18
(I0
tS'b'
tRp3081
((I1
(L4L
tg21
I00
(lp3082
S'Var'
p3083
aS'_[_'
p3084
aS'Slice'
p3085
aS'_]_'
p3086
at(Nttba(lp3087
g17
(g25
(I0
tS'b'
tRp3088
(I1
(L4L
tg21
I00
(lp3089
g1
(g10
g3
NtRp3090
(dp3091
g13
g1
(g14
g3
NtRp3092
((lp3093
g17
(g18
(I0
tS'b'
tRp3094
((I1
(L1L
tg21
I00
(lp3095
S'Id'
p3096
at(Nttba(lp3097
g17
(g25
(I0
tS'b'
tRp3098
(I1
(L1L
tg21
I00
(lp3099
g1
(g10
g3
NtRp3100
(dp3101
g13
g1
(g14
g3
NtRp3102
((lp3103
g17
(g18
(I0
tS'b'
tRp3104
((I1
(L1L
tg21
I00
(lp3105
S'_L_'
p3106
at(Nttba(lp3107
g17
(g25
(I0
tS'b'
tRp3108
(I1
(L1L
tg21
I00
(lp3109
g1
(g10
g3
NtRp3110
(dp3111
g13
g1
(g14
g3
NtRp3112
((lp3113
g17
(g18
(I0
tS'b'
tRp3114
((I1
(L0L
tg21
I00
(lt(Nttba(lp3115
g17
(g25
(I0
tS'b'
tRp3116
(I1
(L0L
tg21
I00
(ltba(lp3117
g3114
atbsg111
S'L'
sbatba(lp3118
g3104
atbsg111
g3096
sbatba(lp3119
g3094
atbsg111
g3083
sbag1
(g10
g3
NtRp3120
(dp3121
g13
g1
(g14
g3
NtRp3122
((lp3123
g17
(g18
(I0
tS'b'
tRp3124
((I1
(L0L
tg21
I00
(lt(Nttba(lp3125
g17
(g25
(I0
tS'b'
tRp3126
(I1
(L0L
tg21
I00
(ltba(lp3127
g3124
atbsg111
S'['
sbag1
(g10
g3
NtRp3128
(dp3129
g13
g1
(g14
g3
NtRp3130
((lp3131
g17
(g18
(I0
tS'b'
tRp3132
((I1
(L1L
tg21
I00
(lp3133
S'Expr'
p3134
at(Nttba(lp3135
g17
(g25
(I0
tS'b'
tRp3136
(I1
(L1L
tg21
I00
(lp3137
g1
(g10
g3
NtRp3138
(dp3139
g13
g1
(g14
g3
NtRp3140
((lp3141
g17
(g18
(I0
tS'b'
tRp3142
((I1
(L1L
tg21
I00
(lp3143
S'Val_label'
p3144
at(Nttba(lp3145
g17
(g25
(I0
tS'b'
tRp3146
(I1
(L1L
tg21
I00
(lp3147
g1
(g10
g3
NtRp3148
(dp3149
g13
g1
(g14
g3
NtRp3150
((lp3151
g17
(g18
(I0
tS'b'
tRp3152
((I1
(L1L
tg21
I00
(lp3153
S'Var'
p3154
at(Nttba(lp3155
g17
(g25
(I0
tS'b'
tRp3156
(I1
(L1L
tg21
I00
(lp3157
g1
(g10
g3
NtRp3158
(dp3159
g13
g1
(g14
g3
NtRp3160
((lp3161
g17
(g18
(I0
tS'b'
tRp3162
((I1
(L1L
tg21
I00
(lp3163
S'Id'
p3164
at(Nttba(lp3165
g17
(g25
(I0
tS'b'
tRp3166
(I1
(L1L
tg21
I00
(lp3167
g1
(g10
g3
NtRp3168
(dp3169
g13
g1
(g14
g3
NtRp3170
((lp3171
g17
(g18
(I0
tS'b'
tRp3172
((I1
(L1L
tg21
I00
(lp3173
S'_i_'
p3174
at(Nttba(lp3175
g17
(g25
(I0
tS'b'
tRp3176
(I1
(L1L
tg21
I00
(lp3177
g1
(g10
g3
NtRp3178
(dp3179
g13
g1
(g14
g3
NtRp3180
((lp3181
g17
(g18
(I0
tS'b'
tRp3182
((I1
(L0L
tg21
I00
(lt(Nttba(lp3183
g17
(g25
(I0
tS'b'
tRp3184
(I1
(L0L
tg21
I00
(ltba(lp3185
g3182
atbsg111
S'i'
sbatba(lp3186
g3172
atbsg111
g3164
sbatba(lp3187
g3162
atbsg111
g3154
sbatba(lp3188
g3152
atbsg111
S'Val'
p3189
sbatba(lp3190
g3142
atbsg111
S'Expr'
p3191
sbatba(lp3192
g3132
atbsg111
g3085
sbag1
(g10
g3
NtRp3193
(dp3194
g13
g1
(g14
g3
NtRp3195
((lp3196
g17
(g18
(I0
tS'b'
tRp3197
((I1
(L0L
tg21
I00
(lt(Nttba(lp3198
g17
(g25
(I0
tS'b'
tRp3199
(I1
(L0L
tg21
I00
(ltba(lp3200
g3197
atbsg111
S']'
sbatba(lp3201
g3081
atbsg111
g3071
sbag1
(g10
g3
NtRp3202
(dp3203
g13
g1
(g14
g3
NtRp3204
((lp3205
g17
(g18
(I0
tS'b'
tRp3206
((I1
(L1L
tg21
I00
(lp3207
S'_+=_'
p3208
at(Nttba(lp3209
g17
(g25
(I0
tS'b'
tRp3210
(I1
(L1L
tg21
I00
(lp3211
g1
(g10
g3
NtRp3212
(dp3213
g13
g1
(g14
g3
NtRp3214
((lp3215
g17
(g18
(I0
tS'b'
tRp3216
((I1
(L0L
tg21
I00
(lt(Nttba(lp3217
g17
(g25
(I0
tS'b'
tRp3218
(I1
(L0L
tg21
I00
(ltba(lp3219
g3216
atbsg111
S'+='
p3220
sbatba(lp3221
g3206
atbsg111
g3072
sbag1
(g10
g3
NtRp3222
(dp3223
g13
g1
(g14
g3
NtRp3224
((lp3225
g17
(g18
(I0
tS'b'
tRp3226
((I1
(L1L
tg21
I00
(lp3227
S'Expr'
p3228
at(Nttba(lp3229
g17
(g25
(I0
tS'b'
tRp3230
(I1
(L1L
tg21
I00
(lp3231
g1
(g10
g3
NtRp3232
(dp3233
g13
g1
(g14
g3
NtRp3234
((lp3235
g17
(g18
(I0
tS'b'
tRp3236
((I1
(L1L
tg21
I00
(lp3237
S'Val_label'
p3238
at(Nttba(lp3239
g17
(g25
(I0
tS'b'
tRp3240
(I1
(L1L
tg21
I00
(lp3241
g1
(g10
g3
NtRp3242
(dp3243
g13
g1
(g14
g3
NtRp3244
((lp3245
g17
(g18
(I0
tS'b'
tRp3246
((I1
(L1L
tg21
I00
(lp3247
S'Number'
p3248
at(Nttba(lp3249
g17
(g25
(I0
tS'b'
tRp3250
(I1
(L1L
tg21
I00
(lp3251
g1
(g10
g3
NtRp3252
(dp3253
g13
g1
(g14
g3
NtRp3254
((lp3255
g17
(g18
(I0
tS'b'
tRp3256
((I1
(L1L
tg21
I00
(lp3257
S'Int'
p3258
at(Nttba(lp3259
g17
(g25
(I0
tS'b'
tRp3260
(I1
(L1L
tg21
I00
(lp3261
g1
(g10
g3
NtRp3262
(dp3263
g13
g1
(g14
g3
NtRp3264
((lp3265
g17
(g18
(I0
tS'b'
tRp3266
((I1
(L1L
tg21
I00
(lp3267
S'_1_'
p3268
at(Nttba(lp3269
g17
(g25
(I0
tS'b'
tRp3270
(I1
(L1L
tg21
I00
(lp3271
g1
(g10
g3
NtRp3272
(dp3273
g13
g1
(g14
g3
NtRp3274
((lp3275
g17
(g18
(I0
tS'b'
tRp3276
((I1
(L0L
tg21
I00
(lt(Nttba(lp3277
g17
(g25
(I0
tS'b'
tRp3278
(I1
(L0L
tg21
I00
(ltba(lp3279
g3276
atbsg111
S'1'
sbatba(lp3280
g3266
atbsg111
g3258
sbatba(lp3281
g3256
atbsg111
g3248
sbatba(lp3282
g3246
atbsg111
S'Val'
p3283
sbatba(lp3284
g3236
atbsg111
S'Expr'
p3285
sbatba(lp3286
g3226
atbsg111
g3073
sbatba(lp3287
g3069
atbsg111
g3061
sbatba(lp3288
g3059
atbsg111
g3050
sbag1
(g10
g3
NtRp3289
(dp3290
g13
g1
(g14
g3
NtRp3291
((lp3292
g17
(g18
(I0
tS'b'
tRp3293
((I1
(L0L
tg21
I00
(lt(Nttba(lp3294
g17
(g25
(I0
tS'b'
tRp3295
(I1
(L0L
tg21
I00
(ltba(lp3296
g3293
atbsg111
S';'
sbatba(lp3297
g3048
atbsg111
g3040
sbatba(lp3298
g3038
atbsg111
g3030
sbatba(lp3299
g3028
atbsg111
g2999
sbag1
(g10
g3
NtRp3300
(dp3301
g13
g1
(g14
g3
NtRp3302
((lp3303
g17
(g18
(I0
tS'b'
tRp3304
((I1
(L1L
tg21
I00
(lp3305
S'_$blockend_'
p3306
at(Nttba(lp3307
g17
(g25
(I0
tS'b'
tRp3308
(I1
(L1L
tg21
I00
(lp3309
g1
(g10
g3
NtRp3310
(dp3311
g13
g1
(g14
g3
NtRp3312
((lp3313
g17
(g18
(I0
tS'b'
tRp3314
((I1
(L0L
tg21
I00
(lt(Nttba(lp3315
g17
(g25
(I0
tS'b'
tRp3316
(I1
(L0L
tg21
I00
(ltba(lp3317
g3314
atbsg111
S'$blockend'
p3318
sbatba(lp3319
g3304
atbsg111
g3000
sbatba(lp3320
g2996
atbsg111
S'Block'
p3321
sbatba(lp3322
g2234
atbsg111
g2226
sbatba(lp3323
g2224
atbsg111
g2216
sbatba(lp3324
g2214
atbsg111
g2206
sbatba(lp3325
g2204
atbsg111
g2175
sbag1
(g10
g3
NtRp3326
(dp3327
g13
g1
(g14
g3
NtRp3328
((lp3329
g17
(g18
(I0
tS'b'
tRp3330
((I1
(L1L
tg21
I00
(lp3331
S'_$blockend_'
p3332
at(Nttba(lp3333
g17
(g25
(I0
tS'b'
tRp3334
(I1
(L1L
tg21
I00
(lp3335
g1
(g10
g3
NtRp3336
(dp3337
g13
g1
(g14
g3
NtRp3338
((lp3339
g17
(g18
(I0
tS'b'
tRp3340
((I1
(L0L
tg21
I00
(lt(Nttba(lp3341
g17
(g25
(I0
tS'b'
tRp3342
(I1
(L0L
tg21
I00
(ltba(lp3343
g3340
atbsg111
S'$blockend'
p3344
sbatba(lp3345
g3330
atbsg111
g2176
sbatba(lp3346
g2172
atbsg111
g1733
sbatba(lp3347
g1730
atbsg111
g1722
sbatba(lp3348
g1720
atbsg111
S'Stmt'
p3349
sbag1
(g10
g3
NtRp3350
(dp3351
g13
g1
(g14
g3
NtRp3352
((lp3353
g17
(g18
(I0
tS'b'
tRp3354
((I1
(L1L
tg21
I00
(lp3355
S'Block_stmt'
p3356
at(Nttba(lp3357
g17
(g25
(I0
tS'b'
tRp3358
(I1
(L1L
tg21
I00
(lp3359
g1
(g10
g3
NtRp3360
(dp3361
g13
g1
(g14
g3
NtRp3362
((lp3363
g17
(g18
(I0
tS'b'
tRp3364
((I1
(L2L
tg21
I00
(lp3365
S'Block_head'
p3366
aS'Block'
p3367
at(Nttba(lp3368
g17
(g25
(I0
tS'b'
tRp3369
(I1
(L2L
tg21
I00
(lp3370
g1
(g10
g3
NtRp3371
(dp3372
g13
g1
(g14
g3
NtRp3373
((lp3374
g17
(g18
(I0
tS'b'
tRp3375
((I1
(L1L
tg21
I00
(lp3376
S'Loop'
p3377
at(Nttba(lp3378
g17
(g25
(I0
tS'b'
tRp3379
(I1
(L1L
tg21
I00
(lp3380
g1
(g10
g3
NtRp3381
(dp3382
g13
g1
(g14
g3
NtRp3383
((lp3384
g17
(g18
(I0
tS'b'
tRp3385
((I1
(L1L
tg21
I00
(lp3386
S'For'
p3387
at(Nttba(lp3388
g17
(g25
(I0
tS'b'
tRp3389
(I1
(L1L
tg21
I00
(lp3390
g1
(g10
g3
NtRp3391
(dp3392
g13
g1
(g14
g3
NtRp3393
((lp3394
g17
(g18
(I0
tS'b'
tRp3395
((I1
(L4L
tg21
I00
(lp3396
S'_for_'
p3397
aS'Varlist'
p3398
aS'_in_'
p3399
aS'Exprlist'
p3400
at(Nttba(lp3401
g17
(g25
(I0
tS'b'
tRp3402
(I1
(L4L
tg21
I00
(lp3403
g1
(g10
g3
NtRp3404
(dp3405
g13
g1
(g14
g3
NtRp3406
((lp3407
g17
(g18
(I0
tS'b'
tRp3408
((I1
(L0L
tg21
I00
(lt(Nttba(lp3409
g17
(g25
(I0
tS'b'
tRp3410
(I1
(L0L
tg21
I00
(ltba(lp3411
g3408
atbsg111
S'for'
p3412
sbag1
(g10
g3
NtRp3413
(dp3414
g13
g1
(g14
g3
NtRp3415
((lp3416
g17
(g18
(I0
tS'b'
tRp3417
((I1
(L1L
tg21
I00
(lp3418
S'Vartuple'
p3419
at(Nttba(lp3420
g17
(g25
(I0
tS'b'
tRp3421
(I1
(L1L
tg21
I00
(lp3422
g1
(g10
g3
NtRp3423
(dp3424
g13
g1
(g14
g3
NtRp3425
((lp3426
g17
(g18
(I0
tS'b'
tRp3427
((I1
(L1L
tg21
I00
(lp3428
S'Var'
p3429
at(Nttba(lp3430
g17
(g25
(I0
tS'b'
tRp3431
(I1
(L1L
tg21
I00
(lp3432
g1
(g10
g3
NtRp3433
(dp3434
g13
g1
(g14
g3
NtRp3435
((lp3436
g17
(g18
(I0
tS'b'
tRp3437
((I1
(L1L
tg21
I00
(lp3438
S'Id'
p3439
at(Nttba(lp3440
g17
(g25
(I0
tS'b'
tRp3441
(I1
(L1L
tg21
I00
(lp3442
g1
(g10
g3
NtRp3443
(dp3444
g13
g1
(g14
g3
NtRp3445
((lp3446
g17
(g18
(I0
tS'b'
tRp3447
((I1
(L1L
tg21
I00
(lp3448
S'_x_'
p3449
at(Nttba(lp3450
g17
(g25
(I0
tS'b'
tRp3451
(I1
(L1L
tg21
I00
(lp3452
g1
(g10
g3
NtRp3453
(dp3454
g13
g1
(g14
g3
NtRp3455
((lp3456
g17
(g18
(I0
tS'b'
tRp3457
((I1
(L0L
tg21
I00
(lt(Nttba(lp3458
g17
(g25
(I0
tS'b'
tRp3459
(I1
(L0L
tg21
I00
(ltba(lp3460
g3457
atbsg111
S'x'
sbatba(lp3461
g3447
atbsg111
g3439
sbatba(lp3462
g3437
atbsg111
g3429
sbatba(lp3463
g3427
atbsg111
g3419
sbatba(lp3464
g3417
atbsg111
g3398
sbag1
(g10
g3
NtRp3465
(dp3466
g13
g1
(g14
g3
NtRp3467
((lp3468
g17
(g18
(I0
tS'b'
tRp3469
((I1
(L0L
tg21
I00
(lt(Nttba(lp3470
g17
(g25
(I0
tS'b'
tRp3471
(I1
(L0L
tg21
I00
(ltba(lp3472
g3469
atbsg111
S'in'
p3473
sbag1
(g10
g3
NtRp3474
(dp3475
g13
g1
(g14
g3
NtRp3476
((lp3477
g17
(g18
(I0
tS'b'
tRp3478
((I1
(L1L
tg21
I00
(lp3479
S'Expr'
p3480
at(Nttba(lp3481
g17
(g25
(I0
tS'b'
tRp3482
(I1
(L1L
tg21
I00
(lp3483
g1
(g10
g3
NtRp3484
(dp3485
g13
g1
(g14
g3
NtRp3486
((lp3487
g17
(g18
(I0
tS'b'
tRp3488
((I1
(L1L
tg21
I00
(lp3489
S'Val_label'
p3490
at(Nttba(lp3491
g17
(g25
(I0
tS'b'
tRp3492
(I1
(L1L
tg21
I00
(lp3493
g1
(g10
g3
NtRp3494
(dp3495
g13
g1
(g14
g3
NtRp3496
((lp3497
g17
(g18
(I0
tS'b'
tRp3498
((I1
(L1L
tg21
I00
(lp3499
S'Var'
p3500
at(Nttba(lp3501
g17
(g25
(I0
tS'b'
tRp3502
(I1
(L1L
tg21
I00
(lp3503
g1
(g10
g3
NtRp3504
(dp3505
g13
g1
(g14
g3
NtRp3506
((lp3507
g17
(g18
(I0
tS'b'
tRp3508
((I1
(L1L
tg21
I00
(lp3509
S'Id'
p3510
at(Nttba(lp3511
g17
(g25
(I0
tS'b'
tRp3512
(I1
(L1L
tg21
I00
(lp3513
g1
(g10
g3
NtRp3514
(dp3515
g13
g1
(g14
g3
NtRp3516
((lp3517
g17
(g18
(I0
tS'b'
tRp3518
((I1
(L1L
tg21
I00
(lp3519
S'_L_'
p3520
at(Nttba(lp3521
g17
(g25
(I0
tS'b'
tRp3522
(I1
(L1L
tg21
I00
(lp3523
g1
(g10
g3
NtRp3524
(dp3525
g13
g1
(g14
g3
NtRp3526
((lp3527
g17
(g18
(I0
tS'b'
tRp3528
((I1
(L0L
tg21
I00
(lt(Nttba(lp3529
g17
(g25
(I0
tS'b'
tRp3530
(I1
(L0L
tg21
I00
(ltba(lp3531
g3528
atbsg111
S'L'
sbatba(lp3532
g3518
atbsg111
g3510
sbatba(lp3533
g3508
atbsg111
g3500
sbatba(lp3534
g3498
atbsg111
S'Val'
p3535
sbatba(lp3536
g3488
atbsg111
S'Expr'
p3537
sbatba(lp3538
g3478
atbsg111
g3400
sbatba(lp3539
g3395
atbsg111
g3387
sbatba(lp3540
g3385
atbsg111
g3377
sbatba(lp3541
g3375
atbsg111
g3366
sbag1
(g10
g3
NtRp3542
(dp3543
g13
g1
(g14
g3
NtRp3544
((lp3545
g17
(g18
(I0
tS'b'
tRp3546
((I1
(L3L
tg21
I00
(lp3547
S'Blockbegin'
p3548
aS'Prog'
p3549
aS'Blockend'
p3550
at(Nttba(lp3551
g17
(g25
(I0
tS'b'
tRp3552
(I1
(L3L
tg21
I00
(lp3553
g1
(g10
g3
NtRp3554
(dp3555
g13
g1
(g14
g3
NtRp3556
((lp3557
g17
(g18
(I0
tS'b'
tRp3558
((I1
(L1L
tg21
I00
(lp3559
S'_:$blockbegin_'
p3560
at(Nttba(lp3561
g17
(g25
(I0
tS'b'
tRp3562
(I1
(L1L
tg21
I00
(lp3563
g1
(g10
g3
NtRp3564
(dp3565
g13
g1
(g14
g3
NtRp3566
((lp3567
g17
(g18
(I0
tS'b'
tRp3568
((I1
(L0L
tg21
I00
(lt(Nttba(lp3569
g17
(g25
(I0
tS'b'
tRp3570
(I1
(L0L
tg21
I00
(ltba(lp3571
g3568
atbsg111
S':$blockbegin'
p3572
sbatba(lp3573
g3558
atbsg111
g3548
sbag1
(g10
g3
NtRp3574
(dp3575
g13
g1
(g14
g3
NtRp3576
((lp3577
g17
(g18
(I0
tS'b'
tRp3578
((I1
(L1L
tg21
I00
(lp3579
S'Stmt'
p3580
at(Nttba(lp3581
g17
(g25
(I0
tS'b'
tRp3582
(I1
(L1L
tg21
I00
(lp3583
g1
(g10
g3
NtRp3584
(dp3585
g13
g1
(g14
g3
NtRp3586
((lp3587
g17
(g18
(I0
tS'b'
tRp3588
((I1
(L1L
tg21
I00
(lp3589
S'Single_stmt'
p3590
at(Nttba(lp3591
g17
(g25
(I0
tS'b'
tRp3592
(I1
(L1L
tg21
I00
(lp3593
g1
(g10
g3
NtRp3594
(dp3595
g13
g1
(g14
g3
NtRp3596
((lp3597
g17
(g18
(I0
tS'b'
tRp3598
((I1
(L2L
tg21
I00
(lp3599
S'Print_stmt'
p3600
aS'_;_'
p3601
at(Nttba(lp3602
g17
(g25
(I0
tS'b'
tRp3603
(I1
(L2L
tg21
I00
(lp3604
g1
(g10
g3
NtRp3605
(dp3606
g13
g1
(g14
g3
NtRp3607
((lp3608
g17
(g18
(I0
tS'b'
tRp3609
((I1
(L2L
tg21
I00
(lp3610
S'_print_'
p3611
aS'Exprlist'
p3612
at(Nttba(lp3613
g17
(g25
(I0
tS'b'
tRp3614
(I1
(L2L
tg21
I00
(lp3615
g1
(g10
g3
NtRp3616
(dp3617
g13
g1
(g14
g3
NtRp3618
((lp3619
g17
(g18
(I0
tS'b'
tRp3620
((I1
(L0L
tg21
I00
(lt(Nttba(lp3621
g17
(g25
(I0
tS'b'
tRp3622
(I1
(L0L
tg21
I00
(ltba(lp3623
g3620
atbsg111
S'print'
p3624
sbag1
(g10
g3
NtRp3625
(dp3626
g13
g1
(g14
g3
NtRp3627
((lp3628
g17
(g18
(I0
tS'b'
tRp3629
((I1
(L1L
tg21
I00
(lp3630
S'Expr'
p3631
at(Nttba(lp3632
g17
(g25
(I0
tS'b'
tRp3633
(I1
(L1L
tg21
I00
(lp3634
g1
(g10
g3
NtRp3635
(dp3636
g13
g1
(g14
g3
NtRp3637
((lp3638
g17
(g18
(I0
tS'b'
tRp3639
((I1
(L1L
tg21
I00
(lp3640
S'Val_label'
p3641
at(Nttba(lp3642
g17
(g25
(I0
tS'b'
tRp3643
(I1
(L1L
tg21
I00
(lp3644
g1
(g10
g3
NtRp3645
(dp3646
g13
g1
(g14
g3
NtRp3647
((lp3648
g17
(g18
(I0
tS'b'
tRp3649
((I1
(L1L
tg21
I00
(lp3650
S'Var'
p3651
at(Nttba(lp3652
g17
(g25
(I0
tS'b'
tRp3653
(I1
(L1L
tg21
I00
(lp3654
g1
(g10
g3
NtRp3655
(dp3656
g13
g1
(g14
g3
NtRp3657
((lp3658
g17
(g18
(I0
tS'b'
tRp3659
((I1
(L1L
tg21
I00
(lp3660
S'Id'
p3661
at(Nttba(lp3662
g17
(g25
(I0
tS'b'
tRp3663
(I1
(L1L
tg21
I00
(lp3664
g1
(g10
g3
NtRp3665
(dp3666
g13
g1
(g14
g3
NtRp3667
((lp3668
g17
(g18
(I0
tS'b'
tRp3669
((I1
(L1L
tg21
I00
(lp3670
S'_x_'
p3671
at(Nttba(lp3672
g17
(g25
(I0
tS'b'
tRp3673
(I1
(L1L
tg21
I00
(lp3674
g1
(g10
g3
NtRp3675
(dp3676
g13
g1
(g14
g3
NtRp3677
((lp3678
g17
(g18
(I0
tS'b'
tRp3679
((I1
(L0L
tg21
I00
(lt(Nttba(lp3680
g17
(g25
(I0
tS'b'
tRp3681
(I1
(L0L
tg21
I00
(ltba(lp3682
g3679
atbsg111
S'x'
sbatba(lp3683
g3669
atbsg111
g3661
sbatba(lp3684
g3659
atbsg111
g3651
sbatba(lp3685
g3649
atbsg111
S'Val'
p3686
sbatba(lp3687
g3639
atbsg111
S'Expr'
p3688
sbatba(lp3689
g3629
atbsg111
g3612
sbatba(lp3690
g3609
atbsg111
g3600
sbag1
(g10
g3
NtRp3691
(dp3692
g13
g1
(g14
g3
NtRp3693
((lp3694
g17
(g18
(I0
tS'b'
tRp3695
((I1
(L0L
tg21
I00
(lt(Nttba(lp3696
g17
(g25
(I0
tS'b'
tRp3697
(I1
(L0L
tg21
I00
(ltba(lp3698
g3695
atbsg111
S';'
sbatba(lp3699
g3598
atbsg111
g3590
sbatba(lp3700
g3588
atbsg111
g3580
sbatba(lp3701
g3578
atbsg111
g3549
sbag1
(g10
g3
NtRp3702
(dp3703
g13
g1
(g14
g3
NtRp3704
((lp3705
g17
(g18
(I0
tS'b'
tRp3706
((I1
(L1L
tg21
I00
(lp3707
S'_$blockend_'
p3708
at(Nttba(lp3709
g17
(g25
(I0
tS'b'
tRp3710
(I1
(L1L
tg21
I00
(lp3711
g1
(g10
g3
NtRp3712
(dp3713
g13
g1
(g14
g3
NtRp3714
((lp3715
g17
(g18
(I0
tS'b'
tRp3716
((I1
(L0L
tg21
I00
(lt(Nttba(lp3717
g17
(g25
(I0
tS'b'
tRp3718
(I1
(L0L
tg21
I00
(ltba(lp3719
g3716
atbsg111
S'$blockend'
p3720
sbatba(lp3721
g3706
atbsg111
g3550
sbatba(lp3722
g3546
atbsg111
g3367
sbatba(lp3723
g3364
atbsg111
g3356
sbatba(lp3724
g3354
atbsg111
S'Stmt'
p3725
sbatba(lp3726
g32
atbsg111
g23
sbatba(lp3727
g19
atbsg111
g9
sbsS'pos'
p3728
g11
sb.