ccopy_reg
_reconstructor
p1
(ctree
Tree
p2
c__builtin__
object
p3
NtRp4
(dp5
S'patterns'
p6
c__builtin__
set
p7
((ltRp8
sS'root'
p9
g1
(ctree
vertex
p10
g3
NtRp11
(dp12
S'_data'
p13
g1
(cpandas.core.internals
SingleBlockManager
p14
g3
NtRp15
((lp16
cnumpy.core.multiarray
_reconstruct
p17
(cpandas.core.index
Index
p18
(I0
tS'b'
tRp19
((I1
(L1L
tcnumpy
dtype
p20
(S'O8'
I0
I1
tRp21
(I3
S'|'
NNNI-1
I-1
I63
tbI00
(lp22
S'Prog'
p23
at(Nttba(lp24
g17
(cnumpy
ndarray
p25
(I0
tS'b'
tRp26
(I1
(L1L
tg21
I00
(lp27
g1
(g10
g3
NtRp28
(dp29
g13
g1
(g14
g3
NtRp30
((lp31
g17
(g18
(I0
tS'b'
tRp32
((I1
(L4L
tg21
I00
(lp33
S'Stmt1'
p34
aS'Stmt2'
p35
aS'Stmt3'
p36
aS'Stmt4'
p37
at(Nttba(lp38
g17
(g25
(I0
tS'b'
tRp39
(I1
(L4L
tg21
I00
(lp40
g1
(g10
g3
NtRp41
(dp42
g13
g1
(g14
g3
NtRp43
((lp44
g17
(g18
(I0
tS'b'
tRp45
((I1
(L1L
tg21
I00
(lp46
S'Block_stmt'
p47
at(Nttba(lp48
g17
(g25
(I0
tS'b'
tRp49
(I1
(L1L
tg21
I00
(lp50
g1
(g10
g3
NtRp51
(dp52
g13
g1
(g14
g3
NtRp53
((lp54
g17
(g18
(I0
tS'b'
tRp55
((I1
(L2L
tg21
I00
(lp56
S'Block_head'
p57
aS'Block'
p58
at(Nttba(lp59
g17
(g25
(I0
tS'b'
tRp60
(I1
(L2L
tg21
I00
(lp61
g1
(g10
g3
NtRp62
(dp63
g13
g1
(g14
g3
NtRp64
((lp65
g17
(g18
(I0
tS'b'
tRp66
((I1
(L1L
tg21
I00
(lp67
S'Func'
p68
at(Nttba(lp69
g17
(g25
(I0
tS'b'
tRp70
(I1
(L1L
tg21
I00
(lp71
g1
(g10
g3
NtRp72
(dp73
g13
g1
(g14
g3
NtRp74
((lp75
g17
(g18
(I0
tS'b'
tRp76
((I1
(L5L
tg21
I00
(lp77
S'_def_'
p78
aS'Id_var'
p79
aS'_(_'
p80
aS'Paramlist'
p81
aS'_)_'
p82
at(Nttba(lp83
g17
(g25
(I0
tS'b'
tRp84
(I1
(L5L
tg21
I00
(lp85
g1
(g10
g3
NtRp86
(dp87
g13
g1
(g14
g3
NtRp88
((lp89
g17
(g18
(I0
tS'b'
tRp90
((I1
(L0L
tg21
I00
(lt(Nttba(lp91
g17
(g25
(I0
tS'b'
tRp92
(I1
(L0L
tg21
I00
(ltba(lp93
g17
(g18
(I0
tS'b'
tRp94
((I1
(L0L
tg21
I00
(lt(Nttba(dp95
S'0.14.1'
p96
(dp97
S'axes'
p98
g89
sS'blocks'
p99
(lp100
(dp101
S'mgr_locs'
p102
g17
(g25
(I0
tS'b'
tRp103
(I1
(L0L
tg20
(S'i8'
I0
I1
tRp104
(I3
S'<'
NNNI-1
I-1
I0
tbI00
S''
tbsS'values'
p105
g92
sasstbsS'name'
p106
S'def'
p107
sbag1
(g10
g3
NtRp108
(dp109
g13
g1
(g14
g3
NtRp110
((lp111
g17
(g18
(I0
tS'b'
tRp112
((I1
(L1L
tg21
I00
(lp113
S'_f_'
p114
at(Nttba(lp115
g17
(g25
(I0
tS'b'
tRp116
(I1
(L1L
tg21
I00
(lp117
g1
(g10
g3
NtRp118
(dp119
g13
g1
(g14
g3
NtRp120
((lp121
g17
(g18
(I0
tS'b'
tRp122
((I1
(L0L
tg21
I00
(lt(Nttba(lp123
g17
(g25
(I0
tS'b'
tRp124
(I1
(L0L
tg21
I00
(ltba(lp125
g17
(g18
(I0
tS'b'
tRp126
((I1
(L0L
tg21
I00
(lt(Nttba(dp127
g96
(dp128
g98
g121
sg99
(lp129
(dp130
g102
g17
(g25
(I0
tS'b'
tRp131
(I1
(L0L
tg104
I00
S''
tbsg105
g124
sasstbsg106
S'f'
sbatba(lp132
g17
(g18
(I0
tS'b'
tRp133
((I1
(L1L
tg21
I00
(lp134
g114
at(Nttba(dp135
g96
(dp136
g98
g111
sg99
(lp137
(dp138
g102
c__builtin__
slice
p139
(I0
I1
I1
tRp140
sg105
g116
sasstbsg106
g79
sbag1
(g10
g3
NtRp141
(dp142
g13
g1
(g14
g3
NtRp143
((lp144
g17
(g18
(I0
tS'b'
tRp145
((I1
(L0L
tg21
I00
(lt(Nttba(lp146
g17
(g25
(I0
tS'b'
tRp147
(I1
(L0L
tg21
I00
(ltba(lp148
g17
(g18
(I0
tS'b'
tRp149
((I1
(L0L
tg21
I00
(lt(Nttba(dp150
g96
(dp151
g98
g144
sg99
(lp152
(dp153
g102
g17
(g25
(I0
tS'b'
tRp154
(I1
(L0L
tg104
I00
S''
tbsg105
g147
sasstbsg106
S'('
sbag1
(g10
g3
NtRp155
(dp156
g13
g1
(g14
g3
NtRp157
((lp158
g17
(g18
(I0
tS'b'
tRp159
((I1
(L1L
tg21
I00
(lp160
S'Pos_paramlist'
p161
at(Nttba(lp162
g17
(g25
(I0
tS'b'
tRp163
(I1
(L1L
tg21
I00
(lp164
g1
(g10
g3
NtRp165
(dp166
g13
g1
(g14
g3
NtRp167
((lp168
g17
(g18
(I0
tS'b'
tRp169
((I1
(L1L
tg21
I00
(lp170
S'Pos_paramtuple'
p171
at(Nttba(lp172
g17
(g25
(I0
tS'b'
tRp173
(I1
(L1L
tg21
I00
(lp174
g1
(g10
g3
NtRp175
(dp176
g13
g1
(g14
g3
NtRp177
((lp178
g17
(g18
(I0
tS'b'
tRp179
((I1
(L1L
tg21
I00
(lp180
S'Simple_var'
p181
at(Nttba(lp182
g17
(g25
(I0
tS'b'
tRp183
(I1
(L1L
tg21
I00
(lp184
g1
(g10
g3
NtRp185
(dp186
g13
g1
(g14
g3
NtRp187
((lp188
g17
(g18
(I0
tS'b'
tRp189
((I1
(L1L
tg21
I00
(lp190
S'_x_'
p191
at(Nttba(lp192
g17
(g25
(I0
tS'b'
tRp193
(I1
(L1L
tg21
I00
(lp194
g1
(g10
g3
NtRp195
(dp196
g13
g1
(g14
g3
NtRp197
((lp198
g17
(g18
(I0
tS'b'
tRp199
((I1
(L0L
tg21
I00
(lt(Nttba(lp200
g17
(g25
(I0
tS'b'
tRp201
(I1
(L0L
tg21
I00
(ltba(lp202
g17
(g18
(I0
tS'b'
tRp203
((I1
(L0L
tg21
I00
(lt(Nttba(dp204
g96
(dp205
g98
g198
sg99
(lp206
(dp207
g102
g17
(g25
(I0
tS'b'
tRp208
(I1
(L0L
tg104
I00
S''
tbsg105
g201
sasstbsg106
S'x'
sbatba(lp209
g17
(g18
(I0
tS'b'
tRp210
((I1
(L1L
tg21
I00
(lp211
g191
at(Nttba(dp212
g96
(dp213
g98
g188
sg99
(lp214
(dp215
g102
g139
(I0
I1
I1
tRp216
sg105
g193
sasstbsg106
g181
sbatba(lp217
g17
(g18
(I0
tS'b'
tRp218
((I1
(L1L
tg21
I00
(lp219
g181
at(Nttba(dp220
g96
(dp221
g98
g178
sg99
(lp222
(dp223
g102
g139
(I0
I1
I1
tRp224
sg105
g183
sasstbsg106
g171
sbatba(lp225
g17
(g18
(I0
tS'b'
tRp226
((I1
(L1L
tg21
I00
(lp227
g171
at(Nttba(dp228
g96
(dp229
g98
g168
sg99
(lp230
(dp231
g102
g139
(I0
I1
I1
tRp232
sg105
g173
sasstbsg106
g161
sbatba(lp233
g17
(g18
(I0
tS'b'
tRp234
((I1
(L1L
tg21
I00
(lp235
g161
at(Nttba(dp236
g96
(dp237
g98
g158
sg99
(lp238
(dp239
g102
g139
(I0
I1
I1
tRp240
sg105
g163
sasstbsg106
g81
sbag1
(g10
g3
NtRp241
(dp242
g13
g1
(g14
g3
NtRp243
((lp244
g17
(g18
(I0
tS'b'
tRp245
((I1
(L0L
tg21
I00
(lt(Nttba(lp246
g17
(g25
(I0
tS'b'
tRp247
(I1
(L0L
tg21
I00
(ltba(lp248
g17
(g18
(I0
tS'b'
tRp249
((I1
(L0L
tg21
I00
(lt(Nttba(dp250
g96
(dp251
g98
g244
sg99
(lp252
(dp253
g102
g17
(g25
(I0
tS'b'
tRp254
(I1
(L0L
tg104
I00
S''
tbsg105
g247
sasstbsg106
S')'
sbatba(lp255
g17
(g18
(I0
tS'b'
tRp256
((I1
(L5L
tg21
I00
(lp257
g78
ag79
ag80
ag81
ag82
at(Nttba(dp258
g96
(dp259
g98
g75
sg99
(lp260
(dp261
g102
g139
(I0
I5
I1
tRp262
sg105
g84
sasstbsg106
g68
sbatba(lp263
g17
(g18
(I0
tS'b'
tRp264
((I1
(L1L
tg21
I00
(lp265
g68
at(Nttba(dp266
g96
(dp267
g98
g65
sg99
(lp268
(dp269
g102
g139
(I0
I1
I1
tRp270
sg105
g70
sasstbsg106
g57
sbag1
(g10
g3
NtRp271
(dp272
g13
g1
(g14
g3
NtRp273
((lp274
g17
(g18
(I0
tS'b'
tRp275
((I1
(L3L
tg21
I00
(lp276
S'Blockbegin'
p277
aS'Prog'
p278
aS'Blockend'
p279
at(Nttba(lp280
g17
(g25
(I0
tS'b'
tRp281
(I1
(L3L
tg21
I00
(lp282
g1
(g10
g3
NtRp283
(dp284
g13
g1
(g14
g3
NtRp285
((lp286
g17
(g18
(I0
tS'b'
tRp287
((I1
(L1L
tg21
I00
(lp288
S'_:$blockbegin_'
p289
at(Nttba(lp290
g17
(g25
(I0
tS'b'
tRp291
(I1
(L1L
tg21
I00
(lp292
g1
(g10
g3
NtRp293
(dp294
g13
g1
(g14
g3
NtRp295
((lp296
g17
(g18
(I0
tS'b'
tRp297
((I1
(L0L
tg21
I00
(lt(Nttba(lp298
g17
(g25
(I0
tS'b'
tRp299
(I1
(L0L
tg21
I00
(ltba(lp300
g17
(g18
(I0
tS'b'
tRp301
((I1
(L0L
tg21
I00
(lt(Nttba(dp302
g96
(dp303
g98
g296
sg99
(lp304
(dp305
g102
g17
(g25
(I0
tS'b'
tRp306
(I1
(L0L
tg104
I00
S''
tbsg105
g299
sasstbsg106
S':$blockbegin'
p307
sbatba(lp308
g17
(g18
(I0
tS'b'
tRp309
((I1
(L1L
tg21
I00
(lp310
g289
at(Nttba(dp311
g96
(dp312
g98
g286
sg99
(lp313
(dp314
g102
g139
(I0
I1
I1
tRp315
sg105
g291
sasstbsg106
g277
sbag1
(g10
g3
NtRp316
(dp317
g13
g1
(g14
g3
NtRp318
((lp319
g17
(g18
(I0
tS'b'
tRp320
((I1
(L2L
tg21
I00
(lp321
S'Stmt1'
p322
aS'Stmt2'
p323
at(Nttba(lp324
g17
(g25
(I0
tS'b'
tRp325
(I1
(L2L
tg21
I00
(lp326
g1
(g10
g3
NtRp327
(dp328
g13
g1
(g14
g3
NtRp329
((lp330
g17
(g18
(I0
tS'b'
tRp331
((I1
(L1L
tg21
I00
(lp332
S'Single_stmt'
p333
at(Nttba(lp334
g17
(g25
(I0
tS'b'
tRp335
(I1
(L1L
tg21
I00
(lp336
g1
(g10
g3
NtRp337
(dp338
g13
g1
(g14
g3
NtRp339
((lp340
g17
(g18
(I0
tS'b'
tRp341
((I1
(L2L
tg21
I00
(lp342
S'Exprlist'
p343
aS'_;_'
p344
at(Nttba(lp345
g17
(g25
(I0
tS'b'
tRp346
(I1
(L2L
tg21
I00
(lp347
g1
(g10
g3
NtRp348
(dp349
g13
g1
(g14
g3
NtRp350
((lp351
g17
(g18
(I0
tS'b'
tRp352
((I1
(L1L
tg21
I00
(lp353
S'Expr'
p354
at(Nttba(lp355
g17
(g25
(I0
tS'b'
tRp356
(I1
(L1L
tg21
I00
(lp357
g1
(g10
g3
NtRp358
(dp359
g13
g1
(g14
g3
NtRp360
((lp361
g17
(g18
(I0
tS'b'
tRp362
((I1
(L1L
tg21
I00
(lp363
S'Val_label'
p364
at(Nttba(lp365
g17
(g25
(I0
tS'b'
tRp366
(I1
(L1L
tg21
I00
(lp367
g1
(g10
g3
NtRp368
(dp369
g13
g1
(g14
g3
NtRp370
((lp371
g17
(g18
(I0
tS'b'
tRp372
((I1
(L1L
tg21
I00
(lp373
S'Val'
p374
at(Nttba(lp375
g17
(g25
(I0
tS'b'
tRp376
(I1
(L1L
tg21
I00
(lp377
g1
(g10
g3
NtRp378
(dp379
g13
g1
(g14
g3
NtRp380
((lp381
g17
(g18
(I0
tS'b'
tRp382
((I1
(L1L
tg21
I00
(lp383
S'String'
p384
at(Nttba(lp385
g17
(g25
(I0
tS'b'
tRp386
(I1
(L1L
tg21
I00
(lp387
g1
(g10
g3
NtRp388
(dp389
g13
g1
(g14
g3
NtRp390
((lp391
g17
(g18
(I0
tS'b'
tRp392
((I1
(L1L
tg21
I00
(lp393
S'_"""rechnen"""_'
p394
at(Nttba(lp395
g17
(g25
(I0
tS'b'
tRp396
(I1
(L1L
tg21
I00
(lp397
g1
(g10
g3
NtRp398
(dp399
g13
g1
(g14
g3
NtRp400
((lp401
g17
(g18
(I0
tS'b'
tRp402
((I1
(L0L
tg21
I00
(lt(Nttba(lp403
g17
(g25
(I0
tS'b'
tRp404
(I1
(L0L
tg21
I00
(ltba(lp405
g17
(g18
(I0
tS'b'
tRp406
((I1
(L0L
tg21
I00
(lt(Nttba(dp407
g96
(dp408
g98
g401
sg99
(lp409
(dp410
g102
g17
(g25
(I0
tS'b'
tRp411
(I1
(L0L
tg104
I00
S''
tbsg105
g404
sasstbsg106
S'"""rechnen"""'
p412
sbatba(lp413
g17
(g18
(I0
tS'b'
tRp414
((I1
(L1L
tg21
I00
(lp415
g394
at(Nttba(dp416
g96
(dp417
g98
g391
sg99
(lp418
(dp419
g102
g139
(I0
I1
I1
tRp420
sg105
g396
sasstbsg106
g384
sbatba(lp421
g17
(g18
(I0
tS'b'
tRp422
((I1
(L1L
tg21
I00
(lp423
g384
at(Nttba(dp424
g96
(dp425
g98
g381
sg99
(lp426
(dp427
g102
g139
(I0
I1
I1
tRp428
sg105
g386
sasstbsg106
g374
sbatba(lp429
g17
(g18
(I0
tS'b'
tRp430
((I1
(L1L
tg21
I00
(lp431
g374
at(Nttba(dp432
g96
(dp433
g98
g371
sg99
(lp434
(dp435
g102
g139
(I0
I1
I1
tRp436
sg105
g376
sasstbsg106
g364
sbatba(lp437
g17
(g18
(I0
tS'b'
tRp438
((I1
(L1L
tg21
I00
(lp439
g364
at(Nttba(dp440
g96
(dp441
g98
g361
sg99
(lp442
(dp443
g102
g139
(I0
I1
I1
tRp444
sg105
g366
sasstbsg106
g354
sbatba(lp445
g17
(g18
(I0
tS'b'
tRp446
((I1
(L1L
tg21
I00
(lp447
g354
at(Nttba(dp448
g96
(dp449
g98
g351
sg99
(lp450
(dp451
g102
g139
(I0
I1
I1
tRp452
sg105
g356
sasstbsg106
g343
sbag1
(g10
g3
NtRp453
(dp454
g13
g1
(g14
g3
NtRp455
((lp456
g17
(g18
(I0
tS'b'
tRp457
((I1
(L0L
tg21
I00
(lt(Nttba(lp458
g17
(g25
(I0
tS'b'
tRp459
(I1
(L0L
tg21
I00
(ltba(lp460
g17
(g18
(I0
tS'b'
tRp461
((I1
(L0L
tg21
I00
(lt(Nttba(dp462
g96
(dp463
g98
g456
sg99
(lp464
(dp465
g102
g17
(g25
(I0
tS'b'
tRp466
(I1
(L0L
tg104
I00
S''
tbsg105
g459
sasstbsg106
S';'
sbatba(lp467
g17
(g18
(I0
tS'b'
tRp468
((I1
(L2L
tg21
I00
(lp469
g343
ag344
at(Nttba(dp470
g96
(dp471
g98
g340
sg99
(lp472
(dp473
g102
g139
(I0
I2
I1
tRp474
sg105
g346
sasstbsg106
g333
sbatba(lp475
g17
(g18
(I0
tS'b'
tRp476
((I1
(L1L
tg21
I00
(lp477
g333
at(Nttba(dp478
g96
(dp479
g98
g330
sg99
(lp480
(dp481
g102
g139
(I0
I1
I1
tRp482
sg105
g335
sasstbsg106
S'Stmt'
p483
sbag1
(g10
g3
NtRp484
(dp485
g13
g1
(g14
g3
NtRp486
((lp487
g17
(g18
(I0
tS'b'
tRp488
((I1
(L1L
tg21
I00
(lp489
S'Single_stmt'
p490
at(Nttba(lp491
g17
(g25
(I0
tS'b'
tRp492
(I1
(L1L
tg21
I00
(lp493
g1
(g10
g3
NtRp494
(dp495
g13
g1
(g14
g3
NtRp496
((lp497
g17
(g18
(I0
tS'b'
tRp498
((I1
(L2L
tg21
I00
(lp499
S'Func_stmt'
p500
aS'_;_'
p501
at(Nttba(lp502
g17
(g25
(I0
tS'b'
tRp503
(I1
(L2L
tg21
I00
(lp504
g1
(g10
g3
NtRp505
(dp506
g13
g1
(g14
g3
NtRp507
((lp508
g17
(g18
(I0
tS'b'
tRp509
((I1
(L2L
tg21
I00
(lp510
S'_return_'
p511
aS'Exprlist'
p512
at(Nttba(lp513
g17
(g25
(I0
tS'b'
tRp514
(I1
(L2L
tg21
I00
(lp515
g1
(g10
g3
NtRp516
(dp517
g13
g1
(g14
g3
NtRp518
((lp519
g17
(g18
(I0
tS'b'
tRp520
((I1
(L0L
tg21
I00
(lt(Nttba(lp521
g17
(g25
(I0
tS'b'
tRp522
(I1
(L0L
tg21
I00
(ltba(lp523
g17
(g18
(I0
tS'b'
tRp524
((I1
(L0L
tg21
I00
(lt(Nttba(dp525
g96
(dp526
g98
g519
sg99
(lp527
(dp528
g102
g17
(g25
(I0
tS'b'
tRp529
(I1
(L0L
tg104
I00
S''
tbsg105
g522
sasstbsg106
S'return'
p530
sbag1
(g10
g3
NtRp531
(dp532
g13
g1
(g14
g3
NtRp533
((lp534
g17
(g18
(I0
tS'b'
tRp535
((I1
(L1L
tg21
I00
(lp536
S'Expr'
p537
at(Nttba(lp538
g17
(g25
(I0
tS'b'
tRp539
(I1
(L1L
tg21
I00
(lp540
g1
(g10
g3
NtRp541
(dp542
g13
g1
(g14
g3
NtRp543
((lp544
g17
(g18
(I0
tS'b'
tRp545
((I1
(L1L
tg21
I00
(lp546
S'Dash_calc'
p547
at(Nttba(lp548
g17
(g25
(I0
tS'b'
tRp549
(I1
(L1L
tg21
I00
(lp550
g1
(g10
g3
NtRp551
(dp552
g13
g1
(g14
g3
NtRp553
((lp554
g17
(g18
(I0
tS'b'
tRp555
((I1
(L3L
tg21
I00
(lp556
S'Dash_calc'
p557
aS'_+_'
p558
aS'Val_label'
p559
at(Nttba(lp560
g17
(g25
(I0
tS'b'
tRp561
(I1
(L3L
tg21
I00
(lp562
g1
(g10
g3
NtRp563
(dp564
g13
g1
(g14
g3
NtRp565
((lp566
g17
(g18
(I0
tS'b'
tRp567
((I1
(L3L
tg21
I00
(lp568
S'Dash_calc'
p569
aS'_+_'
p570
aS'Val_label'
p571
at(Nttba(lp572
g17
(g25
(I0
tS'b'
tRp573
(I1
(L3L
tg21
I00
(lp574
g1
(g10
g3
NtRp575
(dp576
g13
g1
(g14
g3
NtRp577
((lp578
g17
(g18
(I0
tS'b'
tRp579
((I1
(L3L
tg21
I00
(lp580
S'Dash_calc'
p581
aS'_-_'
p582
aS'Val_label'
p583
at(Nttba(lp584
g17
(g25
(I0
tS'b'
tRp585
(I1
(L3L
tg21
I00
(lp586
g1
(g10
g3
NtRp587
(dp588
g13
g1
(g14
g3
NtRp589
((lp590
g17
(g18
(I0
tS'b'
tRp591
((I1
(L3L
tg21
I00
(lp592
S'Dash_calc'
p593
aS'_-_'
p594
aS'Dot_calc'
p595
at(Nttba(lp596
g17
(g25
(I0
tS'b'
tRp597
(I1
(L3L
tg21
I00
(lp598
g1
(g10
g3
NtRp599
(dp600
g13
g1
(g14
g3
NtRp601
((lp602
g17
(g18
(I0
tS'b'
tRp603
((I1
(L3L
tg21
I00
(lp604
S'Exponentiation'
p605
aS'_+_'
p606
aS'Dot_calc'
p607
at(Nttba(lp608
g17
(g25
(I0
tS'b'
tRp609
(I1
(L3L
tg21
I00
(lp610
g1
(g10
g3
NtRp611
(dp612
g13
g1
(g14
g3
NtRp613
((lp614
g17
(g18
(I0
tS'b'
tRp615
((I1
(L3L
tg21
I00
(lp616
S'Val_label1'
p617
aS'_**_'
p618
aS'Val_label2'
p619
at(Nttba(lp620
g17
(g25
(I0
tS'b'
tRp621
(I1
(L3L
tg21
I00
(lp622
g1
(g10
g3
NtRp623
(dp624
g13
g1
(g14
g3
NtRp625
((lp626
g17
(g18
(I0
tS'b'
tRp627
((I1
(L1L
tg21
I00
(lp628
S'Val'
p629
at(Nttba(lp630
g17
(g25
(I0
tS'b'
tRp631
(I1
(L1L
tg21
I00
(lp632
g1
(g10
g3
NtRp633
(dp634
g13
g1
(g14
g3
NtRp635
((lp636
g17
(g18
(I0
tS'b'
tRp637
((I1
(L1L
tg21
I00
(lp638
S'Var'
p639
at(Nttba(lp640
g17
(g25
(I0
tS'b'
tRp641
(I1
(L1L
tg21
I00
(lp642
g1
(g10
g3
NtRp643
(dp644
g13
g1
(g14
g3
NtRp645
((lp646
g17
(g18
(I0
tS'b'
tRp647
((I1
(L1L
tg21
I00
(lp648
S'_x_'
p649
at(Nttba(lp650
g17
(g25
(I0
tS'b'
tRp651
(I1
(L1L
tg21
I00
(lp652
g1
(g10
g3
NtRp653
(dp654
g13
g1
(g14
g3
NtRp655
((lp656
g17
(g18
(I0
tS'b'
tRp657
((I1
(L0L
tg21
I00
(lt(Nttba(lp658
g17
(g25
(I0
tS'b'
tRp659
(I1
(L0L
tg21
I00
(ltba(lp660
g17
(g18
(I0
tS'b'
tRp661
((I1
(L0L
tg21
I00
(lt(Nttba(dp662
g96
(dp663
g98
g656
sg99
(lp664
(dp665
g102
g17
(g25
(I0
tS'b'
tRp666
(I1
(L0L
tg104
I00
S''
tbsg105
g659
sasstbsg106
S'x'
sbatba(lp667
g17
(g18
(I0
tS'b'
tRp668
((I1
(L1L
tg21
I00
(lp669
g649
at(Nttba(dp670
g96
(dp671
g98
g646
sg99
(lp672
(dp673
g102
g139
(I0
I1
I1
tRp674
sg105
g651
sasstbsg106
g639
sbatba(lp675
g17
(g18
(I0
tS'b'
tRp676
((I1
(L1L
tg21
I00
(lp677
g639
at(Nttba(dp678
g96
(dp679
g98
g636
sg99
(lp680
(dp681
g102
g139
(I0
I1
I1
tRp682
sg105
g641
sasstbsg106
g629
sbatba(lp683
g17
(g18
(I0
tS'b'
tRp684
((I1
(L1L
tg21
I00
(lp685
g629
at(Nttba(dp686
g96
(dp687
g98
g626
sg99
(lp688
(dp689
g102
g139
(I0
I1
I1
tRp690
sg105
g631
sasstbsg106
S'Val_label'
p691
sbag1
(g10
g3
NtRp692
(dp693
g13
g1
(g14
g3
NtRp694
((lp695
g17
(g18
(I0
tS'b'
tRp696
((I1
(L0L
tg21
I00
(lt(Nttba(lp697
g17
(g25
(I0
tS'b'
tRp698
(I1
(L0L
tg21
I00
(ltba(lp699
g17
(g18
(I0
tS'b'
tRp700
((I1
(L0L
tg21
I00
(lt(Nttba(dp701
g96
(dp702
g98
g695
sg99
(lp703
(dp704
g102
g17
(g25
(I0
tS'b'
tRp705
(I1
(L0L
tg104
I00
S''
tbsg105
g698
sasstbsg106
S'**'
p706
sbag1
(g10
g3
NtRp707
(dp708
g13
g1
(g14
g3
NtRp709
((lp710
g17
(g18
(I0
tS'b'
tRp711
((I1
(L1L
tg21
I00
(lp712
S'Val'
p713
at(Nttba(lp714
g17
(g25
(I0
tS'b'
tRp715
(I1
(L1L
tg21
I00
(lp716
g1
(g10
g3
NtRp717
(dp718
g13
g1
(g14
g3
NtRp719
((lp720
g17
(g18
(I0
tS'b'
tRp721
((I1
(L1L
tg21
I00
(lp722
S'Number'
p723
at(Nttba(lp724
g17
(g25
(I0
tS'b'
tRp725
(I1
(L1L
tg21
I00
(lp726
g1
(g10
g3
NtRp727
(dp728
g13
g1
(g14
g3
NtRp729
((lp730
g17
(g18
(I0
tS'b'
tRp731
((I1
(L1L
tg21
I00
(lp732
S'Int'
p733
at(Nttba(lp734
g17
(g25
(I0
tS'b'
tRp735
(I1
(L1L
tg21
I00
(lp736
g1
(g10
g3
NtRp737
(dp738
g13
g1
(g14
g3
NtRp739
((lp740
g17
(g18
(I0
tS'b'
tRp741
((I1
(L1L
tg21
I00
(lp742
S'_2_'
p743
at(Nttba(lp744
g17
(g25
(I0
tS'b'
tRp745
(I1
(L1L
tg21
I00
(lp746
g1
(g10
g3
NtRp747
(dp748
g13
g1
(g14
g3
NtRp749
((lp750
g17
(g18
(I0
tS'b'
tRp751
((I1
(L0L
tg21
I00
(lt(Nttba(lp752
g17
(g25
(I0
tS'b'
tRp753
(I1
(L0L
tg21
I00
(ltba(lp754
g17
(g18
(I0
tS'b'
tRp755
((I1
(L0L
tg21
I00
(lt(Nttba(dp756
g96
(dp757
g98
g750
sg99
(lp758
(dp759
g102
g17
(g25
(I0
tS'b'
tRp760
(I1
(L0L
tg104
I00
S''
tbsg105
g753
sasstbsg106
S'2'
sbatba(lp761
g17
(g18
(I0
tS'b'
tRp762
((I1
(L1L
tg21
I00
(lp763
g743
at(Nttba(dp764
g96
(dp765
g98
g740
sg99
(lp766
(dp767
g102
g139
(I0
I1
I1
tRp768
sg105
g745
sasstbsg106
g733
sbatba(lp769
g17
(g18
(I0
tS'b'
tRp770
((I1
(L1L
tg21
I00
(lp771
g733
at(Nttba(dp772
g96
(dp773
g98
g730
sg99
(lp774
(dp775
g102
g139
(I0
I1
I1
tRp776
sg105
g735
sasstbsg106
g723
sbatba(lp777
g17
(g18
(I0
tS'b'
tRp778
((I1
(L1L
tg21
I00
(lp779
g723
at(Nttba(dp780
g96
(dp781
g98
g720
sg99
(lp782
(dp783
g102
g139
(I0
I1
I1
tRp784
sg105
g725
sasstbsg106
g713
sbatba(lp785
g17
(g18
(I0
tS'b'
tRp786
((I1
(L1L
tg21
I00
(lp787
g713
at(Nttba(dp788
g96
(dp789
g98
g710
sg99
(lp790
(dp791
g102
g139
(I0
I1
I1
tRp792
sg105
g715
sasstbsg106
S'Val_label'
p793
sbatba(lp794
g17
(g18
(I0
tS'b'
tRp795
((I1
(L3L
tg21
I00
(lp796
g617
ag618
ag619
at(Nttba(dp797
g96
(dp798
g98
g614
sg99
(lp799
(dp800
g102
g139
(I0
I3
I1
tRp801
sg105
g621
sasstbsg106
g605
sbag1
(g10
g3
NtRp802
(dp803
g13
g1
(g14
g3
NtRp804
((lp805
g17
(g18
(I0
tS'b'
tRp806
((I1
(L0L
tg21
I00
(lt(Nttba(lp807
g17
(g25
(I0
tS'b'
tRp808
(I1
(L0L
tg21
I00
(ltba(lp809
g17
(g18
(I0
tS'b'
tRp810
((I1
(L0L
tg21
I00
(lt(Nttba(dp811
g96
(dp812
g98
g805
sg99
(lp813
(dp814
g102
g17
(g25
(I0
tS'b'
tRp815
(I1
(L0L
tg104
I00
S''
tbsg105
g808
sasstbsg106
S'+'
sbag1
(g10
g3
NtRp816
(dp817
g13
g1
(g14
g3
NtRp818
((lp819
g17
(g18
(I0
tS'b'
tRp820
((I1
(L3L
tg21
I00
(lp821
S'Val_label1'
p822
aS'_*_'
p823
aS'Val_label2'
p824
at(Nttba(lp825
g17
(g25
(I0
tS'b'
tRp826
(I1
(L3L
tg21
I00
(lp827
g1
(g10
g3
NtRp828
(dp829
g13
g1
(g14
g3
NtRp830
((lp831
g17
(g18
(I0
tS'b'
tRp832
((I1
(L1L
tg21
I00
(lp833
S'Val'
p834
at(Nttba(lp835
g17
(g25
(I0
tS'b'
tRp836
(I1
(L1L
tg21
I00
(lp837
g1
(g10
g3
NtRp838
(dp839
g13
g1
(g14
g3
NtRp840
((lp841
g17
(g18
(I0
tS'b'
tRp842
((I1
(L1L
tg21
I00
(lp843
S'Var'
p844
at(Nttba(lp845
g17
(g25
(I0
tS'b'
tRp846
(I1
(L1L
tg21
I00
(lp847
g1
(g10
g3
NtRp848
(dp849
g13
g1
(g14
g3
NtRp850
((lp851
g17
(g18
(I0
tS'b'
tRp852
((I1
(L1L
tg21
I00
(lp853
S'_x_'
p854
at(Nttba(lp855
g17
(g25
(I0
tS'b'
tRp856
(I1
(L1L
tg21
I00
(lp857
g1
(g10
g3
NtRp858
(dp859
g13
g1
(g14
g3
NtRp860
((lp861
g17
(g18
(I0
tS'b'
tRp862
((I1
(L0L
tg21
I00
(lt(Nttba(lp863
g17
(g25
(I0
tS'b'
tRp864
(I1
(L0L
tg21
I00
(ltba(lp865
g17
(g18
(I0
tS'b'
tRp866
((I1
(L0L
tg21
I00
(lt(Nttba(dp867
g96
(dp868
g98
g861
sg99
(lp869
(dp870
g102
g17
(g25
(I0
tS'b'
tRp871
(I1
(L0L
tg104
I00
S''
tbsg105
g864
sasstbsg106
S'x'
sbatba(lp872
g17
(g18
(I0
tS'b'
tRp873
((I1
(L1L
tg21
I00
(lp874
g854
at(Nttba(dp875
g96
(dp876
g98
g851
sg99
(lp877
(dp878
g102
g139
(I0
I1
I1
tRp879
sg105
g856
sasstbsg106
g844
sbatba(lp880
g17
(g18
(I0
tS'b'
tRp881
((I1
(L1L
tg21
I00
(lp882
g844
at(Nttba(dp883
g96
(dp884
g98
g841
sg99
(lp885
(dp886
g102
g139
(I0
I1
I1
tRp887
sg105
g846
sasstbsg106
g834
sbatba(lp888
g17
(g18
(I0
tS'b'
tRp889
((I1
(L1L
tg21
I00
(lp890
g834
at(Nttba(dp891
g96
(dp892
g98
g831
sg99
(lp893
(dp894
g102
g139
(I0
I1
I1
tRp895
sg105
g836
sasstbsg106
S'Val_label'
p896
sbag1
(g10
g3
NtRp897
(dp898
g13
g1
(g14
g3
NtRp899
((lp900
g17
(g18
(I0
tS'b'
tRp901
((I1
(L0L
tg21
I00
(lt(Nttba(lp902
g17
(g25
(I0
tS'b'
tRp903
(I1
(L0L
tg21
I00
(ltba(lp904
g17
(g18
(I0
tS'b'
tRp905
((I1
(L0L
tg21
I00
(lt(Nttba(dp906
g96
(dp907
g98
g900
sg99
(lp908
(dp909
g102
g17
(g25
(I0
tS'b'
tRp910
(I1
(L0L
tg104
I00
S''
tbsg105
g903
sasstbsg106
S'*'
sbag1
(g10
g3
NtRp911
(dp912
g13
g1
(g14
g3
NtRp913
((lp914
g17
(g18
(I0
tS'b'
tRp915
((I1
(L1L
tg21
I00
(lp916
S'Val'
p917
at(Nttba(lp918
g17
(g25
(I0
tS'b'
tRp919
(I1
(L1L
tg21
I00
(lp920
g1
(g10
g3
NtRp921
(dp922
g13
g1
(g14
g3
NtRp923
((lp924
g17
(g18
(I0
tS'b'
tRp925
((I1
(L1L
tg21
I00
(lp926
S'Number'
p927
at(Nttba(lp928
g17
(g25
(I0
tS'b'
tRp929
(I1
(L1L
tg21
I00
(lp930
g1
(g10
g3
NtRp931
(dp932
g13
g1
(g14
g3
NtRp933
((lp934
g17
(g18
(I0
tS'b'
tRp935
((I1
(L1L
tg21
I00
(lp936
S'Int'
p937
at(Nttba(lp938
g17
(g25
(I0
tS'b'
tRp939
(I1
(L1L
tg21
I00
(lp940
g1
(g10
g3
NtRp941
(dp942
g13
g1
(g14
g3
NtRp943
((lp944
g17
(g18
(I0
tS'b'
tRp945
((I1
(L1L
tg21
I00
(lp946
S'_4_'
p947
at(Nttba(lp948
g17
(g25
(I0
tS'b'
tRp949
(I1
(L1L
tg21
I00
(lp950
g1
(g10
g3
NtRp951
(dp952
g13
g1
(g14
g3
NtRp953
((lp954
g17
(g18
(I0
tS'b'
tRp955
((I1
(L0L
tg21
I00
(lt(Nttba(lp956
g17
(g25
(I0
tS'b'
tRp957
(I1
(L0L
tg21
I00
(ltba(lp958
g17
(g18
(I0
tS'b'
tRp959
((I1
(L0L
tg21
I00
(lt(Nttba(dp960
g96
(dp961
g98
g954
sg99
(lp962
(dp963
g102
g17
(g25
(I0
tS'b'
tRp964
(I1
(L0L
tg104
I00
S''
tbsg105
g957
sasstbsg106
S'4'
sbatba(lp965
g17
(g18
(I0
tS'b'
tRp966
((I1
(L1L
tg21
I00
(lp967
g947
at(Nttba(dp968
g96
(dp969
g98
g944
sg99
(lp970
(dp971
g102
g139
(I0
I1
I1
tRp972
sg105
g949
sasstbsg106
g937
sbatba(lp973
g17
(g18
(I0
tS'b'
tRp974
((I1
(L1L
tg21
I00
(lp975
g937
at(Nttba(dp976
g96
(dp977
g98
g934
sg99
(lp978
(dp979
g102
g139
(I0
I1
I1
tRp980
sg105
g939
sasstbsg106
g927
sbatba(lp981
g17
(g18
(I0
tS'b'
tRp982
((I1
(L1L
tg21
I00
(lp983
g927
at(Nttba(dp984
g96
(dp985
g98
g924
sg99
(lp986
(dp987
g102
g139
(I0
I1
I1
tRp988
sg105
g929
sasstbsg106
g917
sbatba(lp989
g17
(g18
(I0
tS'b'
tRp990
((I1
(L1L
tg21
I00
(lp991
g917
at(Nttba(dp992
g96
(dp993
g98
g914
sg99
(lp994
(dp995
g102
g139
(I0
I1
I1
tRp996
sg105
g919
sasstbsg106
S'Val_label'
p997
sbatba(lp998
g17
(g18
(I0
tS'b'
tRp999
((I1
(L3L
tg21
I00
(lp1000
g822
ag823
ag824
at(Nttba(dp1001
g96
(dp1002
g98
g819
sg99
(lp1003
(dp1004
g102
g139
(I0
I3
I1
tRp1005
sg105
g826
sasstbsg106
g607
sbatba(lp1006
g17
(g18
(I0
tS'b'
tRp1007
((I1
(L3L
tg21
I00
(lp1008
g605
ag606
ag607
at(Nttba(dp1009
g96
(dp1010
g98
g602
sg99
(lp1011
(dp1012
g102
g139
(I0
I3
I1
tRp1013
sg105
g609
sasstbsg106
g593
sbag1
(g10
g3
NtRp1014
(dp1015
g13
g1
(g14
g3
NtRp1016
((lp1017
g17
(g18
(I0
tS'b'
tRp1018
((I1
(L0L
tg21
I00
(lt(Nttba(lp1019
g17
(g25
(I0
tS'b'
tRp1020
(I1
(L0L
tg21
I00
(ltba(lp1021
g17
(g18
(I0
tS'b'
tRp1022
((I1
(L0L
tg21
I00
(lt(Nttba(dp1023
g96
(dp1024
g98
g1017
sg99
(lp1025
(dp1026
g102
g17
(g25
(I0
tS'b'
tRp1027
(I1
(L0L
tg104
I00
S''
tbsg105
g1020
sasstbsg106
S'-'
sbag1
(g10
g3
NtRp1028
(dp1029
g13
g1
(g14
g3
NtRp1030
((lp1031
g17
(g18
(I0
tS'b'
tRp1032
((I1
(L3L
tg21
I00
(lp1033
S'Brackets'
p1034
aS'_/_'
p1035
aS'Val_label'
p1036
at(Nttba(lp1037
g17
(g25
(I0
tS'b'
tRp1038
(I1
(L3L
tg21
I00
(lp1039
g1
(g10
g3
NtRp1040
(dp1041
g13
g1
(g14
g3
NtRp1042
((lp1043
g17
(g18
(I0
tS'b'
tRp1044
((I1
(L3L
tg21
I00
(lp1045
S'_(_'
p1046
aS'Dash_calc'
p1047
aS'_)_'
p1048
at(Nttba(lp1049
g17
(g25
(I0
tS'b'
tRp1050
(I1
(L3L
tg21
I00
(lp1051
g1
(g10
g3
NtRp1052
(dp1053
g13
g1
(g14
g3
NtRp1054
((lp1055
g17
(g18
(I0
tS'b'
tRp1056
((I1
(L0L
tg21
I00
(lt(Nttba(lp1057
g17
(g25
(I0
tS'b'
tRp1058
(I1
(L0L
tg21
I00
(ltba(lp1059
g17
(g18
(I0
tS'b'
tRp1060
((I1
(L0L
tg21
I00
(lt(Nttba(dp1061
g96
(dp1062
g98
g1055
sg99
(lp1063
(dp1064
g102
g17
(g25
(I0
tS'b'
tRp1065
(I1
(L0L
tg104
I00
S''
tbsg105
g1058
sasstbsg106
S'('
sbag1
(g10
g3
NtRp1066
(dp1067
g13
g1
(g14
g3
NtRp1068
((lp1069
g17
(g18
(I0
tS'b'
tRp1070
((I1
(L3L
tg21
I00
(lp1071
S'Val_label1'
p1072
aS'_-_'
p1073
aS'Val_label2'
p1074
at(Nttba(lp1075
g17
(g25
(I0
tS'b'
tRp1076
(I1
(L3L
tg21
I00
(lp1077
g1
(g10
g3
NtRp1078
(dp1079
g13
g1
(g14
g3
NtRp1080
((lp1081
g17
(g18
(I0
tS'b'
tRp1082
((I1
(L1L
tg21
I00
(lp1083
S'Val'
p1084
at(Nttba(lp1085
g17
(g25
(I0
tS'b'
tRp1086
(I1
(L1L
tg21
I00
(lp1087
g1
(g10
g3
NtRp1088
(dp1089
g13
g1
(g14
g3
NtRp1090
((lp1091
g17
(g18
(I0
tS'b'
tRp1092
((I1
(L1L
tg21
I00
(lp1093
S'Var'
p1094
at(Nttba(lp1095
g17
(g25
(I0
tS'b'
tRp1096
(I1
(L1L
tg21
I00
(lp1097
g1
(g10
g3
NtRp1098
(dp1099
g13
g1
(g14
g3
NtRp1100
((lp1101
g17
(g18
(I0
tS'b'
tRp1102
((I1
(L1L
tg21
I00
(lp1103
S'_x_'
p1104
at(Nttba(lp1105
g17
(g25
(I0
tS'b'
tRp1106
(I1
(L1L
tg21
I00
(lp1107
g1
(g10
g3
NtRp1108
(dp1109
g13
g1
(g14
g3
NtRp1110
((lp1111
g17
(g18
(I0
tS'b'
tRp1112
((I1
(L0L
tg21
I00
(lt(Nttba(lp1113
g17
(g25
(I0
tS'b'
tRp1114
(I1
(L0L
tg21
I00
(ltba(lp1115
g17
(g18
(I0
tS'b'
tRp1116
((I1
(L0L
tg21
I00
(lt(Nttba(dp1117
g96
(dp1118
g98
g1111
sg99
(lp1119
(dp1120
g102
g17
(g25
(I0
tS'b'
tRp1121
(I1
(L0L
tg104
I00
S''
tbsg105
g1114
sasstbsg106
S'x'
sbatba(lp1122
g17
(g18
(I0
tS'b'
tRp1123
((I1
(L1L
tg21
I00
(lp1124
g1104
at(Nttba(dp1125
g96
(dp1126
g98
g1101
sg99
(lp1127
(dp1128
g102
g139
(I0
I1
I1
tRp1129
sg105
g1106
sasstbsg106
g1094
sbatba(lp1130
g17
(g18
(I0
tS'b'
tRp1131
((I1
(L1L
tg21
I00
(lp1132
g1094
at(Nttba(dp1133
g96
(dp1134
g98
g1091
sg99
(lp1135
(dp1136
g102
g139
(I0
I1
I1
tRp1137
sg105
g1096
sasstbsg106
g1084
sbatba(lp1138
g17
(g18
(I0
tS'b'
tRp1139
((I1
(L1L
tg21
I00
(lp1140
g1084
at(Nttba(dp1141
g96
(dp1142
g98
g1081
sg99
(lp1143
(dp1144
g102
g139
(I0
I1
I1
tRp1145
sg105
g1086
sasstbsg106
S'Val_label'
p1146
sbag1
(g10
g3
NtRp1147
(dp1148
g13
g1
(g14
g3
NtRp1149
((lp1150
g17
(g18
(I0
tS'b'
tRp1151
((I1
(L0L
tg21
I00
(lt(Nttba(lp1152
g17
(g25
(I0
tS'b'
tRp1153
(I1
(L0L
tg21
I00
(ltba(lp1154
g17
(g18
(I0
tS'b'
tRp1155
((I1
(L0L
tg21
I00
(lt(Nttba(dp1156
g96
(dp1157
g98
g1150
sg99
(lp1158
(dp1159
g102
g17
(g25
(I0
tS'b'
tRp1160
(I1
(L0L
tg104
I00
S''
tbsg105
g1153
sasstbsg106
S'-'
sbag1
(g10
g3
NtRp1161
(dp1162
g13
g1
(g14
g3
NtRp1163
((lp1164
g17
(g18
(I0
tS'b'
tRp1165
((I1
(L1L
tg21
I00
(lp1166
S'Val'
p1167
at(Nttba(lp1168
g17
(g25
(I0
tS'b'
tRp1169
(I1
(L1L
tg21
I00
(lp1170
g1
(g10
g3
NtRp1171
(dp1172
g13
g1
(g14
g3
NtRp1173
((lp1174
g17
(g18
(I0
tS'b'
tRp1175
((I1
(L1L
tg21
I00
(lp1176
S'Number'
p1177
at(Nttba(lp1178
g17
(g25
(I0
tS'b'
tRp1179
(I1
(L1L
tg21
I00
(lp1180
g1
(g10
g3
NtRp1181
(dp1182
g13
g1
(g14
g3
NtRp1183
((lp1184
g17
(g18
(I0
tS'b'
tRp1185
((I1
(L1L
tg21
I00
(lp1186
S'Int'
p1187
at(Nttba(lp1188
g17
(g25
(I0
tS'b'
tRp1189
(I1
(L1L
tg21
I00
(lp1190
g1
(g10
g3
NtRp1191
(dp1192
g13
g1
(g14
g3
NtRp1193
((lp1194
g17
(g18
(I0
tS'b'
tRp1195
((I1
(L1L
tg21
I00
(lp1196
S'_3_'
p1197
at(Nttba(lp1198
g17
(g25
(I0
tS'b'
tRp1199
(I1
(L1L
tg21
I00
(lp1200
g1
(g10
g3
NtRp1201
(dp1202
g13
g1
(g14
g3
NtRp1203
((lp1204
g17
(g18
(I0
tS'b'
tRp1205
((I1
(L0L
tg21
I00
(lt(Nttba(lp1206
g17
(g25
(I0
tS'b'
tRp1207
(I1
(L0L
tg21
I00
(ltba(lp1208
g17
(g18
(I0
tS'b'
tRp1209
((I1
(L0L
tg21
I00
(lt(Nttba(dp1210
g96
(dp1211
g98
g1204
sg99
(lp1212
(dp1213
g102
g17
(g25
(I0
tS'b'
tRp1214
(I1
(L0L
tg104
I00
S''
tbsg105
g1207
sasstbsg106
S'3'
sbatba(lp1215
g17
(g18
(I0
tS'b'
tRp1216
((I1
(L1L
tg21
I00
(lp1217
g1197
at(Nttba(dp1218
g96
(dp1219
g98
g1194
sg99
(lp1220
(dp1221
g102
g139
(I0
I1
I1
tRp1222
sg105
g1199
sasstbsg106
g1187
sbatba(lp1223
g17
(g18
(I0
tS'b'
tRp1224
((I1
(L1L
tg21
I00
(lp1225
g1187
at(Nttba(dp1226
g96
(dp1227
g98
g1184
sg99
(lp1228
(dp1229
g102
g139
(I0
I1
I1
tRp1230
sg105
g1189
sasstbsg106
g1177
sbatba(lp1231
g17
(g18
(I0
tS'b'
tRp1232
((I1
(L1L
tg21
I00
(lp1233
g1177
at(Nttba(dp1234
g96
(dp1235
g98
g1174
sg99
(lp1236
(dp1237
g102
g139
(I0
I1
I1
tRp1238
sg105
g1179
sasstbsg106
g1167
sbatba(lp1239
g17
(g18
(I0
tS'b'
tRp1240
((I1
(L1L
tg21
I00
(lp1241
g1167
at(Nttba(dp1242
g96
(dp1243
g98
g1164
sg99
(lp1244
(dp1245
g102
g139
(I0
I1
I1
tRp1246
sg105
g1169
sasstbsg106
S'Val_label'
p1247
sbatba(lp1248
g17
(g18
(I0
tS'b'
tRp1249
((I1
(L3L
tg21
I00
(lp1250
g1072
ag1073
ag1074
at(Nttba(dp1251
g96
(dp1252
g98
g1069
sg99
(lp1253
(dp1254
g102
g139
(I0
I3
I1
tRp1255
sg105
g1076
sasstbsg106
g1047
sbag1
(g10
g3
NtRp1256
(dp1257
g13
g1
(g14
g3
NtRp1258
((lp1259
g17
(g18
(I0
tS'b'
tRp1260
((I1
(L0L
tg21
I00
(lt(Nttba(lp1261
g17
(g25
(I0
tS'b'
tRp1262
(I1
(L0L
tg21
I00
(ltba(lp1263
g17
(g18
(I0
tS'b'
tRp1264
((I1
(L0L
tg21
I00
(lt(Nttba(dp1265
g96
(dp1266
g98
g1259
sg99
(lp1267
(dp1268
g102
g17
(g25
(I0
tS'b'
tRp1269
(I1
(L0L
tg104
I00
S''
tbsg105
g1262
sasstbsg106
S')'
sbatba(lp1270
g17
(g18
(I0
tS'b'
tRp1271
((I1
(L3L
tg21
I00
(lp1272
g1046
ag1047
ag1048
at(Nttba(dp1273
g96
(dp1274
g98
g1043
sg99
(lp1275
(dp1276
g102
g139
(I0
I3
I1
tRp1277
sg105
g1050
sasstbsg106
g1034
sbag1
(g10
g3
NtRp1278
(dp1279
g13
g1
(g14
g3
NtRp1280
((lp1281
g17
(g18
(I0
tS'b'
tRp1282
((I1
(L0L
tg21
I00
(lt(Nttba(lp1283
g17
(g25
(I0
tS'b'
tRp1284
(I1
(L0L
tg21
I00
(ltba(lp1285
g17
(g18
(I0
tS'b'
tRp1286
((I1
(L0L
tg21
I00
(lt(Nttba(dp1287
g96
(dp1288
g98
g1281
sg99
(lp1289
(dp1290
g102
g17
(g25
(I0
tS'b'
tRp1291
(I1
(L0L
tg104
I00
S''
tbsg105
g1284
sasstbsg106
S'/'
sbag1
(g10
g3
NtRp1292
(dp1293
g13
g1
(g14
g3
NtRp1294
((lp1295
g17
(g18
(I0
tS'b'
tRp1296
((I1
(L1L
tg21
I00
(lp1297
S'Val'
p1298
at(Nttba(lp1299
g17
(g25
(I0
tS'b'
tRp1300
(I1
(L1L
tg21
I00
(lp1301
g1
(g10
g3
NtRp1302
(dp1303
g13
g1
(g14
g3
NtRp1304
((lp1305
g17
(g18
(I0
tS'b'
tRp1306
((I1
(L1L
tg21
I00
(lp1307
S'Var'
p1308
at(Nttba(lp1309
g17
(g25
(I0
tS'b'
tRp1310
(I1
(L1L
tg21
I00
(lp1311
g1
(g10
g3
NtRp1312
(dp1313
g13
g1
(g14
g3
NtRp1314
((lp1315
g17
(g18
(I0
tS'b'
tRp1316
((I1
(L1L
tg21
I00
(lp1317
S'_x_'
p1318
at(Nttba(lp1319
g17
(g25
(I0
tS'b'
tRp1320
(I1
(L1L
tg21
I00
(lp1321
g1
(g10
g3
NtRp1322
(dp1323
g13
g1
(g14
g3
NtRp1324
((lp1325
g17
(g18
(I0
tS'b'
tRp1326
((I1
(L0L
tg21
I00
(lt(Nttba(lp1327
g17
(g25
(I0
tS'b'
tRp1328
(I1
(L0L
tg21
I00
(ltba(lp1329
g17
(g18
(I0
tS'b'
tRp1330
((I1
(L0L
tg21
I00
(lt(Nttba(dp1331
g96
(dp1332
g98
g1325
sg99
(lp1333
(dp1334
g102
g17
(g25
(I0
tS'b'
tRp1335
(I1
(L0L
tg104
I00
S''
tbsg105
g1328
sasstbsg106
S'x'
sbatba(lp1336
g17
(g18
(I0
tS'b'
tRp1337
((I1
(L1L
tg21
I00
(lp1338
g1318
at(Nttba(dp1339
g96
(dp1340
g98
g1315
sg99
(lp1341
(dp1342
g102
g139
(I0
I1
I1
tRp1343
sg105
g1320
sasstbsg106
g1308
sbatba(lp1344
g17
(g18
(I0
tS'b'
tRp1345
((I1
(L1L
tg21
I00
(lp1346
g1308
at(Nttba(dp1347
g96
(dp1348
g98
g1305
sg99
(lp1349
(dp1350
g102
g139
(I0
I1
I1
tRp1351
sg105
g1310
sasstbsg106
g1298
sbatba(lp1352
g17
(g18
(I0
tS'b'
tRp1353
((I1
(L1L
tg21
I00
(lp1354
g1298
at(Nttba(dp1355
g96
(dp1356
g98
g1295
sg99
(lp1357
(dp1358
g102
g139
(I0
I1
I1
tRp1359
sg105
g1300
sasstbsg106
g1036
sbatba(lp1360
g17
(g18
(I0
tS'b'
tRp1361
((I1
(L3L
tg21
I00
(lp1362
g1034
ag1035
ag1036
at(Nttba(dp1363
g96
(dp1364
g98
g1031
sg99
(lp1365
(dp1366
g102
g139
(I0
I3
I1
tRp1367
sg105
g1038
sasstbsg106
g595
sbatba(lp1368
g17
(g18
(I0
tS'b'
tRp1369
((I1
(L3L
tg21
I00
(lp1370
g593
ag594
ag595
at(Nttba(dp1371
g96
(dp1372
g98
g590
sg99
(lp1373
(dp1374
g102
g139
(I0
I3
I1
tRp1375
sg105
g597
sasstbsg106
g581
sbag1
(g10
g3
NtRp1376
(dp1377
g13
g1
(g14
g3
NtRp1378
((lp1379
g17
(g18
(I0
tS'b'
tRp1380
((I1
(L0L
tg21
I00
(lt(Nttba(lp1381
g17
(g25
(I0
tS'b'
tRp1382
(I1
(L0L
tg21
I00
(ltba(lp1383
g17
(g18
(I0
tS'b'
tRp1384
((I1
(L0L
tg21
I00
(lt(Nttba(dp1385
g96
(dp1386
g98
g1379
sg99
(lp1387
(dp1388
g102
g17
(g25
(I0
tS'b'
tRp1389
(I1
(L0L
tg104
I00
S''
tbsg105
g1382
sasstbsg106
S'-'
sbag1
(g10
g3
NtRp1390
(dp1391
g13
g1
(g14
g3
NtRp1392
((lp1393
g17
(g18
(I0
tS'b'
tRp1394
((I1
(L1L
tg21
I00
(lp1395
S'Val'
p1396
at(Nttba(lp1397
g17
(g25
(I0
tS'b'
tRp1398
(I1
(L1L
tg21
I00
(lp1399
g1
(g10
g3
NtRp1400
(dp1401
g13
g1
(g14
g3
NtRp1402
((lp1403
g17
(g18
(I0
tS'b'
tRp1404
((I1
(L1L
tg21
I00
(lp1405
S'Number'
p1406
at(Nttba(lp1407
g17
(g25
(I0
tS'b'
tRp1408
(I1
(L1L
tg21
I00
(lp1409
g1
(g10
g3
NtRp1410
(dp1411
g13
g1
(g14
g3
NtRp1412
((lp1413
g17
(g18
(I0
tS'b'
tRp1414
((I1
(L1L
tg21
I00
(lp1415
S'Float'
p1416
at(Nttba(lp1417
g17
(g25
(I0
tS'b'
tRp1418
(I1
(L1L
tg21
I00
(lp1419
g1
(g10
g3
NtRp1420
(dp1421
g13
g1
(g14
g3
NtRp1422
((lp1423
g17
(g18
(I0
tS'b'
tRp1424
((I1
(L1L
tg21
I00
(lp1425
S'_1.3e4_'
p1426
at(Nttba(lp1427
g17
(g25
(I0
tS'b'
tRp1428
(I1
(L1L
tg21
I00
(lp1429
g1
(g10
g3
NtRp1430
(dp1431
g13
g1
(g14
g3
NtRp1432
((lp1433
g17
(g18
(I0
tS'b'
tRp1434
((I1
(L0L
tg21
I00
(lt(Nttba(lp1435
g17
(g25
(I0
tS'b'
tRp1436
(I1
(L0L
tg21
I00
(ltba(lp1437
g17
(g18
(I0
tS'b'
tRp1438
((I1
(L0L
tg21
I00
(lt(Nttba(dp1439
g96
(dp1440
g98
g1433
sg99
(lp1441
(dp1442
g102
g17
(g25
(I0
tS'b'
tRp1443
(I1
(L0L
tg104
I00
S''
tbsg105
g1436
sasstbsg106
S'1.3e4'
p1444
sbatba(lp1445
g17
(g18
(I0
tS'b'
tRp1446
((I1
(L1L
tg21
I00
(lp1447
g1426
at(Nttba(dp1448
g96
(dp1449
g98
g1423
sg99
(lp1450
(dp1451
g102
g139
(I0
I1
I1
tRp1452
sg105
g1428
sasstbsg106
g1416
sbatba(lp1453
g17
(g18
(I0
tS'b'
tRp1454
((I1
(L1L
tg21
I00
(lp1455
g1416
at(Nttba(dp1456
g96
(dp1457
g98
g1413
sg99
(lp1458
(dp1459
g102
g139
(I0
I1
I1
tRp1460
sg105
g1418
sasstbsg106
g1406
sbatba(lp1461
g17
(g18
(I0
tS'b'
tRp1462
((I1
(L1L
tg21
I00
(lp1463
g1406
at(Nttba(dp1464
g96
(dp1465
g98
g1403
sg99
(lp1466
(dp1467
g102
g139
(I0
I1
I1
tRp1468
sg105
g1408
sasstbsg106
g1396
sbatba(lp1469
g17
(g18
(I0
tS'b'
tRp1470
((I1
(L1L
tg21
I00
(lp1471
g1396
at(Nttba(dp1472
g96
(dp1473
g98
g1393
sg99
(lp1474
(dp1475
g102
g139
(I0
I1
I1
tRp1476
sg105
g1398
sasstbsg106
g583
sbatba(lp1477
g17
(g18
(I0
tS'b'
tRp1478
((I1
(L3L
tg21
I00
(lp1479
g581
ag582
ag583
at(Nttba(dp1480
g96
(dp1481
g98
g578
sg99
(lp1482
(dp1483
g102
g139
(I0
I3
I1
tRp1484
sg105
g585
sasstbsg106
g569
sbag1
(g10
g3
NtRp1485
(dp1486
g13
g1
(g14
g3
NtRp1487
((lp1488
g17
(g18
(I0
tS'b'
tRp1489
((I1
(L0L
tg21
I00
(lt(Nttba(lp1490
g17
(g25
(I0
tS'b'
tRp1491
(I1
(L0L
tg21
I00
(ltba(lp1492
g17
(g18
(I0
tS'b'
tRp1493
((I1
(L0L
tg21
I00
(lt(Nttba(dp1494
g96
(dp1495
g98
g1488
sg99
(lp1496
(dp1497
g102
g17
(g25
(I0
tS'b'
tRp1498
(I1
(L0L
tg104
I00
S''
tbsg105
g1491
sasstbsg106
S'+'
sbag1
(g10
g3
NtRp1499
(dp1500
g13
g1
(g14
g3
NtRp1501
((lp1502
g17
(g18
(I0
tS'b'
tRp1503
((I1
(L1L
tg21
I00
(lp1504
S'Val'
p1505
at(Nttba(lp1506
g17
(g25
(I0
tS'b'
tRp1507
(I1
(L1L
tg21
I00
(lp1508
g1
(g10
g3
NtRp1509
(dp1510
g13
g1
(g14
g3
NtRp1511
((lp1512
g17
(g18
(I0
tS'b'
tRp1513
((I1
(L1L
tg21
I00
(lp1514
S'Number'
p1515
at(Nttba(lp1516
g17
(g25
(I0
tS'b'
tRp1517
(I1
(L1L
tg21
I00
(lp1518
g1
(g10
g3
NtRp1519
(dp1520
g13
g1
(g14
g3
NtRp1521
((lp1522
g17
(g18
(I0
tS'b'
tRp1523
((I1
(L1L
tg21
I00
(lp1524
S'Int'
p1525
at(Nttba(lp1526
g17
(g25
(I0
tS'b'
tRp1527
(I1
(L1L
tg21
I00
(lp1528
g1
(g10
g3
NtRp1529
(dp1530
g13
g1
(g14
g3
NtRp1531
((lp1532
g17
(g18
(I0
tS'b'
tRp1533
((I1
(L1L
tg21
I00
(lp1534
S'_2_'
p1535
at(Nttba(lp1536
g17
(g25
(I0
tS'b'
tRp1537
(I1
(L1L
tg21
I00
(lp1538
g1
(g10
g3
NtRp1539
(dp1540
g13
g1
(g14
g3
NtRp1541
((lp1542
g17
(g18
(I0
tS'b'
tRp1543
((I1
(L0L
tg21
I00
(lt(Nttba(lp1544
g17
(g25
(I0
tS'b'
tRp1545
(I1
(L0L
tg21
I00
(ltba(lp1546
g17
(g18
(I0
tS'b'
tRp1547
((I1
(L0L
tg21
I00
(lt(Nttba(dp1548
g96
(dp1549
g98
g1542
sg99
(lp1550
(dp1551
g102
g17
(g25
(I0
tS'b'
tRp1552
(I1
(L0L
tg104
I00
S''
tbsg105
g1545
sasstbsg106
S'2'
sbatba(lp1553
g17
(g18
(I0
tS'b'
tRp1554
((I1
(L1L
tg21
I00
(lp1555
g1535
at(Nttba(dp1556
g96
(dp1557
g98
g1532
sg99
(lp1558
(dp1559
g102
g139
(I0
I1
I1
tRp1560
sg105
g1537
sasstbsg106
g1525
sbatba(lp1561
g17
(g18
(I0
tS'b'
tRp1562
((I1
(L1L
tg21
I00
(lp1563
g1525
at(Nttba(dp1564
g96
(dp1565
g98
g1522
sg99
(lp1566
(dp1567
g102
g139
(I0
I1
I1
tRp1568
sg105
g1527
sasstbsg106
g1515
sbatba(lp1569
g17
(g18
(I0
tS'b'
tRp1570
((I1
(L1L
tg21
I00
(lp1571
g1515
at(Nttba(dp1572
g96
(dp1573
g98
g1512
sg99
(lp1574
(dp1575
g102
g139
(I0
I1
I1
tRp1576
sg105
g1517
sasstbsg106
g1505
sbatba(lp1577
g17
(g18
(I0
tS'b'
tRp1578
((I1
(L1L
tg21
I00
(lp1579
g1505
at(Nttba(dp1580
g96
(dp1581
g98
g1502
sg99
(lp1582
(dp1583
g102
g139
(I0
I1
I1
tRp1584
sg105
g1507
sasstbsg106
g571
sbatba(lp1585
g17
(g18
(I0
tS'b'
tRp1586
((I1
(L3L
tg21
I00
(lp1587
g569
ag570
ag571
at(Nttba(dp1588
g96
(dp1589
g98
g566
sg99
(lp1590
(dp1591
g102
g139
(I0
I3
I1
tRp1592
sg105
g573
sasstbsg106
g557
sbag1
(g10
g3
NtRp1593
(dp1594
g13
g1
(g14
g3
NtRp1595
((lp1596
g17
(g18
(I0
tS'b'
tRp1597
((I1
(L0L
tg21
I00
(lt(Nttba(lp1598
g17
(g25
(I0
tS'b'
tRp1599
(I1
(L0L
tg21
I00
(ltba(lp1600
g17
(g18
(I0
tS'b'
tRp1601
((I1
(L0L
tg21
I00
(lt(Nttba(dp1602
g96
(dp1603
g98
g1596
sg99
(lp1604
(dp1605
g102
g17
(g25
(I0
tS'b'
tRp1606
(I1
(L0L
tg104
I00
S''
tbsg105
g1599
sasstbsg106
S'+'
sbag1
(g10
g3
NtRp1607
(dp1608
g13
g1
(g14
g3
NtRp1609
((lp1610
g17
(g18
(I0
tS'b'
tRp1611
((I1
(L1L
tg21
I00
(lp1612
S'Val'
p1613
at(Nttba(lp1614
g17
(g25
(I0
tS'b'
tRp1615
(I1
(L1L
tg21
I00
(lp1616
g1
(g10
g3
NtRp1617
(dp1618
g13
g1
(g14
g3
NtRp1619
((lp1620
g17
(g18
(I0
tS'b'
tRp1621
((I1
(L1L
tg21
I00
(lp1622
S'Number'
p1623
at(Nttba(lp1624
g17
(g25
(I0
tS'b'
tRp1625
(I1
(L1L
tg21
I00
(lp1626
g1
(g10
g3
NtRp1627
(dp1628
g13
g1
(g14
g3
NtRp1629
((lp1630
g17
(g18
(I0
tS'b'
tRp1631
((I1
(L1L
tg21
I00
(lp1632
S'Int'
p1633
at(Nttba(lp1634
g17
(g25
(I0
tS'b'
tRp1635
(I1
(L1L
tg21
I00
(lp1636
g1
(g10
g3
NtRp1637
(dp1638
g13
g1
(g14
g3
NtRp1639
((lp1640
g17
(g18
(I0
tS'b'
tRp1641
((I1
(L1L
tg21
I00
(lp1642
S'_5_'
p1643
at(Nttba(lp1644
g17
(g25
(I0
tS'b'
tRp1645
(I1
(L1L
tg21
I00
(lp1646
g1
(g10
g3
NtRp1647
(dp1648
g13
g1
(g14
g3
NtRp1649
((lp1650
g17
(g18
(I0
tS'b'
tRp1651
((I1
(L0L
tg21
I00
(lt(Nttba(lp1652
g17
(g25
(I0
tS'b'
tRp1653
(I1
(L0L
tg21
I00
(ltba(lp1654
g17
(g18
(I0
tS'b'
tRp1655
((I1
(L0L
tg21
I00
(lt(Nttba(dp1656
g96
(dp1657
g98
g1650
sg99
(lp1658
(dp1659
g102
g17
(g25
(I0
tS'b'
tRp1660
(I1
(L0L
tg104
I00
S''
tbsg105
g1653
sasstbsg106
S'5'
sbatba(lp1661
g17
(g18
(I0
tS'b'
tRp1662
((I1
(L1L
tg21
I00
(lp1663
g1643
at(Nttba(dp1664
g96
(dp1665
g98
g1640
sg99
(lp1666
(dp1667
g102
g139
(I0
I1
I1
tRp1668
sg105
g1645
sasstbsg106
g1633
sbatba(lp1669
g17
(g18
(I0
tS'b'
tRp1670
((I1
(L1L
tg21
I00
(lp1671
g1633
at(Nttba(dp1672
g96
(dp1673
g98
g1630
sg99
(lp1674
(dp1675
g102
g139
(I0
I1
I1
tRp1676
sg105
g1635
sasstbsg106
g1623
sbatba(lp1677
g17
(g18
(I0
tS'b'
tRp1678
((I1
(L1L
tg21
I00
(lp1679
g1623
at(Nttba(dp1680
g96
(dp1681
g98
g1620
sg99
(lp1682
(dp1683
g102
g139
(I0
I1
I1
tRp1684
sg105
g1625
sasstbsg106
g1613
sbatba(lp1685
g17
(g18
(I0
tS'b'
tRp1686
((I1
(L1L
tg21
I00
(lp1687
g1613
at(Nttba(dp1688
g96
(dp1689
g98
g1610
sg99
(lp1690
(dp1691
g102
g139
(I0
I1
I1
tRp1692
sg105
g1615
sasstbsg106
g559
sbatba(lp1693
g17
(g18
(I0
tS'b'
tRp1694
((I1
(L3L
tg21
I00
(lp1695
g557
ag558
ag559
at(Nttba(dp1696
g96
(dp1697
g98
g554
sg99
(lp1698
(dp1699
g102
g139
(I0
I3
I1
tRp1700
sg105
g561
sasstbsg106
g547
sbatba(lp1701
g17
(g18
(I0
tS'b'
tRp1702
((I1
(L1L
tg21
I00
(lp1703
g547
at(Nttba(dp1704
g96
(dp1705
g98
g544
sg99
(lp1706
(dp1707
g102
g139
(I0
I1
I1
tRp1708
sg105
g549
sasstbsg106
g537
sbatba(lp1709
g17
(g18
(I0
tS'b'
tRp1710
((I1
(L1L
tg21
I00
(lp1711
g537
at(Nttba(dp1712
g96
(dp1713
g98
g534
sg99
(lp1714
(dp1715
g102
g139
(I0
I1
I1
tRp1716
sg105
g539
sasstbsg106
g512
sbatba(lp1717
g17
(g18
(I0
tS'b'
tRp1718
((I1
(L2L
tg21
I00
(lp1719
g511
ag512
at(Nttba(dp1720
g96
(dp1721
g98
g508
sg99
(lp1722
(dp1723
g102
g139
(I0
I2
I1
tRp1724
sg105
g514
sasstbsg106
g500
sbag1
(g10
g3
NtRp1725
(dp1726
g13
g1
(g14
g3
NtRp1727
((lp1728
g17
(g18
(I0
tS'b'
tRp1729
((I1
(L0L
tg21
I00
(lt(Nttba(lp1730
g17
(g25
(I0
tS'b'
tRp1731
(I1
(L0L
tg21
I00
(ltba(lp1732
g17
(g18
(I0
tS'b'
tRp1733
((I1
(L0L
tg21
I00
(lt(Nttba(dp1734
g96
(dp1735
g98
g1728
sg99
(lp1736
(dp1737
g102
g17
(g25
(I0
tS'b'
tRp1738
(I1
(L0L
tg104
I00
S''
tbsg105
g1731
sasstbsg106
S';'
sbatba(lp1739
g17
(g18
(I0
tS'b'
tRp1740
((I1
(L2L
tg21
I00
(lp1741
g500
ag501
at(Nttba(dp1742
g96
(dp1743
g98
g497
sg99
(lp1744
(dp1745
g102
g139
(I0
I2
I1
tRp1746
sg105
g503
sasstbsg106
g490
sbatba(lp1747
g17
(g18
(I0
tS'b'
tRp1748
((I1
(L1L
tg21
I00
(lp1749
g490
at(Nttba(dp1750
g96
(dp1751
g98
g487
sg99
(lp1752
(dp1753
g102
g139
(I0
I1
I1
tRp1754
sg105
g492
sasstbsg106
S'Stmt'
p1755
sbatba(lp1756
g17
(g18
(I0
tS'b'
tRp1757
((I1
(L2L
tg21
I00
(lp1758
g322
ag323
at(Nttba(dp1759
g96
(dp1760
g98
g319
sg99
(lp1761
(dp1762
g102
g139
(I0
I2
I1
tRp1763
sg105
g325
sasstbsg106
g278
sbag1
(g10
g3
NtRp1764
(dp1765
g13
g1
(g14
g3
NtRp1766
((lp1767
g17
(g18
(I0
tS'b'
tRp1768
((I1
(L1L
tg21
I00
(lp1769
S'_$blockend_'
p1770
at(Nttba(lp1771
g17
(g25
(I0
tS'b'
tRp1772
(I1
(L1L
tg21
I00
(lp1773
g1
(g10
g3
NtRp1774
(dp1775
g13
g1
(g14
g3
NtRp1776
((lp1777
g17
(g18
(I0
tS'b'
tRp1778
((I1
(L0L
tg21
I00
(lt(Nttba(lp1779
g17
(g25
(I0
tS'b'
tRp1780
(I1
(L0L
tg21
I00
(ltba(lp1781
g17
(g18
(I0
tS'b'
tRp1782
((I1
(L0L
tg21
I00
(lt(Nttba(dp1783
g96
(dp1784
g98
g1777
sg99
(lp1785
(dp1786
g102
g17
(g25
(I0
tS'b'
tRp1787
(I1
(L0L
tg104
I00
S''
tbsg105
g1780
sasstbsg106
S'$blockend'
p1788
sbatba(lp1789
g17
(g18
(I0
tS'b'
tRp1790
((I1
(L1L
tg21
I00
(lp1791
g1770
at(Nttba(dp1792
g96
(dp1793
g98
g1767
sg99
(lp1794
(dp1795
g102
g139
(I0
I1
I1
tRp1796
sg105
g1772
sasstbsg106
g279
sbatba(lp1797
g17
(g18
(I0
tS'b'
tRp1798
((I1
(L3L
tg21
I00
(lp1799
g277
ag278
ag279
at(Nttba(dp1800
g96
(dp1801
g98
g274
sg99
(lp1802
(dp1803
g102
g139
(I0
I3
I1
tRp1804
sg105
g281
sasstbsg106
g58
sbatba(lp1805
g17
(g18
(I0
tS'b'
tRp1806
((I1
(L2L
tg21
I00
(lp1807
g57
ag58
at(Nttba(dp1808
g96
(dp1809
g98
g54
sg99
(lp1810
(dp1811
g102
g139
(I0
I2
I1
tRp1812
sg105
g60
sasstbsg106
g47
sbatba(lp1813
g17
(g18
(I0
tS'b'
tRp1814
((I1
(L1L
tg21
I00
(lp1815
g47
at(Nttba(dp1816
g96
(dp1817
g98
g44
sg99
(lp1818
(dp1819
g102
g139
(I0
I1
I1
tRp1820
sg105
g49
sasstbsg106
S'Stmt'
p1821
sbag1
(g10
g3
NtRp1822
(dp1823
g13
g1
(g14
g3
NtRp1824
((lp1825
g17
(g18
(I0
tS'b'
tRp1826
((I1
(L1L
tg21
I00
(lp1827
S'Single_stmt'
p1828
at(Nttba(lp1829
g17
(g25
(I0
tS'b'
tRp1830
(I1
(L1L
tg21
I00
(lp1831
g1
(g10
g3
NtRp1832
(dp1833
g13
g1
(g14
g3
NtRp1834
((lp1835
g17
(g18
(I0
tS'b'
tRp1836
((I1
(L2L
tg21
I00
(lp1837
S'Assign_stmt'
p1838
aS'_;_'
p1839
at(Nttba(lp1840
g17
(g25
(I0
tS'b'
tRp1841
(I1
(L2L
tg21
I00
(lp1842
g1
(g10
g3
NtRp1843
(dp1844
g13
g1
(g14
g3
NtRp1845
((lp1846
g17
(g18
(I0
tS'b'
tRp1847
((I1
(L1L
tg21
I00
(lp1848
S'Assign'
p1849
at(Nttba(lp1850
g17
(g25
(I0
tS'b'
tRp1851
(I1
(L1L
tg21
I00
(lp1852
g1
(g10
g3
NtRp1853
(dp1854
g13
g1
(g14
g3
NtRp1855
((lp1856
g17
(g18
(I0
tS'b'
tRp1857
((I1
(L3L
tg21
I00
(lp1858
S'Varlist'
p1859
aS'_=_'
p1860
aS'Exprlist'
p1861
at(Nttba(lp1862
g17
(g25
(I0
tS'b'
tRp1863
(I1
(L3L
tg21
I00
(lp1864
g1
(g10
g3
NtRp1865
(dp1866
g13
g1
(g14
g3
NtRp1867
((lp1868
g17
(g18
(I0
tS'b'
tRp1869
((I1
(L1L
tg21
I00
(lp1870
S'Vartuple'
p1871
at(Nttba(lp1872
g17
(g25
(I0
tS'b'
tRp1873
(I1
(L1L
tg21
I00
(lp1874
g1
(g10
g3
NtRp1875
(dp1876
g13
g1
(g14
g3
NtRp1877
((lp1878
g17
(g18
(I0
tS'b'
tRp1879
((I1
(L1L
tg21
I00
(lp1880
S'Var'
p1881
at(Nttba(lp1882
g17
(g25
(I0
tS'b'
tRp1883
(I1
(L1L
tg21
I00
(lp1884
g1
(g10
g3
NtRp1885
(dp1886
g13
g1
(g14
g3
NtRp1887
((lp1888
g17
(g18
(I0
tS'b'
tRp1889
((I1
(L1L
tg21
I00
(lp1890
S'_L_'
p1891
at(Nttba(lp1892
g17
(g25
(I0
tS'b'
tRp1893
(I1
(L1L
tg21
I00
(lp1894
g1
(g10
g3
NtRp1895
(dp1896
g13
g1
(g14
g3
NtRp1897
((lp1898
g17
(g18
(I0
tS'b'
tRp1899
((I1
(L0L
tg21
I00
(lt(Nttba(lp1900
g17
(g25
(I0
tS'b'
tRp1901
(I1
(L0L
tg21
I00
(ltba(lp1902
g17
(g18
(I0
tS'b'
tRp1903
((I1
(L0L
tg21
I00
(lt(Nttba(dp1904
g96
(dp1905
g98
g1898
sg99
(lp1906
(dp1907
g102
g17
(g25
(I0
tS'b'
tRp1908
(I1
(L0L
tg104
I00
S''
tbsg105
g1901
sasstbsg106
S'L'
sbatba(lp1909
g17
(g18
(I0
tS'b'
tRp1910
((I1
(L1L
tg21
I00
(lp1911
g1891
at(Nttba(dp1912
g96
(dp1913
g98
g1888
sg99
(lp1914
(dp1915
g102
g139
(I0
I1
I1
tRp1916
sg105
g1893
sasstbsg106
g1881
sbatba(lp1917
g17
(g18
(I0
tS'b'
tRp1918
((I1
(L1L
tg21
I00
(lp1919
g1881
at(Nttba(dp1920
g96
(dp1921
g98
g1878
sg99
(lp1922
(dp1923
g102
g139
(I0
I1
I1
tRp1924
sg105
g1883
sasstbsg106
g1871
sbatba(lp1925
g17
(g18
(I0
tS'b'
tRp1926
((I1
(L1L
tg21
I00
(lp1927
g1871
at(Nttba(dp1928
g96
(dp1929
g98
g1868
sg99
(lp1930
(dp1931
g102
g139
(I0
I1
I1
tRp1932
sg105
g1873
sasstbsg106
g1859
sbag1
(g10
g3
NtRp1933
(dp1934
g13
g1
(g14
g3
NtRp1935
((lp1936
g17
(g18
(I0
tS'b'
tRp1937
((I1
(L0L
tg21
I00
(lt(Nttba(lp1938
g17
(g25
(I0
tS'b'
tRp1939
(I1
(L0L
tg21
I00
(ltba(lp1940
g17
(g18
(I0
tS'b'
tRp1941
((I1
(L0L
tg21
I00
(lt(Nttba(dp1942
g96
(dp1943
g98
g1936
sg99
(lp1944
(dp1945
g102
g17
(g25
(I0
tS'b'
tRp1946
(I1
(L0L
tg104
I00
S''
tbsg105
g1939
sasstbsg106
S'='
sbag1
(g10
g3
NtRp1947
(dp1948
g13
g1
(g14
g3
NtRp1949
((lp1950
g17
(g18
(I0
tS'b'
tRp1951
((I1
(L1L
tg21
I00
(lp1952
S'Expr'
p1953
at(Nttba(lp1954
g17
(g25
(I0
tS'b'
tRp1955
(I1
(L1L
tg21
I00
(lp1956
g1
(g10
g3
NtRp1957
(dp1958
g13
g1
(g14
g3
NtRp1959
((lp1960
g17
(g18
(I0
tS'b'
tRp1961
((I1
(L1L
tg21
I00
(lp1962
S'Dot_calc'
p1963
at(Nttba(lp1964
g17
(g25
(I0
tS'b'
tRp1965
(I1
(L1L
tg21
I00
(lp1966
g1
(g10
g3
NtRp1967
(dp1968
g13
g1
(g14
g3
NtRp1969
((lp1970
g17
(g18
(I0
tS'b'
tRp1971
((I1
(L3L
tg21
I00
(lp1972
S'Val_label1'
p1973
aS'_*_'
p1974
aS'Val_label2'
p1975
at(Nttba(lp1976
g17
(g25
(I0
tS'b'
tRp1977
(I1
(L3L
tg21
I00
(lp1978
g1
(g10
g3
NtRp1979
(dp1980
g13
g1
(g14
g3
NtRp1981
((lp1982
g17
(g18
(I0
tS'b'
tRp1983
((I1
(L1L
tg21
I00
(lp1984
S'Val'
p1985
at(Nttba(lp1986
g17
(g25
(I0
tS'b'
tRp1987
(I1
(L1L
tg21
I00
(lp1988
g1
(g10
g3
NtRp1989
(dp1990
g13
g1
(g14
g3
NtRp1991
((lp1992
g17
(g18
(I0
tS'b'
tRp1993
((I1
(L1L
tg21
I00
(lp1994
S'List'
p1995
at(Nttba(lp1996
g17
(g25
(I0
tS'b'
tRp1997
(I1
(L1L
tg21
I00
(lp1998
g1
(g10
g3
NtRp1999
(dp2000
g13
g1
(g14
g3
NtRp2001
((lp2002
g17
(g18
(I0
tS'b'
tRp2003
((I1
(L3L
tg21
I00
(lp2004
S'_[_'
p2005
aS'Exprlist'
p2006
aS'_]_'
p2007
at(Nttba(lp2008
g17
(g25
(I0
tS'b'
tRp2009
(I1
(L3L
tg21
I00
(lp2010
g1
(g10
g3
NtRp2011
(dp2012
g13
g1
(g14
g3
NtRp2013
((lp2014
g17
(g18
(I0
tS'b'
tRp2015
((I1
(L0L
tg21
I00
(lt(Nttba(lp2016
g17
(g25
(I0
tS'b'
tRp2017
(I1
(L0L
tg21
I00
(ltba(lp2018
g17
(g18
(I0
tS'b'
tRp2019
((I1
(L0L
tg21
I00
(lt(Nttba(dp2020
g96
(dp2021
g98
g2014
sg99
(lp2022
(dp2023
g102
g17
(g25
(I0
tS'b'
tRp2024
(I1
(L0L
tg104
I00
S''
tbsg105
g2017
sasstbsg106
S'['
sbag1
(g10
g3
NtRp2025
(dp2026
g13
g1
(g14
g3
NtRp2027
((lp2028
g17
(g18
(I0
tS'b'
tRp2029
((I1
(L1L
tg21
I00
(lp2030
S'Expr'
p2031
at(Nttba(lp2032
g17
(g25
(I0
tS'b'
tRp2033
(I1
(L1L
tg21
I00
(lp2034
g1
(g10
g3
NtRp2035
(dp2036
g13
g1
(g14
g3
NtRp2037
((lp2038
g17
(g18
(I0
tS'b'
tRp2039
((I1
(L1L
tg21
I00
(lp2040
S'Val_label'
p2041
at(Nttba(lp2042
g17
(g25
(I0
tS'b'
tRp2043
(I1
(L1L
tg21
I00
(lp2044
g1
(g10
g3
NtRp2045
(dp2046
g13
g1
(g14
g3
NtRp2047
((lp2048
g17
(g18
(I0
tS'b'
tRp2049
((I1
(L1L
tg21
I00
(lp2050
S'Val'
p2051
at(Nttba(lp2052
g17
(g25
(I0
tS'b'
tRp2053
(I1
(L1L
tg21
I00
(lp2054
g1
(g10
g3
NtRp2055
(dp2056
g13
g1
(g14
g3
NtRp2057
((lp2058
g17
(g18
(I0
tS'b'
tRp2059
((I1
(L1L
tg21
I00
(lp2060
S'Number'
p2061
at(Nttba(lp2062
g17
(g25
(I0
tS'b'
tRp2063
(I1
(L1L
tg21
I00
(lp2064
g1
(g10
g3
NtRp2065
(dp2066
g13
g1
(g14
g3
NtRp2067
((lp2068
g17
(g18
(I0
tS'b'
tRp2069
((I1
(L1L
tg21
I00
(lp2070
S'Int'
p2071
at(Nttba(lp2072
g17
(g25
(I0
tS'b'
tRp2073
(I1
(L1L
tg21
I00
(lp2074
g1
(g10
g3
NtRp2075
(dp2076
g13
g1
(g14
g3
NtRp2077
((lp2078
g17
(g18
(I0
tS'b'
tRp2079
((I1
(L1L
tg21
I00
(lp2080
S'_0_'
p2081
at(Nttba(lp2082
g17
(g25
(I0
tS'b'
tRp2083
(I1
(L1L
tg21
I00
(lp2084
g1
(g10
g3
NtRp2085
(dp2086
g13
g1
(g14
g3
NtRp2087
((lp2088
g17
(g18
(I0
tS'b'
tRp2089
((I1
(L0L
tg21
I00
(lt(Nttba(lp2090
g17
(g25
(I0
tS'b'
tRp2091
(I1
(L0L
tg21
I00
(ltba(lp2092
g17
(g18
(I0
tS'b'
tRp2093
((I1
(L0L
tg21
I00
(lt(Nttba(dp2094
g96
(dp2095
g98
g2088
sg99
(lp2096
(dp2097
g102
g17
(g25
(I0
tS'b'
tRp2098
(I1
(L0L
tg104
I00
S''
tbsg105
g2091
sasstbsg106
S'0'
sbatba(lp2099
g17
(g18
(I0
tS'b'
tRp2100
((I1
(L1L
tg21
I00
(lp2101
g2081
at(Nttba(dp2102
g96
(dp2103
g98
g2078
sg99
(lp2104
(dp2105
g102
g139
(I0
I1
I1
tRp2106
sg105
g2083
sasstbsg106
g2071
sbatba(lp2107
g17
(g18
(I0
tS'b'
tRp2108
((I1
(L1L
tg21
I00
(lp2109
g2071
at(Nttba(dp2110
g96
(dp2111
g98
g2068
sg99
(lp2112
(dp2113
g102
g139
(I0
I1
I1
tRp2114
sg105
g2073
sasstbsg106
g2061
sbatba(lp2115
g17
(g18
(I0
tS'b'
tRp2116
((I1
(L1L
tg21
I00
(lp2117
g2061
at(Nttba(dp2118
g96
(dp2119
g98
g2058
sg99
(lp2120
(dp2121
g102
g139
(I0
I1
I1
tRp2122
sg105
g2063
sasstbsg106
g2051
sbatba(lp2123
g17
(g18
(I0
tS'b'
tRp2124
((I1
(L1L
tg21
I00
(lp2125
g2051
at(Nttba(dp2126
g96
(dp2127
g98
g2048
sg99
(lp2128
(dp2129
g102
g139
(I0
I1
I1
tRp2130
sg105
g2053
sasstbsg106
g2041
sbatba(lp2131
g17
(g18
(I0
tS'b'
tRp2132
((I1
(L1L
tg21
I00
(lp2133
g2041
at(Nttba(dp2134
g96
(dp2135
g98
g2038
sg99
(lp2136
(dp2137
g102
g139
(I0
I1
I1
tRp2138
sg105
g2043
sasstbsg106
g2031
sbatba(lp2139
g17
(g18
(I0
tS'b'
tRp2140
((I1
(L1L
tg21
I00
(lp2141
g2031
at(Nttba(dp2142
g96
(dp2143
g98
g2028
sg99
(lp2144
(dp2145
g102
g139
(I0
I1
I1
tRp2146
sg105
g2033
sasstbsg106
g2006
sbag1
(g10
g3
NtRp2147
(dp2148
g13
g1
(g14
g3
NtRp2149
((lp2150
g17
(g18
(I0
tS'b'
tRp2151
((I1
(L0L
tg21
I00
(lt(Nttba(lp2152
g17
(g25
(I0
tS'b'
tRp2153
(I1
(L0L
tg21
I00
(ltba(lp2154
g17
(g18
(I0
tS'b'
tRp2155
((I1
(L0L
tg21
I00
(lt(Nttba(dp2156
g96
(dp2157
g98
g2150
sg99
(lp2158
(dp2159
g102
g17
(g25
(I0
tS'b'
tRp2160
(I1
(L0L
tg104
I00
S''
tbsg105
g2153
sasstbsg106
S']'
sbatba(lp2161
g17
(g18
(I0
tS'b'
tRp2162
((I1
(L3L
tg21
I00
(lp2163
g2005
ag2006
ag2007
at(Nttba(dp2164
g96
(dp2165
g98
g2002
sg99
(lp2166
(dp2167
g102
g139
(I0
I3
I1
tRp2168
sg105
g2009
sasstbsg106
g1995
sbatba(lp2169
g17
(g18
(I0
tS'b'
tRp2170
((I1
(L1L
tg21
I00
(lp2171
g1995
at(Nttba(dp2172
g96
(dp2173
g98
g1992
sg99
(lp2174
(dp2175
g102
g139
(I0
I1
I1
tRp2176
sg105
g1997
sasstbsg106
g1985
sbatba(lp2177
g17
(g18
(I0
tS'b'
tRp2178
((I1
(L1L
tg21
I00
(lp2179
g1985
at(Nttba(dp2180
g96
(dp2181
g98
g1982
sg99
(lp2182
(dp2183
g102
g139
(I0
I1
I1
tRp2184
sg105
g1987
sasstbsg106
S'Val_label'
p2185
sbag1
(g10
g3
NtRp2186
(dp2187
g13
g1
(g14
g3
NtRp2188
((lp2189
g17
(g18
(I0
tS'b'
tRp2190
((I1
(L0L
tg21
I00
(lt(Nttba(lp2191
g17
(g25
(I0
tS'b'
tRp2192
(I1
(L0L
tg21
I00
(ltba(lp2193
g17
(g18
(I0
tS'b'
tRp2194
((I1
(L0L
tg21
I00
(lt(Nttba(dp2195
g96
(dp2196
g98
g2189
sg99
(lp2197
(dp2198
g102
g17
(g25
(I0
tS'b'
tRp2199
(I1
(L0L
tg104
I00
S''
tbsg105
g2192
sasstbsg106
S'*'
sbag1
(g10
g3
NtRp2200
(dp2201
g13
g1
(g14
g3
NtRp2202
((lp2203
g17
(g18
(I0
tS'b'
tRp2204
((I1
(L1L
tg21
I00
(lp2205
S'Val'
p2206
at(Nttba(lp2207
g17
(g25
(I0
tS'b'
tRp2208
(I1
(L1L
tg21
I00
(lp2209
g1
(g10
g3
NtRp2210
(dp2211
g13
g1
(g14
g3
NtRp2212
((lp2213
g17
(g18
(I0
tS'b'
tRp2214
((I1
(L1L
tg21
I00
(lp2215
S'Number'
p2216
at(Nttba(lp2217
g17
(g25
(I0
tS'b'
tRp2218
(I1
(L1L
tg21
I00
(lp2219
g1
(g10
g3
NtRp2220
(dp2221
g13
g1
(g14
g3
NtRp2222
((lp2223
g17
(g18
(I0
tS'b'
tRp2224
((I1
(L1L
tg21
I00
(lp2225
S'Int'
p2226
at(Nttba(lp2227
g17
(g25
(I0
tS'b'
tRp2228
(I1
(L1L
tg21
I00
(lp2229
g1
(g10
g3
NtRp2230
(dp2231
g13
g1
(g14
g3
NtRp2232
((lp2233
g17
(g18
(I0
tS'b'
tRp2234
((I1
(L1L
tg21
I00
(lp2235
S'_10_'
p2236
at(Nttba(lp2237
g17
(g25
(I0
tS'b'
tRp2238
(I1
(L1L
tg21
I00
(lp2239
g1
(g10
g3
NtRp2240
(dp2241
g13
g1
(g14
g3
NtRp2242
((lp2243
g17
(g18
(I0
tS'b'
tRp2244
((I1
(L0L
tg21
I00
(lt(Nttba(lp2245
g17
(g25
(I0
tS'b'
tRp2246
(I1
(L0L
tg21
I00
(ltba(lp2247
g17
(g18
(I0
tS'b'
tRp2248
((I1
(L0L
tg21
I00
(lt(Nttba(dp2249
g96
(dp2250
g98
g2243
sg99
(lp2251
(dp2252
g102
g17
(g25
(I0
tS'b'
tRp2253
(I1
(L0L
tg104
I00
S''
tbsg105
g2246
sasstbsg106
S'10'
p2254
sbatba(lp2255
g17
(g18
(I0
tS'b'
tRp2256
((I1
(L1L
tg21
I00
(lp2257
g2236
at(Nttba(dp2258
g96
(dp2259
g98
g2233
sg99
(lp2260
(dp2261
g102
g139
(I0
I1
I1
tRp2262
sg105
g2238
sasstbsg106
g2226
sbatba(lp2263
g17
(g18
(I0
tS'b'
tRp2264
((I1
(L1L
tg21
I00
(lp2265
g2226
at(Nttba(dp2266
g96
(dp2267
g98
g2223
sg99
(lp2268
(dp2269
g102
g139
(I0
I1
I1
tRp2270
sg105
g2228
sasstbsg106
g2216
sbatba(lp2271
g17
(g18
(I0
tS'b'
tRp2272
((I1
(L1L
tg21
I00
(lp2273
g2216
at(Nttba(dp2274
g96
(dp2275
g98
g2213
sg99
(lp2276
(dp2277
g102
g139
(I0
I1
I1
tRp2278
sg105
g2218
sasstbsg106
g2206
sbatba(lp2279
g17
(g18
(I0
tS'b'
tRp2280
((I1
(L1L
tg21
I00
(lp2281
g2206
at(Nttba(dp2282
g96
(dp2283
g98
g2203
sg99
(lp2284
(dp2285
g102
g139
(I0
I1
I1
tRp2286
sg105
g2208
sasstbsg106
S'Val_label'
p2287
sbatba(lp2288
g17
(g18
(I0
tS'b'
tRp2289
((I1
(L3L
tg21
I00
(lp2290
g1973
ag1974
ag1975
at(Nttba(dp2291
g96
(dp2292
g98
g1970
sg99
(lp2293
(dp2294
g102
g139
(I0
I3
I1
tRp2295
sg105
g1977
sasstbsg106
g1963
sbatba(lp2296
g17
(g18
(I0
tS'b'
tRp2297
((I1
(L1L
tg21
I00
(lp2298
g1963
at(Nttba(dp2299
g96
(dp2300
g98
g1960
sg99
(lp2301
(dp2302
g102
g139
(I0
I1
I1
tRp2303
sg105
g1965
sasstbsg106
g1953
sbatba(lp2304
g17
(g18
(I0
tS'b'
tRp2305
((I1
(L1L
tg21
I00
(lp2306
g1953
at(Nttba(dp2307
g96
(dp2308
g98
g1950
sg99
(lp2309
(dp2310
g102
g139
(I0
I1
I1
tRp2311
sg105
g1955
sasstbsg106
g1861
sbatba(lp2312
g17
(g18
(I0
tS'b'
tRp2313
((I1
(L3L
tg21
I00
(lp2314
g1859
ag1860
ag1861
at(Nttba(dp2315
g96
(dp2316
g98
g1856
sg99
(lp2317
(dp2318
g102
g139
(I0
I3
I1
tRp2319
sg105
g1863
sasstbsg106
g1849
sbatba(lp2320
g17
(g18
(I0
tS'b'
tRp2321
((I1
(L1L
tg21
I00
(lp2322
g1849
at(Nttba(dp2323
g96
(dp2324
g98
g1846
sg99
(lp2325
(dp2326
g102
g139
(I0
I1
I1
tRp2327
sg105
g1851
sasstbsg106
g1838
sbag1
(g10
g3
NtRp2328
(dp2329
g13
g1
(g14
g3
NtRp2330
((lp2331
g17
(g18
(I0
tS'b'
tRp2332
((I1
(L0L
tg21
I00
(lt(Nttba(lp2333
g17
(g25
(I0
tS'b'
tRp2334
(I1
(L0L
tg21
I00
(ltba(lp2335
g17
(g18
(I0
tS'b'
tRp2336
((I1
(L0L
tg21
I00
(lt(Nttba(dp2337
g96
(dp2338
g98
g2331
sg99
(lp2339
(dp2340
g102
g17
(g25
(I0
tS'b'
tRp2341
(I1
(L0L
tg104
I00
S''
tbsg105
g2334
sasstbsg106
S';'
sbatba(lp2342
g17
(g18
(I0
tS'b'
tRp2343
((I1
(L2L
tg21
I00
(lp2344
g1838
ag1839
at(Nttba(dp2345
g96
(dp2346
g98
g1835
sg99
(lp2347
(dp2348
g102
g139
(I0
I2
I1
tRp2349
sg105
g1841
sasstbsg106
g1828
sbatba(lp2350
g17
(g18
(I0
tS'b'
tRp2351
((I1
(L1L
tg21
I00
(lp2352
g1828
at(Nttba(dp2353
g96
(dp2354
g98
g1825
sg99
(lp2355
(dp2356
g102
g139
(I0
I1
I1
tRp2357
sg105
g1830
sasstbsg106
S'Stmt'
p2358
sbag1
(g10
g3
NtRp2359
(dp2360
g13
g1
(g14
g3
NtRp2361
((lp2362
g17
(g18
(I0
tS'b'
tRp2363
((I1
(L1L
tg21
I00
(lp2364
S'Block_stmt'
p2365
at(Nttba(lp2366
g17
(g25
(I0
tS'b'
tRp2367
(I1
(L1L
tg21
I00
(lp2368
g1
(g10
g3
NtRp2369
(dp2370
g13
g1
(g14
g3
NtRp2371
((lp2372
g17
(g18
(I0
tS'b'
tRp2373
((I1
(L2L
tg21
I00
(lp2374
S'Block_head'
p2375
aS'Block'
p2376
at(Nttba(lp2377
g17
(g25
(I0
tS'b'
tRp2378
(I1
(L2L
tg21
I00
(lp2379
g1
(g10
g3
NtRp2380
(dp2381
g13
g1
(g14
g3
NtRp2382
((lp2383
g17
(g18
(I0
tS'b'
tRp2384
((I1
(L1L
tg21
I00
(lp2385
S'Loop'
p2386
at(Nttba(lp2387
g17
(g25
(I0
tS'b'
tRp2388
(I1
(L1L
tg21
I00
(lp2389
g1
(g10
g3
NtRp2390
(dp2391
g13
g1
(g14
g3
NtRp2392
((lp2393
g17
(g18
(I0
tS'b'
tRp2394
((I1
(L1L
tg21
I00
(lp2395
S'For'
p2396
at(Nttba(lp2397
g17
(g25
(I0
tS'b'
tRp2398
(I1
(L1L
tg21
I00
(lp2399
g1
(g10
g3
NtRp2400
(dp2401
g13
g1
(g14
g3
NtRp2402
((lp2403
g17
(g18
(I0
tS'b'
tRp2404
((I1
(L4L
tg21
I00
(lp2405
S'_for_'
p2406
aS'Varlist'
p2407
aS'_in_'
p2408
aS'Exprlist'
p2409
at(Nttba(lp2410
g17
(g25
(I0
tS'b'
tRp2411
(I1
(L4L
tg21
I00
(lp2412
g1
(g10
g3
NtRp2413
(dp2414
g13
g1
(g14
g3
NtRp2415
((lp2416
g17
(g18
(I0
tS'b'
tRp2417
((I1
(L0L
tg21
I00
(lt(Nttba(lp2418
g17
(g25
(I0
tS'b'
tRp2419
(I1
(L0L
tg21
I00
(ltba(lp2420
g17
(g18
(I0
tS'b'
tRp2421
((I1
(L0L
tg21
I00
(lt(Nttba(dp2422
g96
(dp2423
g98
g2416
sg99
(lp2424
(dp2425
g102
g17
(g25
(I0
tS'b'
tRp2426
(I1
(L0L
tg104
I00
S''
tbsg105
g2419
sasstbsg106
S'for'
p2427
sbag1
(g10
g3
NtRp2428
(dp2429
g13
g1
(g14
g3
NtRp2430
((lp2431
g17
(g18
(I0
tS'b'
tRp2432
((I1
(L1L
tg21
I00
(lp2433
S'Vartuple'
p2434
at(Nttba(lp2435
g17
(g25
(I0
tS'b'
tRp2436
(I1
(L1L
tg21
I00
(lp2437
g1
(g10
g3
NtRp2438
(dp2439
g13
g1
(g14
g3
NtRp2440
((lp2441
g17
(g18
(I0
tS'b'
tRp2442
((I1
(L1L
tg21
I00
(lp2443
S'Var'
p2444
at(Nttba(lp2445
g17
(g25
(I0
tS'b'
tRp2446
(I1
(L1L
tg21
I00
(lp2447
g1
(g10
g3
NtRp2448
(dp2449
g13
g1
(g14
g3
NtRp2450
((lp2451
g17
(g18
(I0
tS'b'
tRp2452
((I1
(L1L
tg21
I00
(lp2453
S'_i_'
p2454
at(Nttba(lp2455
g17
(g25
(I0
tS'b'
tRp2456
(I1
(L1L
tg21
I00
(lp2457
g1
(g10
g3
NtRp2458
(dp2459
g13
g1
(g14
g3
NtRp2460
((lp2461
g17
(g18
(I0
tS'b'
tRp2462
((I1
(L0L
tg21
I00
(lt(Nttba(lp2463
g17
(g25
(I0
tS'b'
tRp2464
(I1
(L0L
tg21
I00
(ltba(lp2465
g17
(g18
(I0
tS'b'
tRp2466
((I1
(L0L
tg21
I00
(lt(Nttba(dp2467
g96
(dp2468
g98
g2461
sg99
(lp2469
(dp2470
g102
g17
(g25
(I0
tS'b'
tRp2471
(I1
(L0L
tg104
I00
S''
tbsg105
g2464
sasstbsg106
S'i'
sbatba(lp2472
g17
(g18
(I0
tS'b'
tRp2473
((I1
(L1L
tg21
I00
(lp2474
g2454
at(Nttba(dp2475
g96
(dp2476
g98
g2451
sg99
(lp2477
(dp2478
g102
g139
(I0
I1
I1
tRp2479
sg105
g2456
sasstbsg106
g2444
sbatba(lp2480
g17
(g18
(I0
tS'b'
tRp2481
((I1
(L1L
tg21
I00
(lp2482
g2444
at(Nttba(dp2483
g96
(dp2484
g98
g2441
sg99
(lp2485
(dp2486
g102
g139
(I0
I1
I1
tRp2487
sg105
g2446
sasstbsg106
g2434
sbatba(lp2488
g17
(g18
(I0
tS'b'
tRp2489
((I1
(L1L
tg21
I00
(lp2490
g2434
at(Nttba(dp2491
g96
(dp2492
g98
g2431
sg99
(lp2493
(dp2494
g102
g139
(I0
I1
I1
tRp2495
sg105
g2436
sasstbsg106
g2407
sbag1
(g10
g3
NtRp2496
(dp2497
g13
g1
(g14
g3
NtRp2498
((lp2499
g17
(g18
(I0
tS'b'
tRp2500
((I1
(L0L
tg21
I00
(lt(Nttba(lp2501
g17
(g25
(I0
tS'b'
tRp2502
(I1
(L0L
tg21
I00
(ltba(lp2503
g17
(g18
(I0
tS'b'
tRp2504
((I1
(L0L
tg21
I00
(lt(Nttba(dp2505
g96
(dp2506
g98
g2499
sg99
(lp2507
(dp2508
g102
g17
(g25
(I0
tS'b'
tRp2509
(I1
(L0L
tg104
I00
S''
tbsg105
g2502
sasstbsg106
S'in'
p2510
sbag1
(g10
g3
NtRp2511
(dp2512
g13
g1
(g14
g3
NtRp2513
((lp2514
g17
(g18
(I0
tS'b'
tRp2515
((I1
(L1L
tg21
I00
(lp2516
S'Expr'
p2517
at(Nttba(lp2518
g17
(g25
(I0
tS'b'
tRp2519
(I1
(L1L
tg21
I00
(lp2520
g1
(g10
g3
NtRp2521
(dp2522
g13
g1
(g14
g3
NtRp2523
((lp2524
g17
(g18
(I0
tS'b'
tRp2525
((I1
(L1L
tg21
I00
(lp2526
S'Funccall'
p2527
at(Nttba(lp2528
g17
(g25
(I0
tS'b'
tRp2529
(I1
(L1L
tg21
I00
(lp2530
g1
(g10
g3
NtRp2531
(dp2532
g13
g1
(g14
g3
NtRp2533
((lp2534
g17
(g18
(I0
tS'b'
tRp2535
((I1
(L4L
tg21
I00
(lp2536
S'Val_label'
p2537
aS'_(_'
p2538
aS'Arglist'
p2539
aS'_)_'
p2540
at(Nttba(lp2541
g17
(g25
(I0
tS'b'
tRp2542
(I1
(L4L
tg21
I00
(lp2543
g1
(g10
g3
NtRp2544
(dp2545
g13
g1
(g14
g3
NtRp2546
((lp2547
g17
(g18
(I0
tS'b'
tRp2548
((I1
(L1L
tg21
I00
(lp2549
S'Val'
p2550
at(Nttba(lp2551
g17
(g25
(I0
tS'b'
tRp2552
(I1
(L1L
tg21
I00
(lp2553
g1
(g10
g3
NtRp2554
(dp2555
g13
g1
(g14
g3
NtRp2556
((lp2557
g17
(g18
(I0
tS'b'
tRp2558
((I1
(L1L
tg21
I00
(lp2559
S'Var'
p2560
at(Nttba(lp2561
g17
(g25
(I0
tS'b'
tRp2562
(I1
(L1L
tg21
I00
(lp2563
g1
(g10
g3
NtRp2564
(dp2565
g13
g1
(g14
g3
NtRp2566
((lp2567
g17
(g18
(I0
tS'b'
tRp2568
((I1
(L1L
tg21
I00
(lp2569
S'_range_'
p2570
at(Nttba(lp2571
g17
(g25
(I0
tS'b'
tRp2572
(I1
(L1L
tg21
I00
(lp2573
g1
(g10
g3
NtRp2574
(dp2575
g13
g1
(g14
g3
NtRp2576
((lp2577
g17
(g18
(I0
tS'b'
tRp2578
((I1
(L0L
tg21
I00
(lt(Nttba(lp2579
g17
(g25
(I0
tS'b'
tRp2580
(I1
(L0L
tg21
I00
(ltba(lp2581
g17
(g18
(I0
tS'b'
tRp2582
((I1
(L0L
tg21
I00
(lt(Nttba(dp2583
g96
(dp2584
g98
g2577
sg99
(lp2585
(dp2586
g102
g17
(g25
(I0
tS'b'
tRp2587
(I1
(L0L
tg104
I00
S''
tbsg105
g2580
sasstbsg106
S'range'
p2588
sbatba(lp2589
g17
(g18
(I0
tS'b'
tRp2590
((I1
(L1L
tg21
I00
(lp2591
g2570
at(Nttba(dp2592
g96
(dp2593
g98
g2567
sg99
(lp2594
(dp2595
g102
g139
(I0
I1
I1
tRp2596
sg105
g2572
sasstbsg106
g2560
sbatba(lp2597
g17
(g18
(I0
tS'b'
tRp2598
((I1
(L1L
tg21
I00
(lp2599
g2560
at(Nttba(dp2600
g96
(dp2601
g98
g2557
sg99
(lp2602
(dp2603
g102
g139
(I0
I1
I1
tRp2604
sg105
g2562
sasstbsg106
g2550
sbatba(lp2605
g17
(g18
(I0
tS'b'
tRp2606
((I1
(L1L
tg21
I00
(lp2607
g2550
at(Nttba(dp2608
g96
(dp2609
g98
g2547
sg99
(lp2610
(dp2611
g102
g139
(I0
I1
I1
tRp2612
sg105
g2552
sasstbsg106
g2537
sbag1
(g10
g3
NtRp2613
(dp2614
g13
g1
(g14
g3
NtRp2615
((lp2616
g17
(g18
(I0
tS'b'
tRp2617
((I1
(L0L
tg21
I00
(lt(Nttba(lp2618
g17
(g25
(I0
tS'b'
tRp2619
(I1
(L0L
tg21
I00
(ltba(lp2620
g17
(g18
(I0
tS'b'
tRp2621
((I1
(L0L
tg21
I00
(lt(Nttba(dp2622
g96
(dp2623
g98
g2616
sg99
(lp2624
(dp2625
g102
g17
(g25
(I0
tS'b'
tRp2626
(I1
(L0L
tg104
I00
S''
tbsg105
g2619
sasstbsg106
S'('
sbag1
(g10
g3
NtRp2627
(dp2628
g13
g1
(g14
g3
NtRp2629
((lp2630
g17
(g18
(I0
tS'b'
tRp2631
((I1
(L1L
tg21
I00
(lp2632
S'Pos_arglist'
p2633
at(Nttba(lp2634
g17
(g25
(I0
tS'b'
tRp2635
(I1
(L1L
tg21
I00
(lp2636
g1
(g10
g3
NtRp2637
(dp2638
g13
g1
(g14
g3
NtRp2639
((lp2640
g17
(g18
(I0
tS'b'
tRp2641
((I1
(L1L
tg21
I00
(lp2642
S'Pos_arg'
p2643
at(Nttba(lp2644
g17
(g25
(I0
tS'b'
tRp2645
(I1
(L1L
tg21
I00
(lp2646
g1
(g10
g3
NtRp2647
(dp2648
g13
g1
(g14
g3
NtRp2649
((lp2650
g17
(g18
(I0
tS'b'
tRp2651
((I1
(L1L
tg21
I00
(lp2652
S'Expr'
p2653
at(Nttba(lp2654
g17
(g25
(I0
tS'b'
tRp2655
(I1
(L1L
tg21
I00
(lp2656
g1
(g10
g3
NtRp2657
(dp2658
g13
g1
(g14
g3
NtRp2659
((lp2660
g17
(g18
(I0
tS'b'
tRp2661
((I1
(L1L
tg21
I00
(lp2662
S'Funccall'
p2663
at(Nttba(lp2664
g17
(g25
(I0
tS'b'
tRp2665
(I1
(L1L
tg21
I00
(lp2666
g1
(g10
g3
NtRp2667
(dp2668
g13
g1
(g14
g3
NtRp2669
((lp2670
g17
(g18
(I0
tS'b'
tRp2671
((I1
(L4L
tg21
I00
(lp2672
S'Val_label'
p2673
aS'_(_'
p2674
aS'Arglist'
p2675
aS'_)_'
p2676
at(Nttba(lp2677
g17
(g25
(I0
tS'b'
tRp2678
(I1
(L4L
tg21
I00
(lp2679
g1
(g10
g3
NtRp2680
(dp2681
g13
g1
(g14
g3
NtRp2682
((lp2683
g17
(g18
(I0
tS'b'
tRp2684
((I1
(L1L
tg21
I00
(lp2685
S'Val'
p2686
at(Nttba(lp2687
g17
(g25
(I0
tS'b'
tRp2688
(I1
(L1L
tg21
I00
(lp2689
g1
(g10
g3
NtRp2690
(dp2691
g13
g1
(g14
g3
NtRp2692
((lp2693
g17
(g18
(I0
tS'b'
tRp2694
((I1
(L1L
tg21
I00
(lp2695
S'Var'
p2696
at(Nttba(lp2697
g17
(g25
(I0
tS'b'
tRp2698
(I1
(L1L
tg21
I00
(lp2699
g1
(g10
g3
NtRp2700
(dp2701
g13
g1
(g14
g3
NtRp2702
((lp2703
g17
(g18
(I0
tS'b'
tRp2704
((I1
(L1L
tg21
I00
(lp2705
S'_len_'
p2706
at(Nttba(lp2707
g17
(g25
(I0
tS'b'
tRp2708
(I1
(L1L
tg21
I00
(lp2709
g1
(g10
g3
NtRp2710
(dp2711
g13
g1
(g14
g3
NtRp2712
((lp2713
g17
(g18
(I0
tS'b'
tRp2714
((I1
(L0L
tg21
I00
(lt(Nttba(lp2715
g17
(g25
(I0
tS'b'
tRp2716
(I1
(L0L
tg21
I00
(ltba(lp2717
g17
(g18
(I0
tS'b'
tRp2718
((I1
(L0L
tg21
I00
(lt(Nttba(dp2719
g96
(dp2720
g98
g2713
sg99
(lp2721
(dp2722
g102
g17
(g25
(I0
tS'b'
tRp2723
(I1
(L0L
tg104
I00
S''
tbsg105
g2716
sasstbsg106
S'len'
p2724
sbatba(lp2725
g17
(g18
(I0
tS'b'
tRp2726
((I1
(L1L
tg21
I00
(lp2727
g2706
at(Nttba(dp2728
g96
(dp2729
g98
g2703
sg99
(lp2730
(dp2731
g102
g139
(I0
I1
I1
tRp2732
sg105
g2708
sasstbsg106
g2696
sbatba(lp2733
g17
(g18
(I0
tS'b'
tRp2734
((I1
(L1L
tg21
I00
(lp2735
g2696
at(Nttba(dp2736
g96
(dp2737
g98
g2693
sg99
(lp2738
(dp2739
g102
g139
(I0
I1
I1
tRp2740
sg105
g2698
sasstbsg106
g2686
sbatba(lp2741
g17
(g18
(I0
tS'b'
tRp2742
((I1
(L1L
tg21
I00
(lp2743
g2686
at(Nttba(dp2744
g96
(dp2745
g98
g2683
sg99
(lp2746
(dp2747
g102
g139
(I0
I1
I1
tRp2748
sg105
g2688
sasstbsg106
g2673
sbag1
(g10
g3
NtRp2749
(dp2750
g13
g1
(g14
g3
NtRp2751
((lp2752
g17
(g18
(I0
tS'b'
tRp2753
((I1
(L0L
tg21
I00
(lt(Nttba(lp2754
g17
(g25
(I0
tS'b'
tRp2755
(I1
(L0L
tg21
I00
(ltba(lp2756
g17
(g18
(I0
tS'b'
tRp2757
((I1
(L0L
tg21
I00
(lt(Nttba(dp2758
g96
(dp2759
g98
g2752
sg99
(lp2760
(dp2761
g102
g17
(g25
(I0
tS'b'
tRp2762
(I1
(L0L
tg104
I00
S''
tbsg105
g2755
sasstbsg106
S'('
sbag1
(g10
g3
NtRp2763
(dp2764
g13
g1
(g14
g3
NtRp2765
((lp2766
g17
(g18
(I0
tS'b'
tRp2767
((I1
(L1L
tg21
I00
(lp2768
S'Pos_arglist'
p2769
at(Nttba(lp2770
g17
(g25
(I0
tS'b'
tRp2771
(I1
(L1L
tg21
I00
(lp2772
g1
(g10
g3
NtRp2773
(dp2774
g13
g1
(g14
g3
NtRp2775
((lp2776
g17
(g18
(I0
tS'b'
tRp2777
((I1
(L1L
tg21
I00
(lp2778
S'Pos_arg'
p2779
at(Nttba(lp2780
g17
(g25
(I0
tS'b'
tRp2781
(I1
(L1L
tg21
I00
(lp2782
g1
(g10
g3
NtRp2783
(dp2784
g13
g1
(g14
g3
NtRp2785
((lp2786
g17
(g18
(I0
tS'b'
tRp2787
((I1
(L1L
tg21
I00
(lp2788
S'Expr'
p2789
at(Nttba(lp2790
g17
(g25
(I0
tS'b'
tRp2791
(I1
(L1L
tg21
I00
(lp2792
g1
(g10
g3
NtRp2793
(dp2794
g13
g1
(g14
g3
NtRp2795
((lp2796
g17
(g18
(I0
tS'b'
tRp2797
((I1
(L1L
tg21
I00
(lp2798
S'Val_label'
p2799
at(Nttba(lp2800
g17
(g25
(I0
tS'b'
tRp2801
(I1
(L1L
tg21
I00
(lp2802
g1
(g10
g3
NtRp2803
(dp2804
g13
g1
(g14
g3
NtRp2805
((lp2806
g17
(g18
(I0
tS'b'
tRp2807
((I1
(L1L
tg21
I00
(lp2808
S'Val'
p2809
at(Nttba(lp2810
g17
(g25
(I0
tS'b'
tRp2811
(I1
(L1L
tg21
I00
(lp2812
g1
(g10
g3
NtRp2813
(dp2814
g13
g1
(g14
g3
NtRp2815
((lp2816
g17
(g18
(I0
tS'b'
tRp2817
((I1
(L1L
tg21
I00
(lp2818
S'Var'
p2819
at(Nttba(lp2820
g17
(g25
(I0
tS'b'
tRp2821
(I1
(L1L
tg21
I00
(lp2822
g1
(g10
g3
NtRp2823
(dp2824
g13
g1
(g14
g3
NtRp2825
((lp2826
g17
(g18
(I0
tS'b'
tRp2827
((I1
(L1L
tg21
I00
(lp2828
S'_L_'
p2829
at(Nttba(lp2830
g17
(g25
(I0
tS'b'
tRp2831
(I1
(L1L
tg21
I00
(lp2832
g1
(g10
g3
NtRp2833
(dp2834
g13
g1
(g14
g3
NtRp2835
((lp2836
g17
(g18
(I0
tS'b'
tRp2837
((I1
(L0L
tg21
I00
(lt(Nttba(lp2838
g17
(g25
(I0
tS'b'
tRp2839
(I1
(L0L
tg21
I00
(ltba(lp2840
g17
(g18
(I0
tS'b'
tRp2841
((I1
(L0L
tg21
I00
(lt(Nttba(dp2842
g96
(dp2843
g98
g2836
sg99
(lp2844
(dp2845
g102
g17
(g25
(I0
tS'b'
tRp2846
(I1
(L0L
tg104
I00
S''
tbsg105
g2839
sasstbsg106
S'L'
sbatba(lp2847
g17
(g18
(I0
tS'b'
tRp2848
((I1
(L1L
tg21
I00
(lp2849
g2829
at(Nttba(dp2850
g96
(dp2851
g98
g2826
sg99
(lp2852
(dp2853
g102
g139
(I0
I1
I1
tRp2854
sg105
g2831
sasstbsg106
g2819
sbatba(lp2855
g17
(g18
(I0
tS'b'
tRp2856
((I1
(L1L
tg21
I00
(lp2857
g2819
at(Nttba(dp2858
g96
(dp2859
g98
g2816
sg99
(lp2860
(dp2861
g102
g139
(I0
I1
I1
tRp2862
sg105
g2821
sasstbsg106
g2809
sbatba(lp2863
g17
(g18
(I0
tS'b'
tRp2864
((I1
(L1L
tg21
I00
(lp2865
g2809
at(Nttba(dp2866
g96
(dp2867
g98
g2806
sg99
(lp2868
(dp2869
g102
g139
(I0
I1
I1
tRp2870
sg105
g2811
sasstbsg106
g2799
sbatba(lp2871
g17
(g18
(I0
tS'b'
tRp2872
((I1
(L1L
tg21
I00
(lp2873
g2799
at(Nttba(dp2874
g96
(dp2875
g98
g2796
sg99
(lp2876
(dp2877
g102
g139
(I0
I1
I1
tRp2878
sg105
g2801
sasstbsg106
g2789
sbatba(lp2879
g17
(g18
(I0
tS'b'
tRp2880
((I1
(L1L
tg21
I00
(lp2881
g2789
at(Nttba(dp2882
g96
(dp2883
g98
g2786
sg99
(lp2884
(dp2885
g102
g139
(I0
I1
I1
tRp2886
sg105
g2791
sasstbsg106
g2779
sbatba(lp2887
g17
(g18
(I0
tS'b'
tRp2888
((I1
(L1L
tg21
I00
(lp2889
g2779
at(Nttba(dp2890
g96
(dp2891
g98
g2776
sg99
(lp2892
(dp2893
g102
g139
(I0
I1
I1
tRp2894
sg105
g2781
sasstbsg106
g2769
sbatba(lp2895
g17
(g18
(I0
tS'b'
tRp2896
((I1
(L1L
tg21
I00
(lp2897
g2769
at(Nttba(dp2898
g96
(dp2899
g98
g2766
sg99
(lp2900
(dp2901
g102
g139
(I0
I1
I1
tRp2902
sg105
g2771
sasstbsg106
g2675
sbag1
(g10
g3
NtRp2903
(dp2904
g13
g1
(g14
g3
NtRp2905
((lp2906
g17
(g18
(I0
tS'b'
tRp2907
((I1
(L0L
tg21
I00
(lt(Nttba(lp2908
g17
(g25
(I0
tS'b'
tRp2909
(I1
(L0L
tg21
I00
(ltba(lp2910
g17
(g18
(I0
tS'b'
tRp2911
((I1
(L0L
tg21
I00
(lt(Nttba(dp2912
g96
(dp2913
g98
g2906
sg99
(lp2914
(dp2915
g102
g17
(g25
(I0
tS'b'
tRp2916
(I1
(L0L
tg104
I00
S''
tbsg105
g2909
sasstbsg106
S')'
sbatba(lp2917
g17
(g18
(I0
tS'b'
tRp2918
((I1
(L4L
tg21
I00
(lp2919
g2673
ag2674
ag2675
ag2676
at(Nttba(dp2920
g96
(dp2921
g98
g2670
sg99
(lp2922
(dp2923
g102
g139
(I0
I4
I1
tRp2924
sg105
g2678
sasstbsg106
g2663
sbatba(lp2925
g17
(g18
(I0
tS'b'
tRp2926
((I1
(L1L
tg21
I00
(lp2927
g2663
at(Nttba(dp2928
g96
(dp2929
g98
g2660
sg99
(lp2930
(dp2931
g102
g139
(I0
I1
I1
tRp2932
sg105
g2665
sasstbsg106
g2653
sbatba(lp2933
g17
(g18
(I0
tS'b'
tRp2934
((I1
(L1L
tg21
I00
(lp2935
g2653
at(Nttba(dp2936
g96
(dp2937
g98
g2650
sg99
(lp2938
(dp2939
g102
g139
(I0
I1
I1
tRp2940
sg105
g2655
sasstbsg106
g2643
sbatba(lp2941
g17
(g18
(I0
tS'b'
tRp2942
((I1
(L1L
tg21
I00
(lp2943
g2643
at(Nttba(dp2944
g96
(dp2945
g98
g2640
sg99
(lp2946
(dp2947
g102
g139
(I0
I1
I1
tRp2948
sg105
g2645
sasstbsg106
g2633
sbatba(lp2949
g17
(g18
(I0
tS'b'
tRp2950
((I1
(L1L
tg21
I00
(lp2951
g2633
at(Nttba(dp2952
g96
(dp2953
g98
g2630
sg99
(lp2954
(dp2955
g102
g139
(I0
I1
I1
tRp2956
sg105
g2635
sasstbsg106
g2539
sbag1
(g10
g3
NtRp2957
(dp2958
g13
g1
(g14
g3
NtRp2959
((lp2960
g17
(g18
(I0
tS'b'
tRp2961
((I1
(L0L
tg21
I00
(lt(Nttba(lp2962
g17
(g25
(I0
tS'b'
tRp2963
(I1
(L0L
tg21
I00
(ltba(lp2964
g17
(g18
(I0
tS'b'
tRp2965
((I1
(L0L
tg21
I00
(lt(Nttba(dp2966
g96
(dp2967
g98
g2960
sg99
(lp2968
(dp2969
g102
g17
(g25
(I0
tS'b'
tRp2970
(I1
(L0L
tg104
I00
S''
tbsg105
g2963
sasstbsg106
S')'
sbatba(lp2971
g17
(g18
(I0
tS'b'
tRp2972
((I1
(L4L
tg21
I00
(lp2973
g2537
ag2538
ag2539
ag2540
at(Nttba(dp2974
g96
(dp2975
g98
g2534
sg99
(lp2976
(dp2977
g102
g139
(I0
I4
I1
tRp2978
sg105
g2542
sasstbsg106
g2527
sbatba(lp2979
g17
(g18
(I0
tS'b'
tRp2980
((I1
(L1L
tg21
I00
(lp2981
g2527
at(Nttba(dp2982
g96
(dp2983
g98
g2524
sg99
(lp2984
(dp2985
g102
g139
(I0
I1
I1
tRp2986
sg105
g2529
sasstbsg106
g2517
sbatba(lp2987
g17
(g18
(I0
tS'b'
tRp2988
((I1
(L1L
tg21
I00
(lp2989
g2517
at(Nttba(dp2990
g96
(dp2991
g98
g2514
sg99
(lp2992
(dp2993
g102
g139
(I0
I1
I1
tRp2994
sg105
g2519
sasstbsg106
g2409
sbatba(lp2995
g17
(g18
(I0
tS'b'
tRp2996
((I1
(L4L
tg21
I00
(lp2997
g2406
ag2407
ag2408
ag2409
at(Nttba(dp2998
g96
(dp2999
g98
g2403
sg99
(lp3000
(dp3001
g102
g139
(I0
I4
I1
tRp3002
sg105
g2411
sasstbsg106
g2396
sbatba(lp3003
g17
(g18
(I0
tS'b'
tRp3004
((I1
(L1L
tg21
I00
(lp3005
g2396
at(Nttba(dp3006
g96
(dp3007
g98
g2393
sg99
(lp3008
(dp3009
g102
g139
(I0
I1
I1
tRp3010
sg105
g2398
sasstbsg106
g2386
sbatba(lp3011
g17
(g18
(I0
tS'b'
tRp3012
((I1
(L1L
tg21
I00
(lp3013
g2386
at(Nttba(dp3014
g96
(dp3015
g98
g2383
sg99
(lp3016
(dp3017
g102
g139
(I0
I1
I1
tRp3018
sg105
g2388
sasstbsg106
g2375
sbag1
(g10
g3
NtRp3019
(dp3020
g13
g1
(g14
g3
NtRp3021
((lp3022
g17
(g18
(I0
tS'b'
tRp3023
((I1
(L3L
tg21
I00
(lp3024
S'Blockbegin'
p3025
aS'Prog'
p3026
aS'Blockend'
p3027
at(Nttba(lp3028
g17
(g25
(I0
tS'b'
tRp3029
(I1
(L3L
tg21
I00
(lp3030
g1
(g10
g3
NtRp3031
(dp3032
g13
g1
(g14
g3
NtRp3033
((lp3034
g17
(g18
(I0
tS'b'
tRp3035
((I1
(L1L
tg21
I00
(lp3036
S'_:$blockbegin_'
p3037
at(Nttba(lp3038
g17
(g25
(I0
tS'b'
tRp3039
(I1
(L1L
tg21
I00
(lp3040
g1
(g10
g3
NtRp3041
(dp3042
g13
g1
(g14
g3
NtRp3043
((lp3044
g17
(g18
(I0
tS'b'
tRp3045
((I1
(L0L
tg21
I00
(lt(Nttba(lp3046
g17
(g25
(I0
tS'b'
tRp3047
(I1
(L0L
tg21
I00
(ltba(lp3048
g17
(g18
(I0
tS'b'
tRp3049
((I1
(L0L
tg21
I00
(lt(Nttba(dp3050
g96
(dp3051
g98
g3044
sg99
(lp3052
(dp3053
g102
g17
(g25
(I0
tS'b'
tRp3054
(I1
(L0L
tg104
I00
S''
tbsg105
g3047
sasstbsg106
S':$blockbegin'
p3055
sbatba(lp3056
g17
(g18
(I0
tS'b'
tRp3057
((I1
(L1L
tg21
I00
(lp3058
g3037
at(Nttba(dp3059
g96
(dp3060
g98
g3034
sg99
(lp3061
(dp3062
g102
g139
(I0
I1
I1
tRp3063
sg105
g3039
sasstbsg106
g3025
sbag1
(g10
g3
NtRp3064
(dp3065
g13
g1
(g14
g3
NtRp3066
((lp3067
g17
(g18
(I0
tS'b'
tRp3068
((I1
(L1L
tg21
I00
(lp3069
S'Stmt'
p3070
at(Nttba(lp3071
g17
(g25
(I0
tS'b'
tRp3072
(I1
(L1L
tg21
I00
(lp3073
g1
(g10
g3
NtRp3074
(dp3075
g13
g1
(g14
g3
NtRp3076
((lp3077
g17
(g18
(I0
tS'b'
tRp3078
((I1
(L1L
tg21
I00
(lp3079
S'Block_stmt'
p3080
at(Nttba(lp3081
g17
(g25
(I0
tS'b'
tRp3082
(I1
(L1L
tg21
I00
(lp3083
g1
(g10
g3
NtRp3084
(dp3085
g13
g1
(g14
g3
NtRp3086
((lp3087
g17
(g18
(I0
tS'b'
tRp3088
((I1
(L1L
tg21
I00
(lp3089
S'Ifelse'
p3090
at(Nttba(lp3091
g17
(g25
(I0
tS'b'
tRp3092
(I1
(L1L
tg21
I00
(lp3093
g1
(g10
g3
NtRp3094
(dp3095
g13
g1
(g14
g3
NtRp3096
((lp3097
g17
(g18
(I0
tS'b'
tRp3098
((I1
(L4L
tg21
I00
(lp3099
S'If'
p3100
aS'Block1'
p3101
aS'Else'
p3102
aS'Block2'
p3103
at(Nttba(lp3104
g17
(g25
(I0
tS'b'
tRp3105
(I1
(L4L
tg21
I00
(lp3106
g1
(g10
g3
NtRp3107
(dp3108
g13
g1
(g14
g3
NtRp3109
((lp3110
g17
(g18
(I0
tS'b'
tRp3111
((I1
(L2L
tg21
I00
(lp3112
S'_if_'
p3113
aS'Expr'
p3114
at(Nttba(lp3115
g17
(g25
(I0
tS'b'
tRp3116
(I1
(L2L
tg21
I00
(lp3117
g1
(g10
g3
NtRp3118
(dp3119
g13
g1
(g14
g3
NtRp3120
((lp3121
g17
(g18
(I0
tS'b'
tRp3122
((I1
(L0L
tg21
I00
(lt(Nttba(lp3123
g17
(g25
(I0
tS'b'
tRp3124
(I1
(L0L
tg21
I00
(ltba(lp3125
g17
(g18
(I0
tS'b'
tRp3126
((I1
(L0L
tg21
I00
(lt(Nttba(dp3127
g96
(dp3128
g98
g3121
sg99
(lp3129
(dp3130
g102
g17
(g25
(I0
tS'b'
tRp3131
(I1
(L0L
tg104
I00
S''
tbsg105
g3124
sasstbsg106
S'if'
p3132
sbag1
(g10
g3
NtRp3133
(dp3134
g13
g1
(g14
g3
NtRp3135
((lp3136
g17
(g18
(I0
tS'b'
tRp3137
((I1
(L1L
tg21
I00
(lp3138
S'Comparison'
p3139
at(Nttba(lp3140
g17
(g25
(I0
tS'b'
tRp3141
(I1
(L1L
tg21
I00
(lp3142
g1
(g10
g3
NtRp3143
(dp3144
g13
g1
(g14
g3
NtRp3145
((lp3146
g17
(g18
(I0
tS'b'
tRp3147
((I1
(L3L
tg21
I00
(lp3148
S'Val_label1'
p3149
aS'Op_cmp'
p3150
aS'Val_label2'
p3151
at(Nttba(lp3152
g17
(g25
(I0
tS'b'
tRp3153
(I1
(L3L
tg21
I00
(lp3154
g1
(g10
g3
NtRp3155
(dp3156
g13
g1
(g14
g3
NtRp3157
((lp3158
g17
(g18
(I0
tS'b'
tRp3159
((I1
(L1L
tg21
I00
(lp3160
S'Val'
p3161
at(Nttba(lp3162
g17
(g25
(I0
tS'b'
tRp3163
(I1
(L1L
tg21
I00
(lp3164
g1
(g10
g3
NtRp3165
(dp3166
g13
g1
(g14
g3
NtRp3167
((lp3168
g17
(g18
(I0
tS'b'
tRp3169
((I1
(L1L
tg21
I00
(lp3170
S'Var'
p3171
at(Nttba(lp3172
g17
(g25
(I0
tS'b'
tRp3173
(I1
(L1L
tg21
I00
(lp3174
g1
(g10
g3
NtRp3175
(dp3176
g13
g1
(g14
g3
NtRp3177
((lp3178
g17
(g18
(I0
tS'b'
tRp3179
((I1
(L1L
tg21
I00
(lp3180
S'_i_'
p3181
at(Nttba(lp3182
g17
(g25
(I0
tS'b'
tRp3183
(I1
(L1L
tg21
I00
(lp3184
g1
(g10
g3
NtRp3185
(dp3186
g13
g1
(g14
g3
NtRp3187
((lp3188
g17
(g18
(I0
tS'b'
tRp3189
((I1
(L0L
tg21
I00
(lt(Nttba(lp3190
g17
(g25
(I0
tS'b'
tRp3191
(I1
(L0L
tg21
I00
(ltba(lp3192
g17
(g18
(I0
tS'b'
tRp3193
((I1
(L0L
tg21
I00
(lt(Nttba(dp3194
g96
(dp3195
g98
g3188
sg99
(lp3196
(dp3197
g102
g17
(g25
(I0
tS'b'
tRp3198
(I1
(L0L
tg104
I00
S''
tbsg105
g3191
sasstbsg106
S'i'
sbatba(lp3199
g17
(g18
(I0
tS'b'
tRp3200
((I1
(L1L
tg21
I00
(lp3201
g3181
at(Nttba(dp3202
g96
(dp3203
g98
g3178
sg99
(lp3204
(dp3205
g102
g139
(I0
I1
I1
tRp3206
sg105
g3183
sasstbsg106
g3171
sbatba(lp3207
g17
(g18
(I0
tS'b'
tRp3208
((I1
(L1L
tg21
I00
(lp3209
g3171
at(Nttba(dp3210
g96
(dp3211
g98
g3168
sg99
(lp3212
(dp3213
g102
g139
(I0
I1
I1
tRp3214
sg105
g3173
sasstbsg106
g3161
sbatba(lp3215
g17
(g18
(I0
tS'b'
tRp3216
((I1
(L1L
tg21
I00
(lp3217
g3161
at(Nttba(dp3218
g96
(dp3219
g98
g3158
sg99
(lp3220
(dp3221
g102
g139
(I0
I1
I1
tRp3222
sg105
g3163
sasstbsg106
S'Val_label'
p3223
sbag1
(g10
g3
NtRp3224
(dp3225
g13
g1
(g14
g3
NtRp3226
((lp3227
g17
(g18
(I0
tS'b'
tRp3228
((I1
(L1L
tg21
I00
(lp3229
S'_>_'
p3230
at(Nttba(lp3231
g17
(g25
(I0
tS'b'
tRp3232
(I1
(L1L
tg21
I00
(lp3233
g1
(g10
g3
NtRp3234
(dp3235
g13
g1
(g14
g3
NtRp3236
((lp3237
g17
(g18
(I0
tS'b'
tRp3238
((I1
(L0L
tg21
I00
(lt(Nttba(lp3239
g17
(g25
(I0
tS'b'
tRp3240
(I1
(L0L
tg21
I00
(ltba(lp3241
g17
(g18
(I0
tS'b'
tRp3242
((I1
(L0L
tg21
I00
(lt(Nttba(dp3243
g96
(dp3244
g98
g3237
sg99
(lp3245
(dp3246
g102
g17
(g25
(I0
tS'b'
tRp3247
(I1
(L0L
tg104
I00
S''
tbsg105
g3240
sasstbsg106
S'>'
sbatba(lp3248
g17
(g18
(I0
tS'b'
tRp3249
((I1
(L1L
tg21
I00
(lp3250
g3230
at(Nttba(dp3251
g96
(dp3252
g98
g3227
sg99
(lp3253
(dp3254
g102
g139
(I0
I1
I1
tRp3255
sg105
g3232
sasstbsg106
g3150
sbag1
(g10
g3
NtRp3256
(dp3257
g13
g1
(g14
g3
NtRp3258
((lp3259
g17
(g18
(I0
tS'b'
tRp3260
((I1
(L1L
tg21
I00
(lp3261
S'Val'
p3262
at(Nttba(lp3263
g17
(g25
(I0
tS'b'
tRp3264
(I1
(L1L
tg21
I00
(lp3265
g1
(g10
g3
NtRp3266
(dp3267
g13
g1
(g14
g3
NtRp3268
((lp3269
g17
(g18
(I0
tS'b'
tRp3270
((I1
(L1L
tg21
I00
(lp3271
S'Number'
p3272
at(Nttba(lp3273
g17
(g25
(I0
tS'b'
tRp3274
(I1
(L1L
tg21
I00
(lp3275
g1
(g10
g3
NtRp3276
(dp3277
g13
g1
(g14
g3
NtRp3278
((lp3279
g17
(g18
(I0
tS'b'
tRp3280
((I1
(L1L
tg21
I00
(lp3281
S'Int'
p3282
at(Nttba(lp3283
g17
(g25
(I0
tS'b'
tRp3284
(I1
(L1L
tg21
I00
(lp3285
g1
(g10
g3
NtRp3286
(dp3287
g13
g1
(g14
g3
NtRp3288
((lp3289
g17
(g18
(I0
tS'b'
tRp3290
((I1
(L1L
tg21
I00
(lp3291
S'_3_'
p3292
at(Nttba(lp3293
g17
(g25
(I0
tS'b'
tRp3294
(I1
(L1L
tg21
I00
(lp3295
g1
(g10
g3
NtRp3296
(dp3297
g13
g1
(g14
g3
NtRp3298
((lp3299
g17
(g18
(I0
tS'b'
tRp3300
((I1
(L0L
tg21
I00
(lt(Nttba(lp3301
g17
(g25
(I0
tS'b'
tRp3302
(I1
(L0L
tg21
I00
(ltba(lp3303
g17
(g18
(I0
tS'b'
tRp3304
((I1
(L0L
tg21
I00
(lt(Nttba(dp3305
g96
(dp3306
g98
g3299
sg99
(lp3307
(dp3308
g102
g17
(g25
(I0
tS'b'
tRp3309
(I1
(L0L
tg104
I00
S''
tbsg105
g3302
sasstbsg106
S'3'
sbatba(lp3310
g17
(g18
(I0
tS'b'
tRp3311
((I1
(L1L
tg21
I00
(lp3312
g3292
at(Nttba(dp3313
g96
(dp3314
g98
g3289
sg99
(lp3315
(dp3316
g102
g139
(I0
I1
I1
tRp3317
sg105
g3294
sasstbsg106
g3282
sbatba(lp3318
g17
(g18
(I0
tS'b'
tRp3319
((I1
(L1L
tg21
I00
(lp3320
g3282
at(Nttba(dp3321
g96
(dp3322
g98
g3279
sg99
(lp3323
(dp3324
g102
g139
(I0
I1
I1
tRp3325
sg105
g3284
sasstbsg106
g3272
sbatba(lp3326
g17
(g18
(I0
tS'b'
tRp3327
((I1
(L1L
tg21
I00
(lp3328
g3272
at(Nttba(dp3329
g96
(dp3330
g98
g3269
sg99
(lp3331
(dp3332
g102
g139
(I0
I1
I1
tRp3333
sg105
g3274
sasstbsg106
g3262
sbatba(lp3334
g17
(g18
(I0
tS'b'
tRp3335
((I1
(L1L
tg21
I00
(lp3336
g3262
at(Nttba(dp3337
g96
(dp3338
g98
g3259
sg99
(lp3339
(dp3340
g102
g139
(I0
I1
I1
tRp3341
sg105
g3264
sasstbsg106
S'Val_label'
p3342
sbatba(lp3343
g17
(g18
(I0
tS'b'
tRp3344
((I1
(L3L
tg21
I00
(lp3345
g3149
ag3150
ag3151
at(Nttba(dp3346
g96
(dp3347
g98
g3146
sg99
(lp3348
(dp3349
g102
g139
(I0
I3
I1
tRp3350
sg105
g3153
sasstbsg106
g3139
sbatba(lp3351
g17
(g18
(I0
tS'b'
tRp3352
((I1
(L1L
tg21
I00
(lp3353
g3139
at(Nttba(dp3354
g96
(dp3355
g98
g3136
sg99
(lp3356
(dp3357
g102
g139
(I0
I1
I1
tRp3358
sg105
g3141
sasstbsg106
g3114
sbatba(lp3359
g17
(g18
(I0
tS'b'
tRp3360
((I1
(L2L
tg21
I00
(lp3361
g3113
ag3114
at(Nttba(dp3362
g96
(dp3363
g98
g3110
sg99
(lp3364
(dp3365
g102
g139
(I0
I2
I1
tRp3366
sg105
g3116
sasstbsg106
g3100
sbag1
(g10
g3
NtRp3367
(dp3368
g13
g1
(g14
g3
NtRp3369
((lp3370
g17
(g18
(I0
tS'b'
tRp3371
((I1
(L3L
tg21
I00
(lp3372
S'Blockbegin'
p3373
aS'Prog'
p3374
aS'Blockend'
p3375
at(Nttba(lp3376
g17
(g25
(I0
tS'b'
tRp3377
(I1
(L3L
tg21
I00
(lp3378
g1
(g10
g3
NtRp3379
(dp3380
g13
g1
(g14
g3
NtRp3381
((lp3382
g17
(g18
(I0
tS'b'
tRp3383
((I1
(L1L
tg21
I00
(lp3384
S'_:$blockbegin_'
p3385
at(Nttba(lp3386
g17
(g25
(I0
tS'b'
tRp3387
(I1
(L1L
tg21
I00
(lp3388
g1
(g10
g3
NtRp3389
(dp3390
g13
g1
(g14
g3
NtRp3391
((lp3392
g17
(g18
(I0
tS'b'
tRp3393
((I1
(L0L
tg21
I00
(lt(Nttba(lp3394
g17
(g25
(I0
tS'b'
tRp3395
(I1
(L0L
tg21
I00
(ltba(lp3396
g17
(g18
(I0
tS'b'
tRp3397
((I1
(L0L
tg21
I00
(lt(Nttba(dp3398
g96
(dp3399
g98
g3392
sg99
(lp3400
(dp3401
g102
g17
(g25
(I0
tS'b'
tRp3402
(I1
(L0L
tg104
I00
S''
tbsg105
g3395
sasstbsg106
S':$blockbegin'
p3403
sbatba(lp3404
g17
(g18
(I0
tS'b'
tRp3405
((I1
(L1L
tg21
I00
(lp3406
g3385
at(Nttba(dp3407
g96
(dp3408
g98
g3382
sg99
(lp3409
(dp3410
g102
g139
(I0
I1
I1
tRp3411
sg105
g3387
sasstbsg106
g3373
sbag1
(g10
g3
NtRp3412
(dp3413
g13
g1
(g14
g3
NtRp3414
((lp3415
g17
(g18
(I0
tS'b'
tRp3416
((I1
(L1L
tg21
I00
(lp3417
S'Stmt'
p3418
at(Nttba(lp3419
g17
(g25
(I0
tS'b'
tRp3420
(I1
(L1L
tg21
I00
(lp3421
g1
(g10
g3
NtRp3422
(dp3423
g13
g1
(g14
g3
NtRp3424
((lp3425
g17
(g18
(I0
tS'b'
tRp3426
((I1
(L1L
tg21
I00
(lp3427
S'Single_stmt'
p3428
at(Nttba(lp3429
g17
(g25
(I0
tS'b'
tRp3430
(I1
(L1L
tg21
I00
(lp3431
g1
(g10
g3
NtRp3432
(dp3433
g13
g1
(g14
g3
NtRp3434
((lp3435
g17
(g18
(I0
tS'b'
tRp3436
((I1
(L2L
tg21
I00
(lp3437
S'Assign_stmt'
p3438
aS'_;_'
p3439
at(Nttba(lp3440
g17
(g25
(I0
tS'b'
tRp3441
(I1
(L2L
tg21
I00
(lp3442
g1
(g10
g3
NtRp3443
(dp3444
g13
g1
(g14
g3
NtRp3445
((lp3446
g17
(g18
(I0
tS'b'
tRp3447
((I1
(L1L
tg21
I00
(lp3448
S'Assign'
p3449
at(Nttba(lp3450
g17
(g25
(I0
tS'b'
tRp3451
(I1
(L1L
tg21
I00
(lp3452
g1
(g10
g3
NtRp3453
(dp3454
g13
g1
(g14
g3
NtRp3455
((lp3456
g17
(g18
(I0
tS'b'
tRp3457
((I1
(L3L
tg21
I00
(lp3458
S'Varlist'
p3459
aS'_=_'
p3460
aS'Exprlist'
p3461
at(Nttba(lp3462
g17
(g25
(I0
tS'b'
tRp3463
(I1
(L3L
tg21
I00
(lp3464
g1
(g10
g3
NtRp3465
(dp3466
g13
g1
(g14
g3
NtRp3467
((lp3468
g17
(g18
(I0
tS'b'
tRp3469
((I1
(L1L
tg21
I00
(lp3470
S'Vartuple'
p3471
at(Nttba(lp3472
g17
(g25
(I0
tS'b'
tRp3473
(I1
(L1L
tg21
I00
(lp3474
g1
(g10
g3
NtRp3475
(dp3476
g13
g1
(g14
g3
NtRp3477
((lp3478
g17
(g18
(I0
tS'b'
tRp3479
((I1
(L1L
tg21
I00
(lp3480
S'Var'
p3481
at(Nttba(lp3482
g17
(g25
(I0
tS'b'
tRp3483
(I1
(L1L
tg21
I00
(lp3484
g1
(g10
g3
NtRp3485
(dp3486
g13
g1
(g14
g3
NtRp3487
((lp3488
g17
(g18
(I0
tS'b'
tRp3489
((I1
(L4L
tg21
I00
(lp3490
S'Var'
p3491
aS'_[_'
p3492
aS'Slice'
p3493
aS'_]_'
p3494
at(Nttba(lp3495
g17
(g25
(I0
tS'b'
tRp3496
(I1
(L4L
tg21
I00
(lp3497
g1
(g10
g3
NtRp3498
(dp3499
g13
g1
(g14
g3
NtRp3500
((lp3501
g17
(g18
(I0
tS'b'
tRp3502
((I1
(L1L
tg21
I00
(lp3503
S'_L_'
p3504
at(Nttba(lp3505
g17
(g25
(I0
tS'b'
tRp3506
(I1
(L1L
tg21
I00
(lp3507
g1
(g10
g3
NtRp3508
(dp3509
g13
g1
(g14
g3
NtRp3510
((lp3511
g17
(g18
(I0
tS'b'
tRp3512
((I1
(L0L
tg21
I00
(lt(Nttba(lp3513
g17
(g25
(I0
tS'b'
tRp3514
(I1
(L0L
tg21
I00
(ltba(lp3515
g17
(g18
(I0
tS'b'
tRp3516
((I1
(L0L
tg21
I00
(lt(Nttba(dp3517
g96
(dp3518
g98
g3511
sg99
(lp3519
(dp3520
g102
g17
(g25
(I0
tS'b'
tRp3521
(I1
(L0L
tg104
I00
S''
tbsg105
g3514
sasstbsg106
S'L'
sbatba(lp3522
g17
(g18
(I0
tS'b'
tRp3523
((I1
(L1L
tg21
I00
(lp3524
g3504
at(Nttba(dp3525
g96
(dp3526
g98
g3501
sg99
(lp3527
(dp3528
g102
g139
(I0
I1
I1
tRp3529
sg105
g3506
sasstbsg106
g3491
sbag1
(g10
g3
NtRp3530
(dp3531
g13
g1
(g14
g3
NtRp3532
((lp3533
g17
(g18
(I0
tS'b'
tRp3534
((I1
(L0L
tg21
I00
(lt(Nttba(lp3535
g17
(g25
(I0
tS'b'
tRp3536
(I1
(L0L
tg21
I00
(ltba(lp3537
g17
(g18
(I0
tS'b'
tRp3538
((I1
(L0L
tg21
I00
(lt(Nttba(dp3539
g96
(dp3540
g98
g3533
sg99
(lp3541
(dp3542
g102
g17
(g25
(I0
tS'b'
tRp3543
(I1
(L0L
tg104
I00
S''
tbsg105
g3536
sasstbsg106
S'['
sbag1
(g10
g3
NtRp3544
(dp3545
g13
g1
(g14
g3
NtRp3546
((lp3547
g17
(g18
(I0
tS'b'
tRp3548
((I1
(L1L
tg21
I00
(lp3549
S'Expr'
p3550
at(Nttba(lp3551
g17
(g25
(I0
tS'b'
tRp3552
(I1
(L1L
tg21
I00
(lp3553
g1
(g10
g3
NtRp3554
(dp3555
g13
g1
(g14
g3
NtRp3556
((lp3557
g17
(g18
(I0
tS'b'
tRp3558
((I1
(L1L
tg21
I00
(lp3559
S'Val_label'
p3560
at(Nttba(lp3561
g17
(g25
(I0
tS'b'
tRp3562
(I1
(L1L
tg21
I00
(lp3563
g1
(g10
g3
NtRp3564
(dp3565
g13
g1
(g14
g3
NtRp3566
((lp3567
g17
(g18
(I0
tS'b'
tRp3568
((I1
(L1L
tg21
I00
(lp3569
S'Val'
p3570
at(Nttba(lp3571
g17
(g25
(I0
tS'b'
tRp3572
(I1
(L1L
tg21
I00
(lp3573
g1
(g10
g3
NtRp3574
(dp3575
g13
g1
(g14
g3
NtRp3576
((lp3577
g17
(g18
(I0
tS'b'
tRp3578
((I1
(L1L
tg21
I00
(lp3579
S'Var'
p3580
at(Nttba(lp3581
g17
(g25
(I0
tS'b'
tRp3582
(I1
(L1L
tg21
I00
(lp3583
g1
(g10
g3
NtRp3584
(dp3585
g13
g1
(g14
g3
NtRp3586
((lp3587
g17
(g18
(I0
tS'b'
tRp3588
((I1
(L1L
tg21
I00
(lp3589
S'_i_'
p3590
at(Nttba(lp3591
g17
(g25
(I0
tS'b'
tRp3592
(I1
(L1L
tg21
I00
(lp3593
g1
(g10
g3
NtRp3594
(dp3595
g13
g1
(g14
g3
NtRp3596
((lp3597
g17
(g18
(I0
tS'b'
tRp3598
((I1
(L0L
tg21
I00
(lt(Nttba(lp3599
g17
(g25
(I0
tS'b'
tRp3600
(I1
(L0L
tg21
I00
(ltba(lp3601
g17
(g18
(I0
tS'b'
tRp3602
((I1
(L0L
tg21
I00
(lt(Nttba(dp3603
g96
(dp3604
g98
g3597
sg99
(lp3605
(dp3606
g102
g17
(g25
(I0
tS'b'
tRp3607
(I1
(L0L
tg104
I00
S''
tbsg105
g3600
sasstbsg106
S'i'
sbatba(lp3608
g17
(g18
(I0
tS'b'
tRp3609
((I1
(L1L
tg21
I00
(lp3610
g3590
at(Nttba(dp3611
g96
(dp3612
g98
g3587
sg99
(lp3613
(dp3614
g102
g139
(I0
I1
I1
tRp3615
sg105
g3592
sasstbsg106
g3580
sbatba(lp3616
g17
(g18
(I0
tS'b'
tRp3617
((I1
(L1L
tg21
I00
(lp3618
g3580
at(Nttba(dp3619
g96
(dp3620
g98
g3577
sg99
(lp3621
(dp3622
g102
g139
(I0
I1
I1
tRp3623
sg105
g3582
sasstbsg106
g3570
sbatba(lp3624
g17
(g18
(I0
tS'b'
tRp3625
((I1
(L1L
tg21
I00
(lp3626
g3570
at(Nttba(dp3627
g96
(dp3628
g98
g3567
sg99
(lp3629
(dp3630
g102
g139
(I0
I1
I1
tRp3631
sg105
g3572
sasstbsg106
g3560
sbatba(lp3632
g17
(g18
(I0
tS'b'
tRp3633
((I1
(L1L
tg21
I00
(lp3634
g3560
at(Nttba(dp3635
g96
(dp3636
g98
g3557
sg99
(lp3637
(dp3638
g102
g139
(I0
I1
I1
tRp3639
sg105
g3562
sasstbsg106
g3550
sbatba(lp3640
g17
(g18
(I0
tS'b'
tRp3641
((I1
(L1L
tg21
I00
(lp3642
g3550
at(Nttba(dp3643
g96
(dp3644
g98
g3547
sg99
(lp3645
(dp3646
g102
g139
(I0
I1
I1
tRp3647
sg105
g3552
sasstbsg106
g3493
sbag1
(g10
g3
NtRp3648
(dp3649
g13
g1
(g14
g3
NtRp3650
((lp3651
g17
(g18
(I0
tS'b'
tRp3652
((I1
(L0L
tg21
I00
(lt(Nttba(lp3653
g17
(g25
(I0
tS'b'
tRp3654
(I1
(L0L
tg21
I00
(ltba(lp3655
g17
(g18
(I0
tS'b'
tRp3656
((I1
(L0L
tg21
I00
(lt(Nttba(dp3657
g96
(dp3658
g98
g3651
sg99
(lp3659
(dp3660
g102
g17
(g25
(I0
tS'b'
tRp3661
(I1
(L0L
tg104
I00
S''
tbsg105
g3654
sasstbsg106
S']'
sbatba(lp3662
g17
(g18
(I0
tS'b'
tRp3663
((I1
(L4L
tg21
I00
(lp3664
g3491
ag3492
ag3493
ag3494
at(Nttba(dp3665
g96
(dp3666
g98
g3488
sg99
(lp3667
(dp3668
g102
g139
(I0
I4
I1
tRp3669
sg105
g3496
sasstbsg106
g3481
sbatba(lp3670
g17
(g18
(I0
tS'b'
tRp3671
((I1
(L1L
tg21
I00
(lp3672
g3481
at(Nttba(dp3673
g96
(dp3674
g98
g3478
sg99
(lp3675
(dp3676
g102
g139
(I0
I1
I1
tRp3677
sg105
g3483
sasstbsg106
g3471
sbatba(lp3678
g17
(g18
(I0
tS'b'
tRp3679
((I1
(L1L
tg21
I00
(lp3680
g3471
at(Nttba(dp3681
g96
(dp3682
g98
g3468
sg99
(lp3683
(dp3684
g102
g139
(I0
I1
I1
tRp3685
sg105
g3473
sasstbsg106
g3459
sbag1
(g10
g3
NtRp3686
(dp3687
g13
g1
(g14
g3
NtRp3688
((lp3689
g17
(g18
(I0
tS'b'
tRp3690
((I1
(L0L
tg21
I00
(lt(Nttba(lp3691
g17
(g25
(I0
tS'b'
tRp3692
(I1
(L0L
tg21
I00
(ltba(lp3693
g17
(g18
(I0
tS'b'
tRp3694
((I1
(L0L
tg21
I00
(lt(Nttba(dp3695
g96
(dp3696
g98
g3689
sg99
(lp3697
(dp3698
g102
g17
(g25
(I0
tS'b'
tRp3699
(I1
(L0L
tg104
I00
S''
tbsg105
g3692
sasstbsg106
S'='
sbag1
(g10
g3
NtRp3700
(dp3701
g13
g1
(g14
g3
NtRp3702
((lp3703
g17
(g18
(I0
tS'b'
tRp3704
((I1
(L1L
tg21
I00
(lp3705
S'Expr'
p3706
at(Nttba(lp3707
g17
(g25
(I0
tS'b'
tRp3708
(I1
(L1L
tg21
I00
(lp3709
g1
(g10
g3
NtRp3710
(dp3711
g13
g1
(g14
g3
NtRp3712
((lp3713
g17
(g18
(I0
tS'b'
tRp3714
((I1
(L1L
tg21
I00
(lp3715
S'Funccall'
p3716
at(Nttba(lp3717
g17
(g25
(I0
tS'b'
tRp3718
(I1
(L1L
tg21
I00
(lp3719
g1
(g10
g3
NtRp3720
(dp3721
g13
g1
(g14
g3
NtRp3722
((lp3723
g17
(g18
(I0
tS'b'
tRp3724
((I1
(L4L
tg21
I00
(lp3725
S'Val_label'
p3726
aS'_(_'
p3727
aS'Arglist'
p3728
aS'_)_'
p3729
at(Nttba(lp3730
g17
(g25
(I0
tS'b'
tRp3731
(I1
(L4L
tg21
I00
(lp3732
g1
(g10
g3
NtRp3733
(dp3734
g13
g1
(g14
g3
NtRp3735
((lp3736
g17
(g18
(I0
tS'b'
tRp3737
((I1
(L1L
tg21
I00
(lp3738
S'Val'
p3739
at(Nttba(lp3740
g17
(g25
(I0
tS'b'
tRp3741
(I1
(L1L
tg21
I00
(lp3742
g1
(g10
g3
NtRp3743
(dp3744
g13
g1
(g14
g3
NtRp3745
((lp3746
g17
(g18
(I0
tS'b'
tRp3747
((I1
(L1L
tg21
I00
(lp3748
S'Var'
p3749
at(Nttba(lp3750
g17
(g25
(I0
tS'b'
tRp3751
(I1
(L1L
tg21
I00
(lp3752
g1
(g10
g3
NtRp3753
(dp3754
g13
g1
(g14
g3
NtRp3755
((lp3756
g17
(g18
(I0
tS'b'
tRp3757
((I1
(L1L
tg21
I00
(lp3758
S'_f_'
p3759
at(Nttba(lp3760
g17
(g25
(I0
tS'b'
tRp3761
(I1
(L1L
tg21
I00
(lp3762
g1
(g10
g3
NtRp3763
(dp3764
g13
g1
(g14
g3
NtRp3765
((lp3766
g17
(g18
(I0
tS'b'
tRp3767
((I1
(L0L
tg21
I00
(lt(Nttba(lp3768
g17
(g25
(I0
tS'b'
tRp3769
(I1
(L0L
tg21
I00
(ltba(lp3770
g17
(g18
(I0
tS'b'
tRp3771
((I1
(L0L
tg21
I00
(lt(Nttba(dp3772
g96
(dp3773
g98
g3766
sg99
(lp3774
(dp3775
g102
g17
(g25
(I0
tS'b'
tRp3776
(I1
(L0L
tg104
I00
S''
tbsg105
g3769
sasstbsg106
S'f'
sbatba(lp3777
g17
(g18
(I0
tS'b'
tRp3778
((I1
(L1L
tg21
I00
(lp3779
g3759
at(Nttba(dp3780
g96
(dp3781
g98
g3756
sg99
(lp3782
(dp3783
g102
g139
(I0
I1
I1
tRp3784
sg105
g3761
sasstbsg106
g3749
sbatba(lp3785
g17
(g18
(I0
tS'b'
tRp3786
((I1
(L1L
tg21
I00
(lp3787
g3749
at(Nttba(dp3788
g96
(dp3789
g98
g3746
sg99
(lp3790
(dp3791
g102
g139
(I0
I1
I1
tRp3792
sg105
g3751
sasstbsg106
g3739
sbatba(lp3793
g17
(g18
(I0
tS'b'
tRp3794
((I1
(L1L
tg21
I00
(lp3795
g3739
at(Nttba(dp3796
g96
(dp3797
g98
g3736
sg99
(lp3798
(dp3799
g102
g139
(I0
I1
I1
tRp3800
sg105
g3741
sasstbsg106
g3726
sbag1
(g10
g3
NtRp3801
(dp3802
g13
g1
(g14
g3
NtRp3803
((lp3804
g17
(g18
(I0
tS'b'
tRp3805
((I1
(L0L
tg21
I00
(lt(Nttba(lp3806
g17
(g25
(I0
tS'b'
tRp3807
(I1
(L0L
tg21
I00
(ltba(lp3808
g17
(g18
(I0
tS'b'
tRp3809
((I1
(L0L
tg21
I00
(lt(Nttba(dp3810
g96
(dp3811
g98
g3804
sg99
(lp3812
(dp3813
g102
g17
(g25
(I0
tS'b'
tRp3814
(I1
(L0L
tg104
I00
S''
tbsg105
g3807
sasstbsg106
S'('
sbag1
(g10
g3
NtRp3815
(dp3816
g13
g1
(g14
g3
NtRp3817
((lp3818
g17
(g18
(I0
tS'b'
tRp3819
((I1
(L1L
tg21
I00
(lp3820
S'Pos_arglist'
p3821
at(Nttba(lp3822
g17
(g25
(I0
tS'b'
tRp3823
(I1
(L1L
tg21
I00
(lp3824
g1
(g10
g3
NtRp3825
(dp3826
g13
g1
(g14
g3
NtRp3827
((lp3828
g17
(g18
(I0
tS'b'
tRp3829
((I1
(L1L
tg21
I00
(lp3830
S'Pos_arg'
p3831
at(Nttba(lp3832
g17
(g25
(I0
tS'b'
tRp3833
(I1
(L1L
tg21
I00
(lp3834
g1
(g10
g3
NtRp3835
(dp3836
g13
g1
(g14
g3
NtRp3837
((lp3838
g17
(g18
(I0
tS'b'
tRp3839
((I1
(L1L
tg21
I00
(lp3840
S'Expr'
p3841
at(Nttba(lp3842
g17
(g25
(I0
tS'b'
tRp3843
(I1
(L1L
tg21
I00
(lp3844
g1
(g10
g3
NtRp3845
(dp3846
g13
g1
(g14
g3
NtRp3847
((lp3848
g17
(g18
(I0
tS'b'
tRp3849
((I1
(L1L
tg21
I00
(lp3850
S'Dash_calc'
p3851
at(Nttba(lp3852
g17
(g25
(I0
tS'b'
tRp3853
(I1
(L1L
tg21
I00
(lp3854
g1
(g10
g3
NtRp3855
(dp3856
g13
g1
(g14
g3
NtRp3857
((lp3858
g17
(g18
(I0
tS'b'
tRp3859
((I1
(L3L
tg21
I00
(lp3860
S'Val_label1'
p3861
aS'_+_'
p3862
aS'Val_label2'
p3863
at(Nttba(lp3864
g17
(g25
(I0
tS'b'
tRp3865
(I1
(L3L
tg21
I00
(lp3866
g1
(g10
g3
NtRp3867
(dp3868
g13
g1
(g14
g3
NtRp3869
((lp3870
g17
(g18
(I0
tS'b'
tRp3871
((I1
(L1L
tg21
I00
(lp3872
S'Val'
p3873
at(Nttba(lp3874
g17
(g25
(I0
tS'b'
tRp3875
(I1
(L1L
tg21
I00
(lp3876
g1
(g10
g3
NtRp3877
(dp3878
g13
g1
(g14
g3
NtRp3879
((lp3880
g17
(g18
(I0
tS'b'
tRp3881
((I1
(L1L
tg21
I00
(lp3882
S'Var'
p3883
at(Nttba(lp3884
g17
(g25
(I0
tS'b'
tRp3885
(I1
(L1L
tg21
I00
(lp3886
g1
(g10
g3
NtRp3887
(dp3888
g13
g1
(g14
g3
NtRp3889
((lp3890
g17
(g18
(I0
tS'b'
tRp3891
((I1
(L1L
tg21
I00
(lp3892
S'_i_'
p3893
at(Nttba(lp3894
g17
(g25
(I0
tS'b'
tRp3895
(I1
(L1L
tg21
I00
(lp3896
g1
(g10
g3
NtRp3897
(dp3898
g13
g1
(g14
g3
NtRp3899
((lp3900
g17
(g18
(I0
tS'b'
tRp3901
((I1
(L0L
tg21
I00
(lt(Nttba(lp3902
g17
(g25
(I0
tS'b'
tRp3903
(I1
(L0L
tg21
I00
(ltba(lp3904
g17
(g18
(I0
tS'b'
tRp3905
((I1
(L0L
tg21
I00
(lt(Nttba(dp3906
g96
(dp3907
g98
g3900
sg99
(lp3908
(dp3909
g102
g17
(g25
(I0
tS'b'
tRp3910
(I1
(L0L
tg104
I00
S''
tbsg105
g3903
sasstbsg106
S'i'
sbatba(lp3911
g17
(g18
(I0
tS'b'
tRp3912
((I1
(L1L
tg21
I00
(lp3913
g3893
at(Nttba(dp3914
g96
(dp3915
g98
g3890
sg99
(lp3916
(dp3917
g102
g139
(I0
I1
I1
tRp3918
sg105
g3895
sasstbsg106
g3883
sbatba(lp3919
g17
(g18
(I0
tS'b'
tRp3920
((I1
(L1L
tg21
I00
(lp3921
g3883
at(Nttba(dp3922
g96
(dp3923
g98
g3880
sg99
(lp3924
(dp3925
g102
g139
(I0
I1
I1
tRp3926
sg105
g3885
sasstbsg106
g3873
sbatba(lp3927
g17
(g18
(I0
tS'b'
tRp3928
((I1
(L1L
tg21
I00
(lp3929
g3873
at(Nttba(dp3930
g96
(dp3931
g98
g3870
sg99
(lp3932
(dp3933
g102
g139
(I0
I1
I1
tRp3934
sg105
g3875
sasstbsg106
S'Val_label'
p3935
sbag1
(g10
g3
NtRp3936
(dp3937
g13
g1
(g14
g3
NtRp3938
((lp3939
g17
(g18
(I0
tS'b'
tRp3940
((I1
(L0L
tg21
I00
(lt(Nttba(lp3941
g17
(g25
(I0
tS'b'
tRp3942
(I1
(L0L
tg21
I00
(ltba(lp3943
g17
(g18
(I0
tS'b'
tRp3944
((I1
(L0L
tg21
I00
(lt(Nttba(dp3945
g96
(dp3946
g98
g3939
sg99
(lp3947
(dp3948
g102
g17
(g25
(I0
tS'b'
tRp3949
(I1
(L0L
tg104
I00
S''
tbsg105
g3942
sasstbsg106
S'+'
sbag1
(g10
g3
NtRp3950
(dp3951
g13
g1
(g14
g3
NtRp3952
((lp3953
g17
(g18
(I0
tS'b'
tRp3954
((I1
(L1L
tg21
I00
(lp3955
S'Val'
p3956
at(Nttba(lp3957
g17
(g25
(I0
tS'b'
tRp3958
(I1
(L1L
tg21
I00
(lp3959
g1
(g10
g3
NtRp3960
(dp3961
g13
g1
(g14
g3
NtRp3962
((lp3963
g17
(g18
(I0
tS'b'
tRp3964
((I1
(L1L
tg21
I00
(lp3965
S'Number'
p3966
at(Nttba(lp3967
g17
(g25
(I0
tS'b'
tRp3968
(I1
(L1L
tg21
I00
(lp3969
g1
(g10
g3
NtRp3970
(dp3971
g13
g1
(g14
g3
NtRp3972
((lp3973
g17
(g18
(I0
tS'b'
tRp3974
((I1
(L1L
tg21
I00
(lp3975
S'Int'
p3976
at(Nttba(lp3977
g17
(g25
(I0
tS'b'
tRp3978
(I1
(L1L
tg21
I00
(lp3979
g1
(g10
g3
NtRp3980
(dp3981
g13
g1
(g14
g3
NtRp3982
((lp3983
g17
(g18
(I0
tS'b'
tRp3984
((I1
(L1L
tg21
I00
(lp3985
S'_1_'
p3986
at(Nttba(lp3987
g17
(g25
(I0
tS'b'
tRp3988
(I1
(L1L
tg21
I00
(lp3989
g1
(g10
g3
NtRp3990
(dp3991
g13
g1
(g14
g3
NtRp3992
((lp3993
g17
(g18
(I0
tS'b'
tRp3994
((I1
(L0L
tg21
I00
(lt(Nttba(lp3995
g17
(g25
(I0
tS'b'
tRp3996
(I1
(L0L
tg21
I00
(ltba(lp3997
g17
(g18
(I0
tS'b'
tRp3998
((I1
(L0L
tg21
I00
(lt(Nttba(dp3999
g96
(dp4000
g98
g3993
sg99
(lp4001
(dp4002
g102
g17
(g25
(I0
tS'b'
tRp4003
(I1
(L0L
tg104
I00
S''
tbsg105
g3996
sasstbsg106
S'1'
sbatba(lp4004
g17
(g18
(I0
tS'b'
tRp4005
((I1
(L1L
tg21
I00
(lp4006
g3986
at(Nttba(dp4007
g96
(dp4008
g98
g3983
sg99
(lp4009
(dp4010
g102
g139
(I0
I1
I1
tRp4011
sg105
g3988
sasstbsg106
g3976
sbatba(lp4012
g17
(g18
(I0
tS'b'
tRp4013
((I1
(L1L
tg21
I00
(lp4014
g3976
at(Nttba(dp4015
g96
(dp4016
g98
g3973
sg99
(lp4017
(dp4018
g102
g139
(I0
I1
I1
tRp4019
sg105
g3978
sasstbsg106
g3966
sbatba(lp4020
g17
(g18
(I0
tS'b'
tRp4021
((I1
(L1L
tg21
I00
(lp4022
g3966
at(Nttba(dp4023
g96
(dp4024
g98
g3963
sg99
(lp4025
(dp4026
g102
g139
(I0
I1
I1
tRp4027
sg105
g3968
sasstbsg106
g3956
sbatba(lp4028
g17
(g18
(I0
tS'b'
tRp4029
((I1
(L1L
tg21
I00
(lp4030
g3956
at(Nttba(dp4031
g96
(dp4032
g98
g3953
sg99
(lp4033
(dp4034
g102
g139
(I0
I1
I1
tRp4035
sg105
g3958
sasstbsg106
S'Val_label'
p4036
sbatba(lp4037
g17
(g18
(I0
tS'b'
tRp4038
((I1
(L3L
tg21
I00
(lp4039
g3861
ag3862
ag3863
at(Nttba(dp4040
g96
(dp4041
g98
g3858
sg99
(lp4042
(dp4043
g102
g139
(I0
I3
I1
tRp4044
sg105
g3865
sasstbsg106
g3851
sbatba(lp4045
g17
(g18
(I0
tS'b'
tRp4046
((I1
(L1L
tg21
I00
(lp4047
g3851
at(Nttba(dp4048
g96
(dp4049
g98
g3848
sg99
(lp4050
(dp4051
g102
g139
(I0
I1
I1
tRp4052
sg105
g3853
sasstbsg106
g3841
sbatba(lp4053
g17
(g18
(I0
tS'b'
tRp4054
((I1
(L1L
tg21
I00
(lp4055
g3841
at(Nttba(dp4056
g96
(dp4057
g98
g3838
sg99
(lp4058
(dp4059
g102
g139
(I0
I1
I1
tRp4060
sg105
g3843
sasstbsg106
g3831
sbatba(lp4061
g17
(g18
(I0
tS'b'
tRp4062
((I1
(L1L
tg21
I00
(lp4063
g3831
at(Nttba(dp4064
g96
(dp4065
g98
g3828
sg99
(lp4066
(dp4067
g102
g139
(I0
I1
I1
tRp4068
sg105
g3833
sasstbsg106
g3821
sbatba(lp4069
g17
(g18
(I0
tS'b'
tRp4070
((I1
(L1L
tg21
I00
(lp4071
g3821
at(Nttba(dp4072
g96
(dp4073
g98
g3818
sg99
(lp4074
(dp4075
g102
g139
(I0
I1
I1
tRp4076
sg105
g3823
sasstbsg106
g3728
sbag1
(g10
g3
NtRp4077
(dp4078
g13
g1
(g14
g3
NtRp4079
((lp4080
g17
(g18
(I0
tS'b'
tRp4081
((I1
(L0L
tg21
I00
(lt(Nttba(lp4082
g17
(g25
(I0
tS'b'
tRp4083
(I1
(L0L
tg21
I00
(ltba(lp4084
g17
(g18
(I0
tS'b'
tRp4085
((I1
(L0L
tg21
I00
(lt(Nttba(dp4086
g96
(dp4087
g98
g4080
sg99
(lp4088
(dp4089
g102
g17
(g25
(I0
tS'b'
tRp4090
(I1
(L0L
tg104
I00
S''
tbsg105
g4083
sasstbsg106
S')'
sbatba(lp4091
g17
(g18
(I0
tS'b'
tRp4092
((I1
(L4L
tg21
I00
(lp4093
g3726
ag3727
ag3728
ag3729
at(Nttba(dp4094
g96
(dp4095
g98
g3723
sg99
(lp4096
(dp4097
g102
g139
(I0
I4
I1
tRp4098
sg105
g3731
sasstbsg106
g3716
sbatba(lp4099
g17
(g18
(I0
tS'b'
tRp4100
((I1
(L1L
tg21
I00
(lp4101
g3716
at(Nttba(dp4102
g96
(dp4103
g98
g3713
sg99
(lp4104
(dp4105
g102
g139
(I0
I1
I1
tRp4106
sg105
g3718
sasstbsg106
g3706
sbatba(lp4107
g17
(g18
(I0
tS'b'
tRp4108
((I1
(L1L
tg21
I00
(lp4109
g3706
at(Nttba(dp4110
g96
(dp4111
g98
g3703
sg99
(lp4112
(dp4113
g102
g139
(I0
I1
I1
tRp4114
sg105
g3708
sasstbsg106
g3461
sbatba(lp4115
g17
(g18
(I0
tS'b'
tRp4116
((I1
(L3L
tg21
I00
(lp4117
g3459
ag3460
ag3461
at(Nttba(dp4118
g96
(dp4119
g98
g3456
sg99
(lp4120
(dp4121
g102
g139
(I0
I3
I1
tRp4122
sg105
g3463
sasstbsg106
g3449
sbatba(lp4123
g17
(g18
(I0
tS'b'
tRp4124
((I1
(L1L
tg21
I00
(lp4125
g3449
at(Nttba(dp4126
g96
(dp4127
g98
g3446
sg99
(lp4128
(dp4129
g102
g139
(I0
I1
I1
tRp4130
sg105
g3451
sasstbsg106
g3438
sbag1
(g10
g3
NtRp4131
(dp4132
g13
g1
(g14
g3
NtRp4133
((lp4134
g17
(g18
(I0
tS'b'
tRp4135
((I1
(L0L
tg21
I00
(lt(Nttba(lp4136
g17
(g25
(I0
tS'b'
tRp4137
(I1
(L0L
tg21
I00
(ltba(lp4138
g17
(g18
(I0
tS'b'
tRp4139
((I1
(L0L
tg21
I00
(lt(Nttba(dp4140
g96
(dp4141
g98
g4134
sg99
(lp4142
(dp4143
g102
g17
(g25
(I0
tS'b'
tRp4144
(I1
(L0L
tg104
I00
S''
tbsg105
g4137
sasstbsg106
S';'
sbatba(lp4145
g17
(g18
(I0
tS'b'
tRp4146
((I1
(L2L
tg21
I00
(lp4147
g3438
ag3439
at(Nttba(dp4148
g96
(dp4149
g98
g3435
sg99
(lp4150
(dp4151
g102
g139
(I0
I2
I1
tRp4152
sg105
g3441
sasstbsg106
g3428
sbatba(lp4153
g17
(g18
(I0
tS'b'
tRp4154
((I1
(L1L
tg21
I00
(lp4155
g3428
at(Nttba(dp4156
g96
(dp4157
g98
g3425
sg99
(lp4158
(dp4159
g102
g139
(I0
I1
I1
tRp4160
sg105
g3430
sasstbsg106
g3418
sbatba(lp4161
g17
(g18
(I0
tS'b'
tRp4162
((I1
(L1L
tg21
I00
(lp4163
g3418
at(Nttba(dp4164
g96
(dp4165
g98
g3415
sg99
(lp4166
(dp4167
g102
g139
(I0
I1
I1
tRp4168
sg105
g3420
sasstbsg106
g3374
sbag1
(g10
g3
NtRp4169
(dp4170
g13
g1
(g14
g3
NtRp4171
((lp4172
g17
(g18
(I0
tS'b'
tRp4173
((I1
(L1L
tg21
I00
(lp4174
S'_$blockend_'
p4175
at(Nttba(lp4176
g17
(g25
(I0
tS'b'
tRp4177
(I1
(L1L
tg21
I00
(lp4178
g1
(g10
g3
NtRp4179
(dp4180
g13
g1
(g14
g3
NtRp4181
((lp4182
g17
(g18
(I0
tS'b'
tRp4183
((I1
(L0L
tg21
I00
(lt(Nttba(lp4184
g17
(g25
(I0
tS'b'
tRp4185
(I1
(L0L
tg21
I00
(ltba(lp4186
g17
(g18
(I0
tS'b'
tRp4187
((I1
(L0L
tg21
I00
(lt(Nttba(dp4188
g96
(dp4189
g98
g4182
sg99
(lp4190
(dp4191
g102
g17
(g25
(I0
tS'b'
tRp4192
(I1
(L0L
tg104
I00
S''
tbsg105
g4185
sasstbsg106
S'$blockend'
p4193
sbatba(lp4194
g17
(g18
(I0
tS'b'
tRp4195
((I1
(L1L
tg21
I00
(lp4196
g4175
at(Nttba(dp4197
g96
(dp4198
g98
g4172
sg99
(lp4199
(dp4200
g102
g139
(I0
I1
I1
tRp4201
sg105
g4177
sasstbsg106
g3375
sbatba(lp4202
g17
(g18
(I0
tS'b'
tRp4203
((I1
(L3L
tg21
I00
(lp4204
g3373
ag3374
ag3375
at(Nttba(dp4205
g96
(dp4206
g98
g3370
sg99
(lp4207
(dp4208
g102
g139
(I0
I3
I1
tRp4209
sg105
g3377
sasstbsg106
S'Block'
p4210
sbag1
(g10
g3
NtRp4211
(dp4212
g13
g1
(g14
g3
NtRp4213
((lp4214
g17
(g18
(I0
tS'b'
tRp4215
((I1
(L1L
tg21
I00
(lp4216
S'_else_'
p4217
at(Nttba(lp4218
g17
(g25
(I0
tS'b'
tRp4219
(I1
(L1L
tg21
I00
(lp4220
g1
(g10
g3
NtRp4221
(dp4222
g13
g1
(g14
g3
NtRp4223
((lp4224
g17
(g18
(I0
tS'b'
tRp4225
((I1
(L0L
tg21
I00
(lt(Nttba(lp4226
g17
(g25
(I0
tS'b'
tRp4227
(I1
(L0L
tg21
I00
(ltba(lp4228
g17
(g18
(I0
tS'b'
tRp4229
((I1
(L0L
tg21
I00
(lt(Nttba(dp4230
g96
(dp4231
g98
g4224
sg99
(lp4232
(dp4233
g102
g17
(g25
(I0
tS'b'
tRp4234
(I1
(L0L
tg104
I00
S''
tbsg105
g4227
sasstbsg106
S'else'
p4235
sbatba(lp4236
g17
(g18
(I0
tS'b'
tRp4237
((I1
(L1L
tg21
I00
(lp4238
g4217
at(Nttba(dp4239
g96
(dp4240
g98
g4214
sg99
(lp4241
(dp4242
g102
g139
(I0
I1
I1
tRp4243
sg105
g4219
sasstbsg106
g3102
sbag1
(g10
g3
NtRp4244
(dp4245
g13
g1
(g14
g3
NtRp4246
((lp4247
g17
(g18
(I0
tS'b'
tRp4248
((I1
(L3L
tg21
I00
(lp4249
S'Blockbegin'
p4250
aS'Prog'
p4251
aS'Blockend'
p4252
at(Nttba(lp4253
g17
(g25
(I0
tS'b'
tRp4254
(I1
(L3L
tg21
I00
(lp4255
g1
(g10
g3
NtRp4256
(dp4257
g13
g1
(g14
g3
NtRp4258
((lp4259
g17
(g18
(I0
tS'b'
tRp4260
((I1
(L1L
tg21
I00
(lp4261
S'_:$blockbegin_'
p4262
at(Nttba(lp4263
g17
(g25
(I0
tS'b'
tRp4264
(I1
(L1L
tg21
I00
(lp4265
g1
(g10
g3
NtRp4266
(dp4267
g13
g1
(g14
g3
NtRp4268
((lp4269
g17
(g18
(I0
tS'b'
tRp4270
((I1
(L0L
tg21
I00
(lt(Nttba(lp4271
g17
(g25
(I0
tS'b'
tRp4272
(I1
(L0L
tg21
I00
(ltba(lp4273
g17
(g18
(I0
tS'b'
tRp4274
((I1
(L0L
tg21
I00
(lt(Nttba(dp4275
g96
(dp4276
g98
g4269
sg99
(lp4277
(dp4278
g102
g17
(g25
(I0
tS'b'
tRp4279
(I1
(L0L
tg104
I00
S''
tbsg105
g4272
sasstbsg106
S':$blockbegin'
p4280
sbatba(lp4281
g17
(g18
(I0
tS'b'
tRp4282
((I1
(L1L
tg21
I00
(lp4283
g4262
at(Nttba(dp4284
g96
(dp4285
g98
g4259
sg99
(lp4286
(dp4287
g102
g139
(I0
I1
I1
tRp4288
sg105
g4264
sasstbsg106
g4250
sbag1
(g10
g3
NtRp4289
(dp4290
g13
g1
(g14
g3
NtRp4291
((lp4292
g17
(g18
(I0
tS'b'
tRp4293
((I1
(L1L
tg21
I00
(lp4294
S'Stmt'
p4295
at(Nttba(lp4296
g17
(g25
(I0
tS'b'
tRp4297
(I1
(L1L
tg21
I00
(lp4298
g1
(g10
g3
NtRp4299
(dp4300
g13
g1
(g14
g3
NtRp4301
((lp4302
g17
(g18
(I0
tS'b'
tRp4303
((I1
(L1L
tg21
I00
(lp4304
S'Single_stmt'
p4305
at(Nttba(lp4306
g17
(g25
(I0
tS'b'
tRp4307
(I1
(L1L
tg21
I00
(lp4308
g1
(g10
g3
NtRp4309
(dp4310
g13
g1
(g14
g3
NtRp4311
((lp4312
g17
(g18
(I0
tS'b'
tRp4313
((I1
(L2L
tg21
I00
(lp4314
S'Pass_stmt'
p4315
aS'_;_'
p4316
at(Nttba(lp4317
g17
(g25
(I0
tS'b'
tRp4318
(I1
(L2L
tg21
I00
(lp4319
g1
(g10
g3
NtRp4320
(dp4321
g13
g1
(g14
g3
NtRp4322
((lp4323
g17
(g18
(I0
tS'b'
tRp4324
((I1
(L1L
tg21
I00
(lp4325
S'_pass_'
p4326
at(Nttba(lp4327
g17
(g25
(I0
tS'b'
tRp4328
(I1
(L1L
tg21
I00
(lp4329
g1
(g10
g3
NtRp4330
(dp4331
g13
g1
(g14
g3
NtRp4332
((lp4333
g17
(g18
(I0
tS'b'
tRp4334
((I1
(L0L
tg21
I00
(lt(Nttba(lp4335
g17
(g25
(I0
tS'b'
tRp4336
(I1
(L0L
tg21
I00
(ltba(lp4337
g17
(g18
(I0
tS'b'
tRp4338
((I1
(L0L
tg21
I00
(lt(Nttba(dp4339
g96
(dp4340
g98
g4333
sg99
(lp4341
(dp4342
g102
g17
(g25
(I0
tS'b'
tRp4343
(I1
(L0L
tg104
I00
S''
tbsg105
g4336
sasstbsg106
S'pass'
p4344
sbatba(lp4345
g17
(g18
(I0
tS'b'
tRp4346
((I1
(L1L
tg21
I00
(lp4347
g4326
at(Nttba(dp4348
g96
(dp4349
g98
g4323
sg99
(lp4350
(dp4351
g102
g139
(I0
I1
I1
tRp4352
sg105
g4328
sasstbsg106
g4315
sbag1
(g10
g3
NtRp4353
(dp4354
g13
g1
(g14
g3
NtRp4355
((lp4356
g17
(g18
(I0
tS'b'
tRp4357
((I1
(L0L
tg21
I00
(lt(Nttba(lp4358
g17
(g25
(I0
tS'b'
tRp4359
(I1
(L0L
tg21
I00
(ltba(lp4360
g17
(g18
(I0
tS'b'
tRp4361
((I1
(L0L
tg21
I00
(lt(Nttba(dp4362
g96
(dp4363
g98
g4356
sg99
(lp4364
(dp4365
g102
g17
(g25
(I0
tS'b'
tRp4366
(I1
(L0L
tg104
I00
S''
tbsg105
g4359
sasstbsg106
S';'
sbatba(lp4367
g17
(g18
(I0
tS'b'
tRp4368
((I1
(L2L
tg21
I00
(lp4369
g4315
ag4316
at(Nttba(dp4370
g96
(dp4371
g98
g4312
sg99
(lp4372
(dp4373
g102
g139
(I0
I2
I1
tRp4374
sg105
g4318
sasstbsg106
g4305
sbatba(lp4375
g17
(g18
(I0
tS'b'
tRp4376
((I1
(L1L
tg21
I00
(lp4377
g4305
at(Nttba(dp4378
g96
(dp4379
g98
g4302
sg99
(lp4380
(dp4381
g102
g139
(I0
I1
I1
tRp4382
sg105
g4307
sasstbsg106
g4295
sbatba(lp4383
g17
(g18
(I0
tS'b'
tRp4384
((I1
(L1L
tg21
I00
(lp4385
g4295
at(Nttba(dp4386
g96
(dp4387
g98
g4292
sg99
(lp4388
(dp4389
g102
g139
(I0
I1
I1
tRp4390
sg105
g4297
sasstbsg106
g4251
sbag1
(g10
g3
NtRp4391
(dp4392
g13
g1
(g14
g3
NtRp4393
((lp4394
g17
(g18
(I0
tS'b'
tRp4395
((I1
(L1L
tg21
I00
(lp4396
S'_$blockend_'
p4397
at(Nttba(lp4398
g17
(g25
(I0
tS'b'
tRp4399
(I1
(L1L
tg21
I00
(lp4400
g1
(g10
g3
NtRp4401
(dp4402
g13
g1
(g14
g3
NtRp4403
((lp4404
g17
(g18
(I0
tS'b'
tRp4405
((I1
(L0L
tg21
I00
(lt(Nttba(lp4406
g17
(g25
(I0
tS'b'
tRp4407
(I1
(L0L
tg21
I00
(ltba(lp4408
g17
(g18
(I0
tS'b'
tRp4409
((I1
(L0L
tg21
I00
(lt(Nttba(dp4410
g96
(dp4411
g98
g4404
sg99
(lp4412
(dp4413
g102
g17
(g25
(I0
tS'b'
tRp4414
(I1
(L0L
tg104
I00
S''
tbsg105
g4407
sasstbsg106
S'$blockend'
p4415
sbatba(lp4416
g17
(g18
(I0
tS'b'
tRp4417
((I1
(L1L
tg21
I00
(lp4418
g4397
at(Nttba(dp4419
g96
(dp4420
g98
g4394
sg99
(lp4421
(dp4422
g102
g139
(I0
I1
I1
tRp4423
sg105
g4399
sasstbsg106
g4252
sbatba(lp4424
g17
(g18
(I0
tS'b'
tRp4425
((I1
(L3L
tg21
I00
(lp4426
g4250
ag4251
ag4252
at(Nttba(dp4427
g96
(dp4428
g98
g4247
sg99
(lp4429
(dp4430
g102
g139
(I0
I3
I1
tRp4431
sg105
g4254
sasstbsg106
S'Block'
p4432
sbatba(lp4433
g17
(g18
(I0
tS'b'
tRp4434
((I1
(L4L
tg21
I00
(lp4435
g3100
ag3101
ag3102
ag3103
at(Nttba(dp4436
g96
(dp4437
g98
g3097
sg99
(lp4438
(dp4439
g102
g139
(I0
I4
I1
tRp4440
sg105
g3105
sasstbsg106
g3090
sbatba(lp4441
g17
(g18
(I0
tS'b'
tRp4442
((I1
(L1L
tg21
I00
(lp4443
g3090
at(Nttba(dp4444
g96
(dp4445
g98
g3087
sg99
(lp4446
(dp4447
g102
g139
(I0
I1
I1
tRp4448
sg105
g3092
sasstbsg106
g3080
sbatba(lp4449
g17
(g18
(I0
tS'b'
tRp4450
((I1
(L1L
tg21
I00
(lp4451
g3080
at(Nttba(dp4452
g96
(dp4453
g98
g3077
sg99
(lp4454
(dp4455
g102
g139
(I0
I1
I1
tRp4456
sg105
g3082
sasstbsg106
g3070
sbatba(lp4457
g17
(g18
(I0
tS'b'
tRp4458
((I1
(L1L
tg21
I00
(lp4459
g3070
at(Nttba(dp4460
g96
(dp4461
g98
g3067
sg99
(lp4462
(dp4463
g102
g139
(I0
I1
I1
tRp4464
sg105
g3072
sasstbsg106
g3026
sbag1
(g10
g3
NtRp4465
(dp4466
g13
g1
(g14
g3
NtRp4467
((lp4468
g17
(g18
(I0
tS'b'
tRp4469
((I1
(L1L
tg21
I00
(lp4470
S'_$blockend_'
p4471
at(Nttba(lp4472
g17
(g25
(I0
tS'b'
tRp4473
(I1
(L1L
tg21
I00
(lp4474
g1
(g10
g3
NtRp4475
(dp4476
g13
g1
(g14
g3
NtRp4477
((lp4478
g17
(g18
(I0
tS'b'
tRp4479
((I1
(L0L
tg21
I00
(lt(Nttba(lp4480
g17
(g25
(I0
tS'b'
tRp4481
(I1
(L0L
tg21
I00
(ltba(lp4482
g17
(g18
(I0
tS'b'
tRp4483
((I1
(L0L
tg21
I00
(lt(Nttba(dp4484
g96
(dp4485
g98
g4478
sg99
(lp4486
(dp4487
g102
g17
(g25
(I0
tS'b'
tRp4488
(I1
(L0L
tg104
I00
S''
tbsg105
g4481
sasstbsg106
S'$blockend'
p4489
sbatba(lp4490
g17
(g18
(I0
tS'b'
tRp4491
((I1
(L1L
tg21
I00
(lp4492
g4471
at(Nttba(dp4493
g96
(dp4494
g98
g4468
sg99
(lp4495
(dp4496
g102
g139
(I0
I1
I1
tRp4497
sg105
g4473
sasstbsg106
g3027
sbatba(lp4498
g17
(g18
(I0
tS'b'
tRp4499
((I1
(L3L
tg21
I00
(lp4500
g3025
ag3026
ag3027
at(Nttba(dp4501
g96
(dp4502
g98
g3022
sg99
(lp4503
(dp4504
g102
g139
(I0
I3
I1
tRp4505
sg105
g3029
sasstbsg106
g2376
sbatba(lp4506
g17
(g18
(I0
tS'b'
tRp4507
((I1
(L2L
tg21
I00
(lp4508
g2375
ag2376
at(Nttba(dp4509
g96
(dp4510
g98
g2372
sg99
(lp4511
(dp4512
g102
g139
(I0
I2
I1
tRp4513
sg105
g2378
sasstbsg106
g2365
sbatba(lp4514
g17
(g18
(I0
tS'b'
tRp4515
((I1
(L1L
tg21
I00
(lp4516
g2365
at(Nttba(dp4517
g96
(dp4518
g98
g2362
sg99
(lp4519
(dp4520
g102
g139
(I0
I1
I1
tRp4521
sg105
g2367
sasstbsg106
S'Stmt'
p4522
sbag1
(g10
g3
NtRp4523
(dp4524
g13
g1
(g14
g3
NtRp4525
((lp4526
g17
(g18
(I0
tS'b'
tRp4527
((I1
(L1L
tg21
I00
(lp4528
S'Single_stmt'
p4529
at(Nttba(lp4530
g17
(g25
(I0
tS'b'
tRp4531
(I1
(L1L
tg21
I00
(lp4532
g1
(g10
g3
NtRp4533
(dp4534
g13
g1
(g14
g3
NtRp4535
((lp4536
g17
(g18
(I0
tS'b'
tRp4537
((I1
(L2L
tg21
I00
(lp4538
S'Print_stmt'
p4539
aS'_;_'
p4540
at(Nttba(lp4541
g17
(g25
(I0
tS'b'
tRp4542
(I1
(L2L
tg21
I00
(lp4543
g1
(g10
g3
NtRp4544
(dp4545
g13
g1
(g14
g3
NtRp4546
((lp4547
g17
(g18
(I0
tS'b'
tRp4548
((I1
(L2L
tg21
I00
(lp4549
S'_print_'
p4550
aS'Exprlist'
p4551
at(Nttba(lp4552
g17
(g25
(I0
tS'b'
tRp4553
(I1
(L2L
tg21
I00
(lp4554
g1
(g10
g3
NtRp4555
(dp4556
g13
g1
(g14
g3
NtRp4557
((lp4558
g17
(g18
(I0
tS'b'
tRp4559
((I1
(L0L
tg21
I00
(lt(Nttba(lp4560
g17
(g25
(I0
tS'b'
tRp4561
(I1
(L0L
tg21
I00
(ltba(lp4562
g17
(g18
(I0
tS'b'
tRp4563
((I1
(L0L
tg21
I00
(lt(Nttba(dp4564
g96
(dp4565
g98
g4558
sg99
(lp4566
(dp4567
g102
g17
(g25
(I0
tS'b'
tRp4568
(I1
(L0L
tg104
I00
S''
tbsg105
g4561
sasstbsg106
S'print'
p4569
sbag1
(g10
g3
NtRp4570
(dp4571
g13
g1
(g14
g3
NtRp4572
((lp4573
g17
(g18
(I0
tS'b'
tRp4574
((I1
(L1L
tg21
I00
(lp4575
S'Expr'
p4576
at(Nttba(lp4577
g17
(g25
(I0
tS'b'
tRp4578
(I1
(L1L
tg21
I00
(lp4579
g1
(g10
g3
NtRp4580
(dp4581
g13
g1
(g14
g3
NtRp4582
((lp4583
g17
(g18
(I0
tS'b'
tRp4584
((I1
(L1L
tg21
I00
(lp4585
S'Val_label'
p4586
at(Nttba(lp4587
g17
(g25
(I0
tS'b'
tRp4588
(I1
(L1L
tg21
I00
(lp4589
g1
(g10
g3
NtRp4590
(dp4591
g13
g1
(g14
g3
NtRp4592
((lp4593
g17
(g18
(I0
tS'b'
tRp4594
((I1
(L1L
tg21
I00
(lp4595
S'Val'
p4596
at(Nttba(lp4597
g17
(g25
(I0
tS'b'
tRp4598
(I1
(L1L
tg21
I00
(lp4599
g1
(g10
g3
NtRp4600
(dp4601
g13
g1
(g14
g3
NtRp4602
((lp4603
g17
(g18
(I0
tS'b'
tRp4604
((I1
(L1L
tg21
I00
(lp4605
S'Var'
p4606
at(Nttba(lp4607
g17
(g25
(I0
tS'b'
tRp4608
(I1
(L1L
tg21
I00
(lp4609
g1
(g10
g3
NtRp4610
(dp4611
g13
g1
(g14
g3
NtRp4612
((lp4613
g17
(g18
(I0
tS'b'
tRp4614
((I1
(L1L
tg21
I00
(lp4615
S'_L_'
p4616
at(Nttba(lp4617
g17
(g25
(I0
tS'b'
tRp4618
(I1
(L1L
tg21
I00
(lp4619
g1
(g10
g3
NtRp4620
(dp4621
g13
g1
(g14
g3
NtRp4622
((lp4623
g17
(g18
(I0
tS'b'
tRp4624
((I1
(L0L
tg21
I00
(lt(Nttba(lp4625
g17
(g25
(I0
tS'b'
tRp4626
(I1
(L0L
tg21
I00
(ltba(lp4627
g17
(g18
(I0
tS'b'
tRp4628
((I1
(L0L
tg21
I00
(lt(Nttba(dp4629
g96
(dp4630
g98
g4623
sg99
(lp4631
(dp4632
g102
g17
(g25
(I0
tS'b'
tRp4633
(I1
(L0L
tg104
I00
S''
tbsg105
g4626
sasstbsg106
S'L'
sbatba(lp4634
g17
(g18
(I0
tS'b'
tRp4635
((I1
(L1L
tg21
I00
(lp4636
g4616
at(Nttba(dp4637
g96
(dp4638
g98
g4613
sg99
(lp4639
(dp4640
g102
g139
(I0
I1
I1
tRp4641
sg105
g4618
sasstbsg106
g4606
sbatba(lp4642
g17
(g18
(I0
tS'b'
tRp4643
((I1
(L1L
tg21
I00
(lp4644
g4606
at(Nttba(dp4645
g96
(dp4646
g98
g4603
sg99
(lp4647
(dp4648
g102
g139
(I0
I1
I1
tRp4649
sg105
g4608
sasstbsg106
g4596
sbatba(lp4650
g17
(g18
(I0
tS'b'
tRp4651
((I1
(L1L
tg21
I00
(lp4652
g4596
at(Nttba(dp4653
g96
(dp4654
g98
g4593
sg99
(lp4655
(dp4656
g102
g139
(I0
I1
I1
tRp4657
sg105
g4598
sasstbsg106
g4586
sbatba(lp4658
g17
(g18
(I0
tS'b'
tRp4659
((I1
(L1L
tg21
I00
(lp4660
g4586
at(Nttba(dp4661
g96
(dp4662
g98
g4583
sg99
(lp4663
(dp4664
g102
g139
(I0
I1
I1
tRp4665
sg105
g4588
sasstbsg106
g4576
sbatba(lp4666
g17
(g18
(I0
tS'b'
tRp4667
((I1
(L1L
tg21
I00
(lp4668
g4576
at(Nttba(dp4669
g96
(dp4670
g98
g4573
sg99
(lp4671
(dp4672
g102
g139
(I0
I1
I1
tRp4673
sg105
g4578
sasstbsg106
g4551
sbatba(lp4674
g17
(g18
(I0
tS'b'
tRp4675
((I1
(L2L
tg21
I00
(lp4676
g4550
ag4551
at(Nttba(dp4677
g96
(dp4678
g98
g4547
sg99
(lp4679
(dp4680
g102
g139
(I0
I2
I1
tRp4681
sg105
g4553
sasstbsg106
g4539
sbag1
(g10
g3
NtRp4682
(dp4683
g13
g1
(g14
g3
NtRp4684
((lp4685
g17
(g18
(I0
tS'b'
tRp4686
((I1
(L0L
tg21
I00
(lt(Nttba(lp4687
g17
(g25
(I0
tS'b'
tRp4688
(I1
(L0L
tg21
I00
(ltba(lp4689
g17
(g18
(I0
tS'b'
tRp4690
((I1
(L0L
tg21
I00
(lt(Nttba(dp4691
g96
(dp4692
g98
g4685
sg99
(lp4693
(dp4694
g102
g17
(g25
(I0
tS'b'
tRp4695
(I1
(L0L
tg104
I00
S''
tbsg105
g4688
sasstbsg106
S';'
sbatba(lp4696
g17
(g18
(I0
tS'b'
tRp4697
((I1
(L2L
tg21
I00
(lp4698
g4539
ag4540
at(Nttba(dp4699
g96
(dp4700
g98
g4536
sg99
(lp4701
(dp4702
g102
g139
(I0
I2
I1
tRp4703
sg105
g4542
sasstbsg106
g4529
sbatba(lp4704
g17
(g18
(I0
tS'b'
tRp4705
((I1
(L1L
tg21
I00
(lp4706
g4529
at(Nttba(dp4707
g96
(dp4708
g98
g4526
sg99
(lp4709
(dp4710
g102
g139
(I0
I1
I1
tRp4711
sg105
g4531
sasstbsg106
S'Stmt'
p4712
sbatba(lp4713
g17
(g18
(I0
tS'b'
tRp4714
((I1
(L4L
tg21
I00
(lp4715
g34
ag35
ag36
ag37
at(Nttba(dp4716
g96
(dp4717
g98
g31
sg99
(lp4718
(dp4719
g102
g139
(I0
I4
I1
tRp4720
sg105
g39
sasstbsg106
g23
sbatba(lp4721
g17
(g18
(I0
tS'b'
tRp4722
((I1
(L1L
tg21
I00
(lp4723
g23
at(Nttba(dp4724
g96
(dp4725
g98
g16
sg99
(lp4726
(dp4727
g102
g139
(I0
I1
I1
tRp4728
sg105
g26
sasstbsg106
g9
sbsS'pos'
p4729
g11
sb.