ccopy_reg
_reconstructor
p1
(ctree
Tree
p2
c__builtin__
object
p3
NtRp4
(dp5
S'patterns'
p6
c__builtin__
set
p7
((ltRp8
sS'root'
p9
g1
(ctree
vertex
p10
g3
NtRp11
(dp12
S'_data'
p13
g1
(cpandas.core.internals
SingleBlockManager
p14
g3
NtRp15
((lp16
cnumpy.core.multiarray
_reconstruct
p17
(cpandas.core.index
Index
p18
(I0
tS'b'
tRp19
((I1
(L1L
tcnumpy
dtype
p20
(S'O8'
I0
I1
tRp21
(I3
S'|'
NNNI-1
I-1
I63
tbI00
(lp22
S'Prog'
p23
at(Nttba(lp24
g17
(cnumpy
ndarray
p25
(I0
tS'b'
tRp26
(I1
(L1L
tg21
I00
(lp27
g1
(g10
g3
NtRp28
(dp29
g13
g1
(g14
g3
NtRp30
((lp31
g17
(g18
(I0
tS'b'
tRp32
((I1
(L4L
tg21
I00
(lp33
S'Stmt1'
p34
aS'Stmt2'
p35
aS'Stmt3'
p36
aS'Stmt4'
p37
at(Nttba(lp38
g17
(g25
(I0
tS'b'
tRp39
(I1
(L4L
tg21
I00
(lp40
g1
(g10
g3
NtRp41
(dp42
g13
g1
(g14
g3
NtRp43
((lp44
g17
(g18
(I0
tS'b'
tRp45
((I1
(L1L
tg21
I00
(lp46
S'Single_stmt'
p47
at(Nttba(lp48
g17
(g25
(I0
tS'b'
tRp49
(I1
(L1L
tg21
I00
(lp50
g1
(g10
g3
NtRp51
(dp52
g13
g1
(g14
g3
NtRp53
((lp54
g17
(g18
(I0
tS'b'
tRp55
((I1
(L2L
tg21
I00
(lp56
S'Import_stmt'
p57
aS'_;_'
p58
at(Nttba(lp59
g17
(g25
(I0
tS'b'
tRp60
(I1
(L2L
tg21
I00
(lp61
g1
(g10
g3
NtRp62
(dp63
g13
g1
(g14
g3
NtRp64
((lp65
g17
(g18
(I0
tS'b'
tRp66
((I1
(L1L
tg21
I00
(lp67
S'Import'
p68
at(Nttba(lp69
g17
(g25
(I0
tS'b'
tRp70
(I1
(L1L
tg21
I00
(lp71
g1
(g10
g3
NtRp72
(dp73
g13
g1
(g14
g3
NtRp74
((lp75
g17
(g18
(I0
tS'b'
tRp76
((I1
(L4L
tg21
I00
(lp77
S'_from_'
p78
aS'Rel_module'
p79
aS'_import_'
p80
aS'Id_list'
p81
at(Nttba(lp82
g17
(g25
(I0
tS'b'
tRp83
(I1
(L4L
tg21
I00
(lp84
g1
(g10
g3
NtRp85
(dp86
g13
g1
(g14
g3
NtRp87
((lp88
g17
(g18
(I0
tS'b'
tRp89
((I1
(L0L
tg21
I00
(lt(Nttba(lp90
g17
(g25
(I0
tS'b'
tRp91
(I1
(L0L
tg21
I00
(ltba(lp92
g89
atbsS'name'
p93
S'from'
p94
sbag1
(g10
g3
NtRp95
(dp96
g13
g1
(g14
g3
NtRp97
((lp98
g17
(g18
(I0
tS'b'
tRp99
((I1
(L1L
tg21
I00
(lp100
S'Module'
p101
at(Nttba(lp102
g17
(g25
(I0
tS'b'
tRp103
(I1
(L1L
tg21
I00
(lp104
g1
(g10
g3
NtRp105
(dp106
g13
g1
(g14
g3
NtRp107
((lp108
g17
(g18
(I0
tS'b'
tRp109
((I1
(L1L
tg21
I00
(lp110
S'Id'
p111
at(Nttba(lp112
g17
(g25
(I0
tS'b'
tRp113
(I1
(L1L
tg21
I00
(lp114
g1
(g10
g3
NtRp115
(dp116
g13
g1
(g14
g3
NtRp117
((lp118
g17
(g18
(I0
tS'b'
tRp119
((I1
(L1L
tg21
I00
(lp120
S'___future___'
p121
at(Nttba(lp122
g17
(g25
(I0
tS'b'
tRp123
(I1
(L1L
tg21
I00
(lp124
g1
(g10
g3
NtRp125
(dp126
g13
g1
(g14
g3
NtRp127
((lp128
g17
(g18
(I0
tS'b'
tRp129
((I1
(L0L
tg21
I00
(lt(Nttba(lp130
g17
(g25
(I0
tS'b'
tRp131
(I1
(L0L
tg21
I00
(ltba(lp132
g129
atbsg93
S'__future__'
p133
sbatba(lp134
g119
atbsg93
g111
sbatba(lp135
g109
atbsg93
g101
sbatba(lp136
g99
atbsg93
g79
sbag1
(g10
g3
NtRp137
(dp138
g13
g1
(g14
g3
NtRp139
((lp140
g17
(g18
(I0
tS'b'
tRp141
((I1
(L0L
tg21
I00
(lt(Nttba(lp142
g17
(g25
(I0
tS'b'
tRp143
(I1
(L0L
tg21
I00
(ltba(lp144
g141
atbsg93
S'import'
p145
sbag1
(g10
g3
NtRp146
(dp147
g13
g1
(g14
g3
NtRp148
((lp149
g17
(g18
(I0
tS'b'
tRp150
((I1
(L1L
tg21
I00
(lp151
S'Id_alias'
p152
at(Nttba(lp153
g17
(g25
(I0
tS'b'
tRp154
(I1
(L1L
tg21
I00
(lp155
g1
(g10
g3
NtRp156
(dp157
g13
g1
(g14
g3
NtRp158
((lp159
g17
(g18
(I0
tS'b'
tRp160
((I1
(L1L
tg21
I00
(lp161
S'Id'
p162
at(Nttba(lp163
g17
(g25
(I0
tS'b'
tRp164
(I1
(L1L
tg21
I00
(lp165
g1
(g10
g3
NtRp166
(dp167
g13
g1
(g14
g3
NtRp168
((lp169
g17
(g18
(I0
tS'b'
tRp170
((I1
(L1L
tg21
I00
(lp171
S'_division_'
p172
at(Nttba(lp173
g17
(g25
(I0
tS'b'
tRp174
(I1
(L1L
tg21
I00
(lp175
g1
(g10
g3
NtRp176
(dp177
g13
g1
(g14
g3
NtRp178
((lp179
g17
(g18
(I0
tS'b'
tRp180
((I1
(L0L
tg21
I00
(lt(Nttba(lp181
g17
(g25
(I0
tS'b'
tRp182
(I1
(L0L
tg21
I00
(ltba(lp183
g180
atbsg93
S'division'
p184
sbatba(lp185
g170
atbsg93
g162
sbatba(lp186
g160
atbsg93
g152
sbatba(lp187
g150
atbsg93
g81
sbatba(lp188
g76
atbsg93
g68
sbatba(lp189
g66
atbsg93
g57
sbag1
(g10
g3
NtRp190
(dp191
g13
g1
(g14
g3
NtRp192
((lp193
g17
(g18
(I0
tS'b'
tRp194
((I1
(L0L
tg21
I00
(lt(Nttba(lp195
g17
(g25
(I0
tS'b'
tRp196
(I1
(L0L
tg21
I00
(ltba(lp197
g194
atbsg93
S';'
sbatba(lp198
g55
atbsg93
g47
sbatba(lp199
g45
atbsg93
S'Stmt'
p200
sbag1
(g10
g3
NtRp201
(dp202
g13
g1
(g14
g3
NtRp203
((lp204
g17
(g18
(I0
tS'b'
tRp205
((I1
(L1L
tg21
I00
(lp206
S'Single_stmt'
p207
at(Nttba(lp208
g17
(g25
(I0
tS'b'
tRp209
(I1
(L1L
tg21
I00
(lp210
g1
(g10
g3
NtRp211
(dp212
g13
g1
(g14
g3
NtRp213
((lp214
g17
(g18
(I0
tS'b'
tRp215
((I1
(L2L
tg21
I00
(lp216
S'Exprlist'
p217
aS'_;_'
p218
at(Nttba(lp219
g17
(g25
(I0
tS'b'
tRp220
(I1
(L2L
tg21
I00
(lp221
g1
(g10
g3
NtRp222
(dp223
g13
g1
(g14
g3
NtRp224
((lp225
g17
(g18
(I0
tS'b'
tRp226
((I1
(L1L
tg21
I00
(lp227
S'Expr'
p228
at(Nttba(lp229
g17
(g25
(I0
tS'b'
tRp230
(I1
(L1L
tg21
I00
(lp231
g1
(g10
g3
NtRp232
(dp233
g13
g1
(g14
g3
NtRp234
((lp235
g17
(g18
(I0
tS'b'
tRp236
((I1
(L1L
tg21
I00
(lp237
S'Val'
p238
at(Nttba(lp239
g17
(g25
(I0
tS'b'
tRp240
(I1
(L1L
tg21
I00
(lp241
g1
(g10
g3
NtRp242
(dp243
g13
g1
(g14
g3
NtRp244
((lp245
g17
(g18
(I0
tS'b'
tRp246
((I1
(L1L
tg21
I00
(lp247
S'String'
p248
at(Nttba(lp249
g17
(g25
(I0
tS'b'
tRp250
(I1
(L1L
tg21
I00
(lp251
g1
(g10
g3
NtRp252
(dp253
g13
g1
(g14
g3
NtRp254
((lp255
g17
(g18
(I0
tS'b'
tRp256
((I1
(L1L
tg21
I00
(lp257
S'Str_val'
p258
at(Nttba(lp259
g17
(g25
(I0
tS'b'
tRp260
(I1
(L1L
tg21
I00
(lp261
g1
(g10
g3
NtRp262
(dp263
g13
g1
(g14
g3
NtRp264
((lp265
g17
(g18
(I0
tS'b'
tRp266
((I1
(L1L
tg21
I00
(lp267
S'_"""\r\nTestprogramm fuer codegen\r\n"""_'
p268
at(Nttba(lp269
g17
(g25
(I0
tS'b'
tRp270
(I1
(L1L
tg21
I00
(lp271
g1
(g10
g3
NtRp272
(dp273
g13
g1
(g14
g3
NtRp274
((lp275
g17
(g18
(I0
tS'b'
tRp276
((I1
(L0L
tg21
I00
(lt(Nttba(lp277
g17
(g25
(I0
tS'b'
tRp278
(I1
(L0L
tg21
I00
(ltba(lp279
g276
atbsg93
S'"\nTestprogramm fuer codegen\n"'
p280
sbatba(lp281
g266
atbsg93
g258
sbatba(lp282
g256
atbsg93
g248
sbatba(lp283
g246
atbsg93
g238
sbatba(lp284
g17
(g18
(I0
tS'b'
tRp285
((I1
(L1L
tg21
I00
(lp286
g238
at(Nttbatbsg93
S'Expr'
p287
sbatba(lp288
g226
atbsg93
g217
sbag1
(g10
g3
NtRp289
(dp290
g13
g1
(g14
g3
NtRp291
((lp292
g17
(g18
(I0
tS'b'
tRp293
((I1
(L0L
tg21
I00
(lt(Nttba(lp294
g17
(g25
(I0
tS'b'
tRp295
(I1
(L0L
tg21
I00
(ltba(lp296
g293
atbsg93
S';'
sbatba(lp297
g215
atbsg93
g207
sbatba(lp298
g205
atbsg93
S'Stmt'
p299
sbag1
(g10
g3
NtRp300
(dp301
g13
g1
(g14
g3
NtRp302
((lp303
g17
(g18
(I0
tS'b'
tRp304
((I1
(L1L
tg21
I00
(lp305
S'Block_stmt'
p306
at(Nttba(lp307
g17
(g25
(I0
tS'b'
tRp308
(I1
(L1L
tg21
I00
(lp309
g1
(g10
g3
NtRp310
(dp311
g13
g1
(g14
g3
NtRp312
((lp313
g17
(g18
(I0
tS'b'
tRp314
((I1
(L2L
tg21
I00
(lp315
S'Block_head'
p316
aS'Block'
p317
at(Nttba(lp318
g17
(g25
(I0
tS'b'
tRp319
(I1
(L2L
tg21
I00
(lp320
g1
(g10
g3
NtRp321
(dp322
g13
g1
(g14
g3
NtRp323
((lp324
g17
(g18
(I0
tS'b'
tRp325
((I1
(L1L
tg21
I00
(lp326
S'Func'
p327
at(Nttba(lp328
g17
(g25
(I0
tS'b'
tRp329
(I1
(L1L
tg21
I00
(lp330
g1
(g10
g3
NtRp331
(dp332
g13
g1
(g14
g3
NtRp333
((lp334
g17
(g18
(I0
tS'b'
tRp335
((I1
(L5L
tg21
I00
(lp336
S'_def_'
p337
aS'Id'
p338
aS'_(_'
p339
aS'Paramlist'
p340
aS'_)_'
p341
at(Nttba(lp342
g17
(g25
(I0
tS'b'
tRp343
(I1
(L5L
tg21
I00
(lp344
g1
(g10
g3
NtRp345
(dp346
g13
g1
(g14
g3
NtRp347
((lp348
g17
(g18
(I0
tS'b'
tRp349
((I1
(L0L
tg21
I00
(lt(Nttba(lp350
g17
(g25
(I0
tS'b'
tRp351
(I1
(L0L
tg21
I00
(ltba(lp352
g349
atbsg93
S'def'
p353
sbag1
(g10
g3
NtRp354
(dp355
g13
g1
(g14
g3
NtRp356
((lp357
g17
(g18
(I0
tS'b'
tRp358
((I1
(L1L
tg21
I00
(lp359
S'_f_'
p360
at(Nttba(lp361
g17
(g25
(I0
tS'b'
tRp362
(I1
(L1L
tg21
I00
(lp363
g1
(g10
g3
NtRp364
(dp365
g13
g1
(g14
g3
NtRp366
((lp367
g17
(g18
(I0
tS'b'
tRp368
((I1
(L0L
tg21
I00
(lt(Nttba(lp369
g17
(g25
(I0
tS'b'
tRp370
(I1
(L0L
tg21
I00
(ltba(lp371
g368
atbsg93
S'f'
sbatba(lp372
g358
atbsg93
g338
sbag1
(g10
g3
NtRp373
(dp374
g13
g1
(g14
g3
NtRp375
((lp376
g17
(g18
(I0
tS'b'
tRp377
((I1
(L0L
tg21
I00
(lt(Nttba(lp378
g17
(g25
(I0
tS'b'
tRp379
(I1
(L0L
tg21
I00
(ltba(lp380
g377
atbsg93
S'('
sbag1
(g10
g3
NtRp381
(dp382
g13
g1
(g14
g3
NtRp383
((lp384
g17
(g18
(I0
tS'b'
tRp385
((I1
(L1L
tg21
I00
(lp386
S'Pos_paramlist'
p387
at(Nttba(lp388
g17
(g25
(I0
tS'b'
tRp389
(I1
(L1L
tg21
I00
(lp390
g1
(g10
g3
NtRp391
(dp392
g13
g1
(g14
g3
NtRp393
((lp394
g17
(g18
(I0
tS'b'
tRp395
((I1
(L1L
tg21
I00
(lp396
S'Pos_paramtuple'
p397
at(Nttba(lp398
g17
(g25
(I0
tS'b'
tRp399
(I1
(L1L
tg21
I00
(lp400
g1
(g10
g3
NtRp401
(dp402
g13
g1
(g14
g3
NtRp403
((lp404
g17
(g18
(I0
tS'b'
tRp405
((I1
(L1L
tg21
I00
(lp406
S'Simple_var'
p407
at(Nttba(lp408
g17
(g25
(I0
tS'b'
tRp409
(I1
(L1L
tg21
I00
(lp410
g1
(g10
g3
NtRp411
(dp412
g13
g1
(g14
g3
NtRp413
((lp414
g17
(g18
(I0
tS'b'
tRp415
((I1
(L1L
tg21
I00
(lp416
S'Id'
p417
at(Nttba(lp418
g17
(g25
(I0
tS'b'
tRp419
(I1
(L1L
tg21
I00
(lp420
g1
(g10
g3
NtRp421
(dp422
g13
g1
(g14
g3
NtRp423
((lp424
g17
(g18
(I0
tS'b'
tRp425
((I1
(L1L
tg21
I00
(lp426
S'_x_'
p427
at(Nttba(lp428
g17
(g25
(I0
tS'b'
tRp429
(I1
(L1L
tg21
I00
(lp430
g1
(g10
g3
NtRp431
(dp432
g13
g1
(g14
g3
NtRp433
((lp434
g17
(g18
(I0
tS'b'
tRp435
((I1
(L0L
tg21
I00
(lt(Nttba(lp436
g17
(g25
(I0
tS'b'
tRp437
(I1
(L0L
tg21
I00
(ltba(lp438
g435
atbsg93
S'x'
sbatba(lp439
g425
atbsg93
g417
sbatba(lp440
g415
atbsg93
g407
sbatba(lp441
g405
atbsg93
g397
sbatba(lp442
g395
atbsg93
g387
sbatba(lp443
g385
atbsg93
g340
sbag1
(g10
g3
NtRp444
(dp445
g13
g1
(g14
g3
NtRp446
((lp447
g17
(g18
(I0
tS'b'
tRp448
((I1
(L0L
tg21
I00
(lt(Nttba(lp449
g17
(g25
(I0
tS'b'
tRp450
(I1
(L0L
tg21
I00
(ltba(lp451
g448
atbsg93
S')'
sbatba(lp452
g335
atbsg93
g327
sbatba(lp453
g325
atbsg93
g316
sbag1
(g10
g3
NtRp454
(dp455
g13
g1
(g14
g3
NtRp456
((lp457
g17
(g18
(I0
tS'b'
tRp458
((I1
(L3L
tg21
I00
(lp459
S'Blockbegin'
p460
aS'Prog'
p461
aS'Blockend'
p462
at(Nttba(lp463
g17
(g25
(I0
tS'b'
tRp464
(I1
(L3L
tg21
I00
(lp465
g1
(g10
g3
NtRp466
(dp467
g13
g1
(g14
g3
NtRp468
((lp469
g17
(g18
(I0
tS'b'
tRp470
((I1
(L1L
tg21
I00
(lp471
S'_:$blockbegin_'
p472
at(Nttba(lp473
g17
(g25
(I0
tS'b'
tRp474
(I1
(L1L
tg21
I00
(lp475
g1
(g10
g3
NtRp476
(dp477
g13
g1
(g14
g3
NtRp478
((lp479
g17
(g18
(I0
tS'b'
tRp480
((I1
(L0L
tg21
I00
(lt(Nttba(lp481
g17
(g25
(I0
tS'b'
tRp482
(I1
(L0L
tg21
I00
(ltba(lp483
g480
atbsg93
S':$blockbegin'
p484
sbatba(lp485
g470
atbsg93
g460
sbag1
(g10
g3
NtRp486
(dp487
g13
g1
(g14
g3
NtRp488
((lp489
g17
(g18
(I0
tS'b'
tRp490
((I1
(L2L
tg21
I00
(lp491
S'Stmt1'
p492
aS'Stmt2'
p493
at(Nttba(lp494
g17
(g25
(I0
tS'b'
tRp495
(I1
(L2L
tg21
I00
(lp496
g1
(g10
g3
NtRp497
(dp498
g13
g1
(g14
g3
NtRp499
((lp500
g17
(g18
(I0
tS'b'
tRp501
((I1
(L1L
tg21
I00
(lp502
S'Single_stmt'
p503
at(Nttba(lp504
g17
(g25
(I0
tS'b'
tRp505
(I1
(L1L
tg21
I00
(lp506
g1
(g10
g3
NtRp507
(dp508
g13
g1
(g14
g3
NtRp509
((lp510
g17
(g18
(I0
tS'b'
tRp511
((I1
(L2L
tg21
I00
(lp512
S'Exprlist'
p513
aS'_;_'
p514
at(Nttba(lp515
g17
(g25
(I0
tS'b'
tRp516
(I1
(L2L
tg21
I00
(lp517
g1
(g10
g3
NtRp518
(dp519
g13
g1
(g14
g3
NtRp520
((lp521
g17
(g18
(I0
tS'b'
tRp522
((I1
(L1L
tg21
I00
(lp523
S'Expr'
p524
at(Nttba(lp525
g17
(g25
(I0
tS'b'
tRp526
(I1
(L1L
tg21
I00
(lp527
g1
(g10
g3
NtRp528
(dp529
g13
g1
(g14
g3
NtRp530
((lp531
g17
(g18
(I0
tS'b'
tRp532
((I1
(L1L
tg21
I00
(lp533
S'Val'
p534
at(Nttba(lp535
g17
(g25
(I0
tS'b'
tRp536
(I1
(L1L
tg21
I00
(lp537
g1
(g10
g3
NtRp538
(dp539
g13
g1
(g14
g3
NtRp540
((lp541
g17
(g18
(I0
tS'b'
tRp542
((I1
(L1L
tg21
I00
(lp543
S'String'
p544
at(Nttba(lp545
g17
(g25
(I0
tS'b'
tRp546
(I1
(L1L
tg21
I00
(lp547
g1
(g10
g3
NtRp548
(dp549
g13
g1
(g14
g3
NtRp550
((lp551
g17
(g18
(I0
tS'b'
tRp552
((I1
(L1L
tg21
I00
(lp553
S'Str_val'
p554
at(Nttba(lp555
g17
(g25
(I0
tS'b'
tRp556
(I1
(L1L
tg21
I00
(lp557
g1
(g10
g3
NtRp558
(dp559
g13
g1
(g14
g3
NtRp560
((lp561
g17
(g18
(I0
tS'b'
tRp562
((I1
(L1L
tg21
I00
(lp563
S'_"""rechnen"""_'
p564
at(Nttba(lp565
g17
(g25
(I0
tS'b'
tRp566
(I1
(L1L
tg21
I00
(lp567
g1
(g10
g3
NtRp568
(dp569
g13
g1
(g14
g3
NtRp570
((lp571
g17
(g18
(I0
tS'b'
tRp572
((I1
(L0L
tg21
I00
(lt(Nttba(lp573
g17
(g25
(I0
tS'b'
tRp574
(I1
(L0L
tg21
I00
(ltba(lp575
g572
atbsg93
S'"rechnen"'
p576
sbatba(lp577
g562
atbsg93
g554
sbatba(lp578
g552
atbsg93
g544
sbatba(lp579
g542
atbsg93
g534
sbatba(lp580
g17
(g18
(I0
tS'b'
tRp581
((I1
(L1L
tg21
I00
(lp582
g534
at(Nttbatbsg93
S'Expr'
p583
sbatba(lp584
g522
atbsg93
g513
sbag1
(g10
g3
NtRp585
(dp586
g13
g1
(g14
g3
NtRp587
((lp588
g17
(g18
(I0
tS'b'
tRp589
((I1
(L0L
tg21
I00
(lt(Nttba(lp590
g17
(g25
(I0
tS'b'
tRp591
(I1
(L0L
tg21
I00
(ltba(lp592
g589
atbsg93
S';'
sbatba(lp593
g511
atbsg93
g503
sbatba(lp594
g501
atbsg93
S'Stmt'
p595
sbag1
(g10
g3
NtRp596
(dp597
g13
g1
(g14
g3
NtRp598
((lp599
g17
(g18
(I0
tS'b'
tRp600
((I1
(L1L
tg21
I00
(lp601
S'Single_stmt'
p602
at(Nttba(lp603
g17
(g25
(I0
tS'b'
tRp604
(I1
(L1L
tg21
I00
(lp605
g1
(g10
g3
NtRp606
(dp607
g13
g1
(g14
g3
NtRp608
((lp609
g17
(g18
(I0
tS'b'
tRp610
((I1
(L2L
tg21
I00
(lp611
S'Func_stmt'
p612
aS'_;_'
p613
at(Nttba(lp614
g17
(g25
(I0
tS'b'
tRp615
(I1
(L2L
tg21
I00
(lp616
g1
(g10
g3
NtRp617
(dp618
g13
g1
(g14
g3
NtRp619
((lp620
g17
(g18
(I0
tS'b'
tRp621
((I1
(L2L
tg21
I00
(lp622
S'_return_'
p623
aS'Exprlist'
p624
at(Nttba(lp625
g17
(g25
(I0
tS'b'
tRp626
(I1
(L2L
tg21
I00
(lp627
g1
(g10
g3
NtRp628
(dp629
g13
g1
(g14
g3
NtRp630
((lp631
g17
(g18
(I0
tS'b'
tRp632
((I1
(L0L
tg21
I00
(lt(Nttba(lp633
g17
(g25
(I0
tS'b'
tRp634
(I1
(L0L
tg21
I00
(ltba(lp635
g632
atbsg93
S'return'
p636
sbag1
(g10
g3
NtRp637
(dp638
g13
g1
(g14
g3
NtRp639
((lp640
g17
(g18
(I0
tS'b'
tRp641
((I1
(L1L
tg21
I00
(lp642
S'Expr'
p643
at(Nttba(lp644
g17
(g25
(I0
tS'b'
tRp645
(I1
(L1L
tg21
I00
(lp646
g1
(g10
g3
NtRp647
(dp648
g13
g1
(g14
g3
NtRp649
((lp650
g17
(g18
(I0
tS'b'
tRp651
((I1
(L1L
tg21
I00
(lp652
S'Dash_calc'
p653
at(Nttba(lp654
g17
(g25
(I0
tS'b'
tRp655
(I1
(L1L
tg21
I00
(lp656
g1
(g10
g3
NtRp657
(dp658
g13
g1
(g14
g3
NtRp659
((lp660
g17
(g18
(I0
tS'b'
tRp661
((I1
(L3L
tg21
I00
(lp662
S'Expr1'
p663
aS'_+_'
p664
aS'Expr2'
p665
at(Nttba(lp666
g17
(g25
(I0
tS'b'
tRp667
(I1
(L3L
tg21
I00
(lp668
g1
(g10
g3
NtRp669
(dp670
g13
g1
(g14
g3
NtRp671
((lp672
g17
(g18
(I0
tS'b'
tRp673
((I1
(L1L
tg21
I00
(lp674
S'Dash_calc'
p675
at(Nttba(lp676
g17
(g25
(I0
tS'b'
tRp677
(I1
(L1L
tg21
I00
(lp678
g1
(g10
g3
NtRp679
(dp680
g13
g1
(g14
g3
NtRp681
((lp682
g17
(g18
(I0
tS'b'
tRp683
((I1
(L3L
tg21
I00
(lp684
S'Expr1'
p685
aS'_+_'
p686
aS'Expr2'
p687
at(Nttba(lp688
g17
(g25
(I0
tS'b'
tRp689
(I1
(L3L
tg21
I00
(lp690
g1
(g10
g3
NtRp691
(dp692
g13
g1
(g14
g3
NtRp693
((lp694
g17
(g18
(I0
tS'b'
tRp695
((I1
(L1L
tg21
I00
(lp696
S'Dash_calc'
p697
at(Nttba(lp698
g17
(g25
(I0
tS'b'
tRp699
(I1
(L1L
tg21
I00
(lp700
g1
(g10
g3
NtRp701
(dp702
g13
g1
(g14
g3
NtRp703
((lp704
g17
(g18
(I0
tS'b'
tRp705
((I1
(L3L
tg21
I00
(lp706
S'Expr1'
p707
aS'_-_'
p708
aS'Expr2'
p709
at(Nttba(lp710
g17
(g25
(I0
tS'b'
tRp711
(I1
(L3L
tg21
I00
(lp712
g1
(g10
g3
NtRp713
(dp714
g13
g1
(g14
g3
NtRp715
((lp716
g17
(g18
(I0
tS'b'
tRp717
((I1
(L1L
tg21
I00
(lp718
S'Dash_calc'
p719
at(Nttba(lp720
g17
(g25
(I0
tS'b'
tRp721
(I1
(L1L
tg21
I00
(lp722
g1
(g10
g3
NtRp723
(dp724
g13
g1
(g14
g3
NtRp725
((lp726
g17
(g18
(I0
tS'b'
tRp727
((I1
(L3L
tg21
I00
(lp728
S'Expr1'
p729
aS'_-_'
p730
aS'Expr2'
p731
at(Nttba(lp732
g17
(g25
(I0
tS'b'
tRp733
(I1
(L3L
tg21
I00
(lp734
g1
(g10
g3
NtRp735
(dp736
g13
g1
(g14
g3
NtRp737
((lp738
g17
(g18
(I0
tS'b'
tRp739
((I1
(L1L
tg21
I00
(lp740
S'Dash_calc'
p741
at(Nttba(lp742
g17
(g25
(I0
tS'b'
tRp743
(I1
(L1L
tg21
I00
(lp744
g1
(g10
g3
NtRp745
(dp746
g13
g1
(g14
g3
NtRp747
((lp748
g17
(g18
(I0
tS'b'
tRp749
((I1
(L3L
tg21
I00
(lp750
S'Expr1'
p751
aS'_+_'
p752
aS'Expr2'
p753
at(Nttba(lp754
g17
(g25
(I0
tS'b'
tRp755
(I1
(L3L
tg21
I00
(lp756
g1
(g10
g3
NtRp757
(dp758
g13
g1
(g14
g3
NtRp759
((lp760
g17
(g18
(I0
tS'b'
tRp761
((I1
(L1L
tg21
I00
(lp762
S'Exponentiation'
p763
at(Nttba(lp764
g17
(g25
(I0
tS'b'
tRp765
(I1
(L1L
tg21
I00
(lp766
g1
(g10
g3
NtRp767
(dp768
g13
g1
(g14
g3
NtRp769
((lp770
g17
(g18
(I0
tS'b'
tRp771
((I1
(L3L
tg21
I00
(lp772
S'Expr1'
p773
aS'_**_'
p774
aS'Expr2'
p775
at(Nttba(lp776
g17
(g25
(I0
tS'b'
tRp777
(I1
(L3L
tg21
I00
(lp778
g1
(g10
g3
NtRp779
(dp780
g13
g1
(g14
g3
NtRp781
((lp782
g17
(g18
(I0
tS'b'
tRp783
((I1
(L1L
tg21
I00
(lp784
S'Val'
p785
at(Nttba(lp786
g17
(g25
(I0
tS'b'
tRp787
(I1
(L1L
tg21
I00
(lp788
g1
(g10
g3
NtRp789
(dp790
g13
g1
(g14
g3
NtRp791
((lp792
g17
(g18
(I0
tS'b'
tRp793
((I1
(L1L
tg21
I00
(lp794
S'Var'
p795
at(Nttba(lp796
g17
(g25
(I0
tS'b'
tRp797
(I1
(L1L
tg21
I00
(lp798
g1
(g10
g3
NtRp799
(dp800
g13
g1
(g14
g3
NtRp801
((lp802
g17
(g18
(I0
tS'b'
tRp803
((I1
(L1L
tg21
I00
(lp804
S'Id'
p805
at(Nttba(lp806
g17
(g25
(I0
tS'b'
tRp807
(I1
(L1L
tg21
I00
(lp808
g1
(g10
g3
NtRp809
(dp810
g13
g1
(g14
g3
NtRp811
((lp812
g17
(g18
(I0
tS'b'
tRp813
((I1
(L1L
tg21
I00
(lp814
S'_x_'
p815
at(Nttba(lp816
g17
(g25
(I0
tS'b'
tRp817
(I1
(L1L
tg21
I00
(lp818
g1
(g10
g3
NtRp819
(dp820
g13
g1
(g14
g3
NtRp821
((lp822
g17
(g18
(I0
tS'b'
tRp823
((I1
(L0L
tg21
I00
(lt(Nttba(lp824
g17
(g25
(I0
tS'b'
tRp825
(I1
(L0L
tg21
I00
(ltba(lp826
g823
atbsg93
S'x'
sbatba(lp827
g813
atbsg93
g805
sbatba(lp828
g803
atbsg93
g795
sbatba(lp829
g793
atbsg93
g785
sbatba(lp830
g17
(g18
(I0
tS'b'
tRp831
((I1
(L1L
tg21
I00
(lp832
g785
at(Nttbatbsg93
S'Expr'
p833
sbag1
(g10
g3
NtRp834
(dp835
g13
g1
(g14
g3
NtRp836
((lp837
g17
(g18
(I0
tS'b'
tRp838
((I1
(L0L
tg21
I00
(lt(Nttba(lp839
g17
(g25
(I0
tS'b'
tRp840
(I1
(L0L
tg21
I00
(ltba(lp841
g838
atbsg93
S'**'
p842
sbag1
(g10
g3
NtRp843
(dp844
g13
g1
(g14
g3
NtRp845
((lp846
g17
(g18
(I0
tS'b'
tRp847
((I1
(L1L
tg21
I00
(lp848
S'Val'
p849
at(Nttba(lp850
g17
(g25
(I0
tS'b'
tRp851
(I1
(L1L
tg21
I00
(lp852
g1
(g10
g3
NtRp853
(dp854
g13
g1
(g14
g3
NtRp855
((lp856
g17
(g18
(I0
tS'b'
tRp857
((I1
(L1L
tg21
I00
(lp858
S'Number'
p859
at(Nttba(lp860
g17
(g25
(I0
tS'b'
tRp861
(I1
(L1L
tg21
I00
(lp862
g1
(g10
g3
NtRp863
(dp864
g13
g1
(g14
g3
NtRp865
((lp866
g17
(g18
(I0
tS'b'
tRp867
((I1
(L1L
tg21
I00
(lp868
S'Int'
p869
at(Nttba(lp870
g17
(g25
(I0
tS'b'
tRp871
(I1
(L1L
tg21
I00
(lp872
g1
(g10
g3
NtRp873
(dp874
g13
g1
(g14
g3
NtRp875
((lp876
g17
(g18
(I0
tS'b'
tRp877
((I1
(L1L
tg21
I00
(lp878
S'_2_'
p879
at(Nttba(lp880
g17
(g25
(I0
tS'b'
tRp881
(I1
(L1L
tg21
I00
(lp882
g1
(g10
g3
NtRp883
(dp884
g13
g1
(g14
g3
NtRp885
((lp886
g17
(g18
(I0
tS'b'
tRp887
((I1
(L0L
tg21
I00
(lt(Nttba(lp888
g17
(g25
(I0
tS'b'
tRp889
(I1
(L0L
tg21
I00
(ltba(lp890
g887
atbsg93
S'2'
sbatba(lp891
g877
atbsg93
g869
sbatba(lp892
g867
atbsg93
g859
sbatba(lp893
g857
atbsg93
g849
sbatba(lp894
g17
(g18
(I0
tS'b'
tRp895
((I1
(L1L
tg21
I00
(lp896
g849
at(Nttbatbsg93
S'Expr'
p897
sbatba(lp898
g771
atbsg93
g763
sbatba(lp899
g761
atbsg93
S'Expr'
p900
sbag1
(g10
g3
NtRp901
(dp902
g13
g1
(g14
g3
NtRp903
((lp904
g17
(g18
(I0
tS'b'
tRp905
((I1
(L0L
tg21
I00
(lt(Nttba(lp906
g17
(g25
(I0
tS'b'
tRp907
(I1
(L0L
tg21
I00
(ltba(lp908
g905
atbsg93
S'+'
sbag1
(g10
g3
NtRp909
(dp910
g13
g1
(g14
g3
NtRp911
((lp912
g17
(g18
(I0
tS'b'
tRp913
((I1
(L1L
tg21
I00
(lp914
S'Dot_calc'
p915
at(Nttba(lp916
g17
(g25
(I0
tS'b'
tRp917
(I1
(L1L
tg21
I00
(lp918
g1
(g10
g3
NtRp919
(dp920
g13
g1
(g14
g3
NtRp921
((lp922
g17
(g18
(I0
tS'b'
tRp923
((I1
(L3L
tg21
I00
(lp924
S'Expr1'
p925
aS'_*_'
p926
aS'Expr2'
p927
at(Nttba(lp928
g17
(g25
(I0
tS'b'
tRp929
(I1
(L3L
tg21
I00
(lp930
g1
(g10
g3
NtRp931
(dp932
g13
g1
(g14
g3
NtRp933
((lp934
g17
(g18
(I0
tS'b'
tRp935
((I1
(L1L
tg21
I00
(lp936
S'Val'
p937
at(Nttba(lp938
g17
(g25
(I0
tS'b'
tRp939
(I1
(L1L
tg21
I00
(lp940
g1
(g10
g3
NtRp941
(dp942
g13
g1
(g14
g3
NtRp943
((lp944
g17
(g18
(I0
tS'b'
tRp945
((I1
(L1L
tg21
I00
(lp946
S'Var'
p947
at(Nttba(lp948
g17
(g25
(I0
tS'b'
tRp949
(I1
(L1L
tg21
I00
(lp950
g1
(g10
g3
NtRp951
(dp952
g13
g1
(g14
g3
NtRp953
((lp954
g17
(g18
(I0
tS'b'
tRp955
((I1
(L1L
tg21
I00
(lp956
S'Id'
p957
at(Nttba(lp958
g17
(g25
(I0
tS'b'
tRp959
(I1
(L1L
tg21
I00
(lp960
g1
(g10
g3
NtRp961
(dp962
g13
g1
(g14
g3
NtRp963
((lp964
g17
(g18
(I0
tS'b'
tRp965
((I1
(L1L
tg21
I00
(lp966
S'_x_'
p967
at(Nttba(lp968
g17
(g25
(I0
tS'b'
tRp969
(I1
(L1L
tg21
I00
(lp970
g1
(g10
g3
NtRp971
(dp972
g13
g1
(g14
g3
NtRp973
((lp974
g17
(g18
(I0
tS'b'
tRp975
((I1
(L0L
tg21
I00
(lt(Nttba(lp976
g17
(g25
(I0
tS'b'
tRp977
(I1
(L0L
tg21
I00
(ltba(lp978
g975
atbsg93
S'x'
sbatba(lp979
g965
atbsg93
g957
sbatba(lp980
g955
atbsg93
g947
sbatba(lp981
g945
atbsg93
g937
sbatba(lp982
g17
(g18
(I0
tS'b'
tRp983
((I1
(L1L
tg21
I00
(lp984
g937
at(Nttbatbsg93
S'Expr'
p985
sbag1
(g10
g3
NtRp986
(dp987
g13
g1
(g14
g3
NtRp988
((lp989
g17
(g18
(I0
tS'b'
tRp990
((I1
(L0L
tg21
I00
(lt(Nttba(lp991
g17
(g25
(I0
tS'b'
tRp992
(I1
(L0L
tg21
I00
(ltba(lp993
g990
atbsg93
S'*'
sbag1
(g10
g3
NtRp994
(dp995
g13
g1
(g14
g3
NtRp996
((lp997
g17
(g18
(I0
tS'b'
tRp998
((I1
(L1L
tg21
I00
(lp999
S'Val'
p1000
at(Nttba(lp1001
g17
(g25
(I0
tS'b'
tRp1002
(I1
(L1L
tg21
I00
(lp1003
g1
(g10
g3
NtRp1004
(dp1005
g13
g1
(g14
g3
NtRp1006
((lp1007
g17
(g18
(I0
tS'b'
tRp1008
((I1
(L1L
tg21
I00
(lp1009
S'Number'
p1010
at(Nttba(lp1011
g17
(g25
(I0
tS'b'
tRp1012
(I1
(L1L
tg21
I00
(lp1013
g1
(g10
g3
NtRp1014
(dp1015
g13
g1
(g14
g3
NtRp1016
((lp1017
g17
(g18
(I0
tS'b'
tRp1018
((I1
(L1L
tg21
I00
(lp1019
S'Int'
p1020
at(Nttba(lp1021
g17
(g25
(I0
tS'b'
tRp1022
(I1
(L1L
tg21
I00
(lp1023
g1
(g10
g3
NtRp1024
(dp1025
g13
g1
(g14
g3
NtRp1026
((lp1027
g17
(g18
(I0
tS'b'
tRp1028
((I1
(L1L
tg21
I00
(lp1029
S'_4_'
p1030
at(Nttba(lp1031
g17
(g25
(I0
tS'b'
tRp1032
(I1
(L1L
tg21
I00
(lp1033
g1
(g10
g3
NtRp1034
(dp1035
g13
g1
(g14
g3
NtRp1036
((lp1037
g17
(g18
(I0
tS'b'
tRp1038
((I1
(L0L
tg21
I00
(lt(Nttba(lp1039
g17
(g25
(I0
tS'b'
tRp1040
(I1
(L0L
tg21
I00
(ltba(lp1041
g1038
atbsg93
S'4'
sbatba(lp1042
g1028
atbsg93
g1020
sbatba(lp1043
g1018
atbsg93
g1010
sbatba(lp1044
g1008
atbsg93
g1000
sbatba(lp1045
g17
(g18
(I0
tS'b'
tRp1046
((I1
(L1L
tg21
I00
(lp1047
g1000
at(Nttbatbsg93
S'Expr'
p1048
sbatba(lp1049
g923
atbsg93
g915
sbatba(lp1050
g913
atbsg93
S'Expr'
p1051
sbatba(lp1052
g749
atbsg93
g741
sbatba(lp1053
g739
atbsg93
S'Expr'
p1054
sbag1
(g10
g3
NtRp1055
(dp1056
g13
g1
(g14
g3
NtRp1057
((lp1058
g17
(g18
(I0
tS'b'
tRp1059
((I1
(L0L
tg21
I00
(lt(Nttba(lp1060
g17
(g25
(I0
tS'b'
tRp1061
(I1
(L0L
tg21
I00
(ltba(lp1062
g1059
atbsg93
S'-'
sbag1
(g10
g3
NtRp1063
(dp1064
g13
g1
(g14
g3
NtRp1065
((lp1066
g17
(g18
(I0
tS'b'
tRp1067
((I1
(L1L
tg21
I00
(lp1068
S'Dot_calc'
p1069
at(Nttba(lp1070
g17
(g25
(I0
tS'b'
tRp1071
(I1
(L1L
tg21
I00
(lp1072
g1
(g10
g3
NtRp1073
(dp1074
g13
g1
(g14
g3
NtRp1075
((lp1076
g17
(g18
(I0
tS'b'
tRp1077
((I1
(L3L
tg21
I00
(lp1078
S'Expr1'
p1079
aS'_/_'
p1080
aS'Expr2'
p1081
at(Nttba(lp1082
g17
(g25
(I0
tS'b'
tRp1083
(I1
(L3L
tg21
I00
(lp1084
g1
(g10
g3
NtRp1085
(dp1086
g13
g1
(g14
g3
NtRp1087
((lp1088
g17
(g18
(I0
tS'b'
tRp1089
((I1
(L1L
tg21
I00
(lp1090
S'Brackets'
p1091
at(Nttba(lp1092
g17
(g25
(I0
tS'b'
tRp1093
(I1
(L1L
tg21
I00
(lp1094
g1
(g10
g3
NtRp1095
(dp1096
g13
g1
(g14
g3
NtRp1097
((lp1098
g17
(g18
(I0
tS'b'
tRp1099
((I1
(L3L
tg21
I00
(lp1100
S'_(_'
p1101
aS'Expr'
p1102
aS'_)_'
p1103
at(Nttba(lp1104
g17
(g25
(I0
tS'b'
tRp1105
(I1
(L3L
tg21
I00
(lp1106
g1
(g10
g3
NtRp1107
(dp1108
g13
g1
(g14
g3
NtRp1109
((lp1110
g17
(g18
(I0
tS'b'
tRp1111
((I1
(L0L
tg21
I00
(lt(Nttba(lp1112
g17
(g25
(I0
tS'b'
tRp1113
(I1
(L0L
tg21
I00
(ltba(lp1114
g1111
atbsg93
S'('
sbag1
(g10
g3
NtRp1115
(dp1116
g13
g1
(g14
g3
NtRp1117
((lp1118
g17
(g18
(I0
tS'b'
tRp1119
((I1
(L1L
tg21
I00
(lp1120
S'Dash_calc'
p1121
at(Nttba(lp1122
g17
(g25
(I0
tS'b'
tRp1123
(I1
(L1L
tg21
I00
(lp1124
g1
(g10
g3
NtRp1125
(dp1126
g13
g1
(g14
g3
NtRp1127
((lp1128
g17
(g18
(I0
tS'b'
tRp1129
((I1
(L3L
tg21
I00
(lp1130
S'Expr1'
p1131
aS'_-_'
p1132
aS'Expr2'
p1133
at(Nttba(lp1134
g17
(g25
(I0
tS'b'
tRp1135
(I1
(L3L
tg21
I00
(lp1136
g1
(g10
g3
NtRp1137
(dp1138
g13
g1
(g14
g3
NtRp1139
((lp1140
g17
(g18
(I0
tS'b'
tRp1141
((I1
(L1L
tg21
I00
(lp1142
S'Val'
p1143
at(Nttba(lp1144
g17
(g25
(I0
tS'b'
tRp1145
(I1
(L1L
tg21
I00
(lp1146
g1
(g10
g3
NtRp1147
(dp1148
g13
g1
(g14
g3
NtRp1149
((lp1150
g17
(g18
(I0
tS'b'
tRp1151
((I1
(L1L
tg21
I00
(lp1152
S'Var'
p1153
at(Nttba(lp1154
g17
(g25
(I0
tS'b'
tRp1155
(I1
(L1L
tg21
I00
(lp1156
g1
(g10
g3
NtRp1157
(dp1158
g13
g1
(g14
g3
NtRp1159
((lp1160
g17
(g18
(I0
tS'b'
tRp1161
((I1
(L1L
tg21
I00
(lp1162
S'Id'
p1163
at(Nttba(lp1164
g17
(g25
(I0
tS'b'
tRp1165
(I1
(L1L
tg21
I00
(lp1166
g1
(g10
g3
NtRp1167
(dp1168
g13
g1
(g14
g3
NtRp1169
((lp1170
g17
(g18
(I0
tS'b'
tRp1171
((I1
(L1L
tg21
I00
(lp1172
S'_x_'
p1173
at(Nttba(lp1174
g17
(g25
(I0
tS'b'
tRp1175
(I1
(L1L
tg21
I00
(lp1176
g1
(g10
g3
NtRp1177
(dp1178
g13
g1
(g14
g3
NtRp1179
((lp1180
g17
(g18
(I0
tS'b'
tRp1181
((I1
(L0L
tg21
I00
(lt(Nttba(lp1182
g17
(g25
(I0
tS'b'
tRp1183
(I1
(L0L
tg21
I00
(ltba(lp1184
g1181
atbsg93
S'x'
sbatba(lp1185
g1171
atbsg93
g1163
sbatba(lp1186
g1161
atbsg93
g1153
sbatba(lp1187
g1151
atbsg93
g1143
sbatba(lp1188
g17
(g18
(I0
tS'b'
tRp1189
((I1
(L1L
tg21
I00
(lp1190
g1143
at(Nttbatbsg93
S'Expr'
p1191
sbag1
(g10
g3
NtRp1192
(dp1193
g13
g1
(g14
g3
NtRp1194
((lp1195
g17
(g18
(I0
tS'b'
tRp1196
((I1
(L0L
tg21
I00
(lt(Nttba(lp1197
g17
(g25
(I0
tS'b'
tRp1198
(I1
(L0L
tg21
I00
(ltba(lp1199
g1196
atbsg93
S'-'
sbag1
(g10
g3
NtRp1200
(dp1201
g13
g1
(g14
g3
NtRp1202
((lp1203
g17
(g18
(I0
tS'b'
tRp1204
((I1
(L1L
tg21
I00
(lp1205
S'Val'
p1206
at(Nttba(lp1207
g17
(g25
(I0
tS'b'
tRp1208
(I1
(L1L
tg21
I00
(lp1209
g1
(g10
g3
NtRp1210
(dp1211
g13
g1
(g14
g3
NtRp1212
((lp1213
g17
(g18
(I0
tS'b'
tRp1214
((I1
(L1L
tg21
I00
(lp1215
S'Number'
p1216
at(Nttba(lp1217
g17
(g25
(I0
tS'b'
tRp1218
(I1
(L1L
tg21
I00
(lp1219
g1
(g10
g3
NtRp1220
(dp1221
g13
g1
(g14
g3
NtRp1222
((lp1223
g17
(g18
(I0
tS'b'
tRp1224
((I1
(L1L
tg21
I00
(lp1225
S'Int'
p1226
at(Nttba(lp1227
g17
(g25
(I0
tS'b'
tRp1228
(I1
(L1L
tg21
I00
(lp1229
g1
(g10
g3
NtRp1230
(dp1231
g13
g1
(g14
g3
NtRp1232
((lp1233
g17
(g18
(I0
tS'b'
tRp1234
((I1
(L1L
tg21
I00
(lp1235
S'_3_'
p1236
at(Nttba(lp1237
g17
(g25
(I0
tS'b'
tRp1238
(I1
(L1L
tg21
I00
(lp1239
g1
(g10
g3
NtRp1240
(dp1241
g13
g1
(g14
g3
NtRp1242
((lp1243
g17
(g18
(I0
tS'b'
tRp1244
((I1
(L0L
tg21
I00
(lt(Nttba(lp1245
g17
(g25
(I0
tS'b'
tRp1246
(I1
(L0L
tg21
I00
(ltba(lp1247
g1244
atbsg93
S'3'
sbatba(lp1248
g1234
atbsg93
g1226
sbatba(lp1249
g1224
atbsg93
g1216
sbatba(lp1250
g1214
atbsg93
g1206
sbatba(lp1251
g17
(g18
(I0
tS'b'
tRp1252
((I1
(L1L
tg21
I00
(lp1253
g1206
at(Nttbatbsg93
S'Expr'
p1254
sbatba(lp1255
g1129
atbsg93
g1121
sbatba(lp1256
g1119
atbsg93
S'Expr'
p1257
sbag1
(g10
g3
NtRp1258
(dp1259
g13
g1
(g14
g3
NtRp1260
((lp1261
g17
(g18
(I0
tS'b'
tRp1262
((I1
(L0L
tg21
I00
(lt(Nttba(lp1263
g17
(g25
(I0
tS'b'
tRp1264
(I1
(L0L
tg21
I00
(ltba(lp1265
g1262
atbsg93
S')'
sbatba(lp1266
g1099
atbsg93
g1091
sbatba(lp1267
g1089
atbsg93
S'Expr'
p1268
sbag1
(g10
g3
NtRp1269
(dp1270
g13
g1
(g14
g3
NtRp1271
((lp1272
g17
(g18
(I0
tS'b'
tRp1273
((I1
(L0L
tg21
I00
(lt(Nttba(lp1274
g17
(g25
(I0
tS'b'
tRp1275
(I1
(L0L
tg21
I00
(ltba(lp1276
g1273
atbsg93
S'/'
sbag1
(g10
g3
NtRp1277
(dp1278
g13
g1
(g14
g3
NtRp1279
((lp1280
g17
(g18
(I0
tS'b'
tRp1281
((I1
(L1L
tg21
I00
(lp1282
S'Val'
p1283
at(Nttba(lp1284
g17
(g25
(I0
tS'b'
tRp1285
(I1
(L1L
tg21
I00
(lp1286
g1
(g10
g3
NtRp1287
(dp1288
g13
g1
(g14
g3
NtRp1289
((lp1290
g17
(g18
(I0
tS'b'
tRp1291
((I1
(L1L
tg21
I00
(lp1292
S'Var'
p1293
at(Nttba(lp1294
g17
(g25
(I0
tS'b'
tRp1295
(I1
(L1L
tg21
I00
(lp1296
g1
(g10
g3
NtRp1297
(dp1298
g13
g1
(g14
g3
NtRp1299
((lp1300
g17
(g18
(I0
tS'b'
tRp1301
((I1
(L1L
tg21
I00
(lp1302
S'Id'
p1303
at(Nttba(lp1304
g17
(g25
(I0
tS'b'
tRp1305
(I1
(L1L
tg21
I00
(lp1306
g1
(g10
g3
NtRp1307
(dp1308
g13
g1
(g14
g3
NtRp1309
((lp1310
g17
(g18
(I0
tS'b'
tRp1311
((I1
(L1L
tg21
I00
(lp1312
S'_x_'
p1313
at(Nttba(lp1314
g17
(g25
(I0
tS'b'
tRp1315
(I1
(L1L
tg21
I00
(lp1316
g1
(g10
g3
NtRp1317
(dp1318
g13
g1
(g14
g3
NtRp1319
((lp1320
g17
(g18
(I0
tS'b'
tRp1321
((I1
(L0L
tg21
I00
(lt(Nttba(lp1322
g17
(g25
(I0
tS'b'
tRp1323
(I1
(L0L
tg21
I00
(ltba(lp1324
g1321
atbsg93
S'x'
sbatba(lp1325
g1311
atbsg93
g1303
sbatba(lp1326
g1301
atbsg93
g1293
sbatba(lp1327
g1291
atbsg93
g1283
sbatba(lp1328
g17
(g18
(I0
tS'b'
tRp1329
((I1
(L1L
tg21
I00
(lp1330
g1283
at(Nttbatbsg93
S'Expr'
p1331
sbatba(lp1332
g1077
atbsg93
g1069
sbatba(lp1333
g1067
atbsg93
S'Expr'
p1334
sbatba(lp1335
g727
atbsg93
g719
sbatba(lp1336
g717
atbsg93
S'Expr'
p1337
sbag1
(g10
g3
NtRp1338
(dp1339
g13
g1
(g14
g3
NtRp1340
((lp1341
g17
(g18
(I0
tS'b'
tRp1342
((I1
(L0L
tg21
I00
(lt(Nttba(lp1343
g17
(g25
(I0
tS'b'
tRp1344
(I1
(L0L
tg21
I00
(ltba(lp1345
g1342
atbsg93
S'-'
sbag1
(g10
g3
NtRp1346
(dp1347
g13
g1
(g14
g3
NtRp1348
((lp1349
g17
(g18
(I0
tS'b'
tRp1350
((I1
(L1L
tg21
I00
(lp1351
S'Val'
p1352
at(Nttba(lp1353
g17
(g25
(I0
tS'b'
tRp1354
(I1
(L1L
tg21
I00
(lp1355
g1
(g10
g3
NtRp1356
(dp1357
g13
g1
(g14
g3
NtRp1358
((lp1359
g17
(g18
(I0
tS'b'
tRp1360
((I1
(L1L
tg21
I00
(lp1361
S'Number'
p1362
at(Nttba(lp1363
g17
(g25
(I0
tS'b'
tRp1364
(I1
(L1L
tg21
I00
(lp1365
g1
(g10
g3
NtRp1366
(dp1367
g13
g1
(g14
g3
NtRp1368
((lp1369
g17
(g18
(I0
tS'b'
tRp1370
((I1
(L1L
tg21
I00
(lp1371
S'Float'
p1372
at(Nttba(lp1373
g17
(g25
(I0
tS'b'
tRp1374
(I1
(L1L
tg21
I00
(lp1375
g1
(g10
g3
NtRp1376
(dp1377
g13
g1
(g14
g3
NtRp1378
((lp1379
g17
(g18
(I0
tS'b'
tRp1380
((I1
(L1L
tg21
I00
(lp1381
S'_1.3e2_'
p1382
at(Nttba(lp1383
g17
(g25
(I0
tS'b'
tRp1384
(I1
(L1L
tg21
I00
(lp1385
g1
(g10
g3
NtRp1386
(dp1387
g13
g1
(g14
g3
NtRp1388
((lp1389
g17
(g18
(I0
tS'b'
tRp1390
((I1
(L0L
tg21
I00
(lt(Nttba(lp1391
g17
(g25
(I0
tS'b'
tRp1392
(I1
(L0L
tg21
I00
(ltba(lp1393
g1390
atbsg93
S'1.3e2'
p1394
sbatba(lp1395
g1380
atbsg93
g1372
sbatba(lp1396
g1370
atbsg93
g1362
sbatba(lp1397
g1360
atbsg93
g1352
sbatba(lp1398
g17
(g18
(I0
tS'b'
tRp1399
((I1
(L1L
tg21
I00
(lp1400
g1352
at(Nttbatbsg93
S'Expr'
p1401
sbatba(lp1402
g705
atbsg93
g697
sbatba(lp1403
g695
atbsg93
S'Expr'
p1404
sbag1
(g10
g3
NtRp1405
(dp1406
g13
g1
(g14
g3
NtRp1407
((lp1408
g17
(g18
(I0
tS'b'
tRp1409
((I1
(L0L
tg21
I00
(lt(Nttba(lp1410
g17
(g25
(I0
tS'b'
tRp1411
(I1
(L0L
tg21
I00
(ltba(lp1412
g1409
atbsg93
S'+'
sbag1
(g10
g3
NtRp1413
(dp1414
g13
g1
(g14
g3
NtRp1415
((lp1416
g17
(g18
(I0
tS'b'
tRp1417
((I1
(L1L
tg21
I00
(lp1418
S'Val'
p1419
at(Nttba(lp1420
g17
(g25
(I0
tS'b'
tRp1421
(I1
(L1L
tg21
I00
(lp1422
g1
(g10
g3
NtRp1423
(dp1424
g13
g1
(g14
g3
NtRp1425
((lp1426
g17
(g18
(I0
tS'b'
tRp1427
((I1
(L1L
tg21
I00
(lp1428
S'Number'
p1429
at(Nttba(lp1430
g17
(g25
(I0
tS'b'
tRp1431
(I1
(L1L
tg21
I00
(lp1432
g1
(g10
g3
NtRp1433
(dp1434
g13
g1
(g14
g3
NtRp1435
((lp1436
g17
(g18
(I0
tS'b'
tRp1437
((I1
(L1L
tg21
I00
(lp1438
S'Int'
p1439
at(Nttba(lp1440
g17
(g25
(I0
tS'b'
tRp1441
(I1
(L1L
tg21
I00
(lp1442
g1
(g10
g3
NtRp1443
(dp1444
g13
g1
(g14
g3
NtRp1445
((lp1446
g17
(g18
(I0
tS'b'
tRp1447
((I1
(L1L
tg21
I00
(lp1448
S'_2_'
p1449
at(Nttba(lp1450
g17
(g25
(I0
tS'b'
tRp1451
(I1
(L1L
tg21
I00
(lp1452
g1
(g10
g3
NtRp1453
(dp1454
g13
g1
(g14
g3
NtRp1455
((lp1456
g17
(g18
(I0
tS'b'
tRp1457
((I1
(L0L
tg21
I00
(lt(Nttba(lp1458
g17
(g25
(I0
tS'b'
tRp1459
(I1
(L0L
tg21
I00
(ltba(lp1460
g1457
atbsg93
S'2'
sbatba(lp1461
g1447
atbsg93
g1439
sbatba(lp1462
g1437
atbsg93
g1429
sbatba(lp1463
g1427
atbsg93
g1419
sbatba(lp1464
g17
(g18
(I0
tS'b'
tRp1465
((I1
(L1L
tg21
I00
(lp1466
g1419
at(Nttbatbsg93
S'Expr'
p1467
sbatba(lp1468
g683
atbsg93
g675
sbatba(lp1469
g673
atbsg93
S'Expr'
p1470
sbag1
(g10
g3
NtRp1471
(dp1472
g13
g1
(g14
g3
NtRp1473
((lp1474
g17
(g18
(I0
tS'b'
tRp1475
((I1
(L0L
tg21
I00
(lt(Nttba(lp1476
g17
(g25
(I0
tS'b'
tRp1477
(I1
(L0L
tg21
I00
(ltba(lp1478
g1475
atbsg93
S'+'
sbag1
(g10
g3
NtRp1479
(dp1480
g13
g1
(g14
g3
NtRp1481
((lp1482
g17
(g18
(I0
tS'b'
tRp1483
((I1
(L1L
tg21
I00
(lp1484
S'Val'
p1485
at(Nttba(lp1486
g17
(g25
(I0
tS'b'
tRp1487
(I1
(L1L
tg21
I00
(lp1488
g1
(g10
g3
NtRp1489
(dp1490
g13
g1
(g14
g3
NtRp1491
((lp1492
g17
(g18
(I0
tS'b'
tRp1493
((I1
(L1L
tg21
I00
(lp1494
S'Number'
p1495
at(Nttba(lp1496
g17
(g25
(I0
tS'b'
tRp1497
(I1
(L1L
tg21
I00
(lp1498
g1
(g10
g3
NtRp1499
(dp1500
g13
g1
(g14
g3
NtRp1501
((lp1502
g17
(g18
(I0
tS'b'
tRp1503
((I1
(L1L
tg21
I00
(lp1504
S'Int'
p1505
at(Nttba(lp1506
g17
(g25
(I0
tS'b'
tRp1507
(I1
(L1L
tg21
I00
(lp1508
g1
(g10
g3
NtRp1509
(dp1510
g13
g1
(g14
g3
NtRp1511
((lp1512
g17
(g18
(I0
tS'b'
tRp1513
((I1
(L1L
tg21
I00
(lp1514
S'_5_'
p1515
at(Nttba(lp1516
g17
(g25
(I0
tS'b'
tRp1517
(I1
(L1L
tg21
I00
(lp1518
g1
(g10
g3
NtRp1519
(dp1520
g13
g1
(g14
g3
NtRp1521
((lp1522
g17
(g18
(I0
tS'b'
tRp1523
((I1
(L0L
tg21
I00
(lt(Nttba(lp1524
g17
(g25
(I0
tS'b'
tRp1525
(I1
(L0L
tg21
I00
(ltba(lp1526
g1523
atbsg93
S'5'
sbatba(lp1527
g1513
atbsg93
g1505
sbatba(lp1528
g1503
atbsg93
g1495
sbatba(lp1529
g1493
atbsg93
g1485
sbatba(lp1530
g17
(g18
(I0
tS'b'
tRp1531
((I1
(L1L
tg21
I00
(lp1532
g1485
at(Nttbatbsg93
S'Expr'
p1533
sbatba(lp1534
g661
atbsg93
g653
sbatba(lp1535
g651
atbsg93
S'Expr'
p1536
sbatba(lp1537
g641
atbsg93
g624
sbatba(lp1538
g621
atbsg93
g612
sbag1
(g10
g3
NtRp1539
(dp1540
g13
g1
(g14
g3
NtRp1541
((lp1542
g17
(g18
(I0
tS'b'
tRp1543
((I1
(L0L
tg21
I00
(lt(Nttba(lp1544
g17
(g25
(I0
tS'b'
tRp1545
(I1
(L0L
tg21
I00
(ltba(lp1546
g1543
atbsg93
S';'
sbatba(lp1547
g610
atbsg93
g602
sbatba(lp1548
g600
atbsg93
S'Stmt'
p1549
sbatba(lp1550
g490
atbsg93
g461
sbag1
(g10
g3
NtRp1551
(dp1552
g13
g1
(g14
g3
NtRp1553
((lp1554
g17
(g18
(I0
tS'b'
tRp1555
((I1
(L1L
tg21
I00
(lp1556
S'_$blockend_'
p1557
at(Nttba(lp1558
g17
(g25
(I0
tS'b'
tRp1559
(I1
(L1L
tg21
I00
(lp1560
g1
(g10
g3
NtRp1561
(dp1562
g13
g1
(g14
g3
NtRp1563
((lp1564
g17
(g18
(I0
tS'b'
tRp1565
((I1
(L0L
tg21
I00
(lt(Nttba(lp1566
g17
(g25
(I0
tS'b'
tRp1567
(I1
(L0L
tg21
I00
(ltba(lp1568
g1565
atbsg93
S'$blockend'
p1569
sbatba(lp1570
g1555
atbsg93
g462
sbatba(lp1571
g458
atbsg93
g317
sbatba(lp1572
g314
atbsg93
g306
sbatba(lp1573
g304
atbsg93
S'Stmt'
p1574
sbag1
(g10
g3
NtRp1575
(dp1576
g13
g1
(g14
g3
NtRp1577
((lp1578
g17
(g18
(I0
tS'b'
tRp1579
((I1
(L1L
tg21
I00
(lp1580
S'Block_stmt'
p1581
at(Nttba(lp1582
g17
(g25
(I0
tS'b'
tRp1583
(I1
(L1L
tg21
I00
(lp1584
g1
(g10
g3
NtRp1585
(dp1586
g13
g1
(g14
g3
NtRp1587
((lp1588
g17
(g18
(I0
tS'b'
tRp1589
((I1
(L1L
tg21
I00
(lp1590
S'Ifelse'
p1591
at(Nttba(lp1592
g17
(g25
(I0
tS'b'
tRp1593
(I1
(L1L
tg21
I00
(lp1594
g1
(g10
g3
NtRp1595
(dp1596
g13
g1
(g14
g3
NtRp1597
((lp1598
g17
(g18
(I0
tS'b'
tRp1599
((I1
(L2L
tg21
I00
(lp1600
S'If'
p1601
aS'Block'
p1602
at(Nttba(lp1603
g17
(g25
(I0
tS'b'
tRp1604
(I1
(L2L
tg21
I00
(lp1605
g1
(g10
g3
NtRp1606
(dp1607
g13
g1
(g14
g3
NtRp1608
((lp1609
g17
(g18
(I0
tS'b'
tRp1610
((I1
(L2L
tg21
I00
(lp1611
S'_if_'
p1612
aS'Expr'
p1613
at(Nttba(lp1614
g17
(g25
(I0
tS'b'
tRp1615
(I1
(L2L
tg21
I00
(lp1616
g1
(g10
g3
NtRp1617
(dp1618
g13
g1
(g14
g3
NtRp1619
((lp1620
g17
(g18
(I0
tS'b'
tRp1621
((I1
(L0L
tg21
I00
(lt(Nttba(lp1622
g17
(g25
(I0
tS'b'
tRp1623
(I1
(L0L
tg21
I00
(ltba(lp1624
g1621
atbsg93
S'if'
p1625
sbag1
(g10
g3
NtRp1626
(dp1627
g13
g1
(g14
g3
NtRp1628
((lp1629
g17
(g18
(I0
tS'b'
tRp1630
((I1
(L1L
tg21
I00
(lp1631
S'Comparison'
p1632
at(Nttba(lp1633
g17
(g25
(I0
tS'b'
tRp1634
(I1
(L1L
tg21
I00
(lp1635
g1
(g10
g3
NtRp1636
(dp1637
g13
g1
(g14
g3
NtRp1638
((lp1639
g17
(g18
(I0
tS'b'
tRp1640
((I1
(L3L
tg21
I00
(lp1641
S'Expr1'
p1642
aS'Op_cmp'
p1643
aS'Expr2'
p1644
at(Nttba(lp1645
g17
(g25
(I0
tS'b'
tRp1646
(I1
(L3L
tg21
I00
(lp1647
g1
(g10
g3
NtRp1648
(dp1649
g13
g1
(g14
g3
NtRp1650
((lp1651
g17
(g18
(I0
tS'b'
tRp1652
((I1
(L1L
tg21
I00
(lp1653
S'Val'
p1654
at(Nttba(lp1655
g17
(g25
(I0
tS'b'
tRp1656
(I1
(L1L
tg21
I00
(lp1657
g1
(g10
g3
NtRp1658
(dp1659
g13
g1
(g14
g3
NtRp1660
((lp1661
g17
(g18
(I0
tS'b'
tRp1662
((I1
(L1L
tg21
I00
(lp1663
S'Var'
p1664
at(Nttba(lp1665
g17
(g25
(I0
tS'b'
tRp1666
(I1
(L1L
tg21
I00
(lp1667
g1
(g10
g3
NtRp1668
(dp1669
g13
g1
(g14
g3
NtRp1670
((lp1671
g17
(g18
(I0
tS'b'
tRp1672
((I1
(L1L
tg21
I00
(lp1673
S'Id'
p1674
at(Nttba(lp1675
g17
(g25
(I0
tS'b'
tRp1676
(I1
(L1L
tg21
I00
(lp1677
g1
(g10
g3
NtRp1678
(dp1679
g13
g1
(g14
g3
NtRp1680
((lp1681
g17
(g18
(I0
tS'b'
tRp1682
((I1
(L1L
tg21
I00
(lp1683
S'___name___'
p1684
at(Nttba(lp1685
g17
(g25
(I0
tS'b'
tRp1686
(I1
(L1L
tg21
I00
(lp1687
g1
(g10
g3
NtRp1688
(dp1689
g13
g1
(g14
g3
NtRp1690
((lp1691
g17
(g18
(I0
tS'b'
tRp1692
((I1
(L0L
tg21
I00
(lt(Nttba(lp1693
g17
(g25
(I0
tS'b'
tRp1694
(I1
(L0L
tg21
I00
(ltba(lp1695
g1692
atbsg93
S'__name__'
p1696
sbatba(lp1697
g1682
atbsg93
g1674
sbatba(lp1698
g1672
atbsg93
g1664
sbatba(lp1699
g1662
atbsg93
g1654
sbatba(lp1700
g17
(g18
(I0
tS'b'
tRp1701
((I1
(L1L
tg21
I00
(lp1702
g1654
at(Nttbatbsg93
S'Expr'
p1703
sbag1
(g10
g3
NtRp1704
(dp1705
g13
g1
(g14
g3
NtRp1706
((lp1707
g17
(g18
(I0
tS'b'
tRp1708
((I1
(L1L
tg21
I00
(lp1709
S'_==_'
p1710
at(Nttba(lp1711
g17
(g25
(I0
tS'b'
tRp1712
(I1
(L1L
tg21
I00
(lp1713
g1
(g10
g3
NtRp1714
(dp1715
g13
g1
(g14
g3
NtRp1716
((lp1717
g17
(g18
(I0
tS'b'
tRp1718
((I1
(L0L
tg21
I00
(lt(Nttba(lp1719
g17
(g25
(I0
tS'b'
tRp1720
(I1
(L0L
tg21
I00
(ltba(lp1721
g1718
atbsg93
S'=='
p1722
sbatba(lp1723
g1708
atbsg93
g1643
sbag1
(g10
g3
NtRp1724
(dp1725
g13
g1
(g14
g3
NtRp1726
((lp1727
g17
(g18
(I0
tS'b'
tRp1728
((I1
(L1L
tg21
I00
(lp1729
S'Val'
p1730
at(Nttba(lp1731
g17
(g25
(I0
tS'b'
tRp1732
(I1
(L1L
tg21
I00
(lp1733
g1
(g10
g3
NtRp1734
(dp1735
g13
g1
(g14
g3
NtRp1736
((lp1737
g17
(g18
(I0
tS'b'
tRp1738
((I1
(L1L
tg21
I00
(lp1739
S'String'
p1740
at(Nttba(lp1741
g17
(g25
(I0
tS'b'
tRp1742
(I1
(L1L
tg21
I00
(lp1743
g1
(g10
g3
NtRp1744
(dp1745
g13
g1
(g14
g3
NtRp1746
((lp1747
g17
(g18
(I0
tS'b'
tRp1748
((I1
(L1L
tg21
I00
(lp1749
S'Str_val'
p1750
at(Nttba(lp1751
g17
(g25
(I0
tS'b'
tRp1752
(I1
(L1L
tg21
I00
(lp1753
g1
(g10
g3
NtRp1754
(dp1755
g13
g1
(g14
g3
NtRp1756
((lp1757
g17
(g18
(I0
tS'b'
tRp1758
((I1
(L1L
tg21
I00
(lp1759
S"_'__main__'_"
p1760
at(Nttba(lp1761
g17
(g25
(I0
tS'b'
tRp1762
(I1
(L1L
tg21
I00
(lp1763
g1
(g10
g3
NtRp1764
(dp1765
g13
g1
(g14
g3
NtRp1766
((lp1767
g17
(g18
(I0
tS'b'
tRp1768
((I1
(L0L
tg21
I00
(lt(Nttba(lp1769
g17
(g25
(I0
tS'b'
tRp1770
(I1
(L0L
tg21
I00
(ltba(lp1771
g1768
atbsg93
S'"__main__"'
p1772
sbatba(lp1773
g1758
atbsg93
g1750
sbatba(lp1774
g1748
atbsg93
g1740
sbatba(lp1775
g1738
atbsg93
g1730
sbatba(lp1776
g17
(g18
(I0
tS'b'
tRp1777
((I1
(L1L
tg21
I00
(lp1778
g1730
at(Nttbatbsg93
S'Expr'
p1779
sbatba(lp1780
g1640
atbsg93
g1632
sbatba(lp1781
g1630
atbsg93
S'Expr'
p1782
sbatba(lp1783
g1610
atbsg93
g1601
sbag1
(g10
g3
NtRp1784
(dp1785
g13
g1
(g14
g3
NtRp1786
((lp1787
g17
(g18
(I0
tS'b'
tRp1788
((I1
(L3L
tg21
I00
(lp1789
S'Blockbegin'
p1790
aS'Prog'
p1791
aS'Blockend'
p1792
at(Nttba(lp1793
g17
(g25
(I0
tS'b'
tRp1794
(I1
(L3L
tg21
I00
(lp1795
g1
(g10
g3
NtRp1796
(dp1797
g13
g1
(g14
g3
NtRp1798
((lp1799
g17
(g18
(I0
tS'b'
tRp1800
((I1
(L1L
tg21
I00
(lp1801
S'_:$blockbegin_'
p1802
at(Nttba(lp1803
g17
(g25
(I0
tS'b'
tRp1804
(I1
(L1L
tg21
I00
(lp1805
g1
(g10
g3
NtRp1806
(dp1807
g13
g1
(g14
g3
NtRp1808
((lp1809
g17
(g18
(I0
tS'b'
tRp1810
((I1
(L0L
tg21
I00
(lt(Nttba(lp1811
g17
(g25
(I0
tS'b'
tRp1812
(I1
(L0L
tg21
I00
(ltba(lp1813
g1810
atbsg93
S':$blockbegin'
p1814
sbatba(lp1815
g1800
atbsg93
g1790
sbag1
(g10
g3
NtRp1816
(dp1817
g13
g1
(g14
g3
NtRp1818
((lp1819
g17
(g18
(I0
tS'b'
tRp1820
((I1
(L3L
tg21
I00
(lp1821
S'Stmt1'
p1822
aS'Stmt2'
p1823
aS'Stmt3'
p1824
at(Nttba(lp1825
g17
(g25
(I0
tS'b'
tRp1826
(I1
(L3L
tg21
I00
(lp1827
g1
(g10
g3
NtRp1828
(dp1829
g13
g1
(g14
g3
NtRp1830
((lp1831
g17
(g18
(I0
tS'b'
tRp1832
((I1
(L1L
tg21
I00
(lp1833
S'Single_stmt'
p1834
at(Nttba(lp1835
g17
(g25
(I0
tS'b'
tRp1836
(I1
(L1L
tg21
I00
(lp1837
g1
(g10
g3
NtRp1838
(dp1839
g13
g1
(g14
g3
NtRp1840
((lp1841
g17
(g18
(I0
tS'b'
tRp1842
((I1
(L2L
tg21
I00
(lp1843
S'Assign_stmt'
p1844
aS'_;_'
p1845
at(Nttba(lp1846
g17
(g25
(I0
tS'b'
tRp1847
(I1
(L2L
tg21
I00
(lp1848
g1
(g10
g3
NtRp1849
(dp1850
g13
g1
(g14
g3
NtRp1851
((lp1852
g17
(g18
(I0
tS'b'
tRp1853
((I1
(L1L
tg21
I00
(lp1854
S'Assign'
p1855
at(Nttba(lp1856
g17
(g25
(I0
tS'b'
tRp1857
(I1
(L1L
tg21
I00
(lp1858
g1
(g10
g3
NtRp1859
(dp1860
g13
g1
(g14
g3
NtRp1861
((lp1862
g17
(g18
(I0
tS'b'
tRp1863
((I1
(L3L
tg21
I00
(lp1864
S'Varlist'
p1865
aS'_=_'
p1866
aS'Exprlist'
p1867
at(Nttba(lp1868
g17
(g25
(I0
tS'b'
tRp1869
(I1
(L3L
tg21
I00
(lp1870
g1
(g10
g3
NtRp1871
(dp1872
g13
g1
(g14
g3
NtRp1873
((lp1874
g17
(g18
(I0
tS'b'
tRp1875
((I1
(L1L
tg21
I00
(lp1876
S'Vartuple'
p1877
at(Nttba(lp1878
g17
(g25
(I0
tS'b'
tRp1879
(I1
(L1L
tg21
I00
(lp1880
g1
(g10
g3
NtRp1881
(dp1882
g13
g1
(g14
g3
NtRp1883
((lp1884
g17
(g18
(I0
tS'b'
tRp1885
((I1
(L1L
tg21
I00
(lp1886
S'Var'
p1887
at(Nttba(lp1888
g17
(g25
(I0
tS'b'
tRp1889
(I1
(L1L
tg21
I00
(lp1890
g1
(g10
g3
NtRp1891
(dp1892
g13
g1
(g14
g3
NtRp1893
((lp1894
g17
(g18
(I0
tS'b'
tRp1895
((I1
(L1L
tg21
I00
(lp1896
S'Id'
p1897
at(Nttba(lp1898
g17
(g25
(I0
tS'b'
tRp1899
(I1
(L1L
tg21
I00
(lp1900
g1
(g10
g3
NtRp1901
(dp1902
g13
g1
(g14
g3
NtRp1903
((lp1904
g17
(g18
(I0
tS'b'
tRp1905
((I1
(L1L
tg21
I00
(lp1906
S'_L_'
p1907
at(Nttba(lp1908
g17
(g25
(I0
tS'b'
tRp1909
(I1
(L1L
tg21
I00
(lp1910
g1
(g10
g3
NtRp1911
(dp1912
g13
g1
(g14
g3
NtRp1913
((lp1914
g17
(g18
(I0
tS'b'
tRp1915
((I1
(L0L
tg21
I00
(lt(Nttba(lp1916
g17
(g25
(I0
tS'b'
tRp1917
(I1
(L0L
tg21
I00
(ltba(lp1918
g1915
atbsg93
S'L'
sbatba(lp1919
g1905
atbsg93
g1897
sbatba(lp1920
g1895
atbsg93
g1887
sbatba(lp1921
g1885
atbsg93
g1877
sbatba(lp1922
g1875
atbsg93
g1865
sbag1
(g10
g3
NtRp1923
(dp1924
g13
g1
(g14
g3
NtRp1925
((lp1926
g17
(g18
(I0
tS'b'
tRp1927
((I1
(L0L
tg21
I00
(lt(Nttba(lp1928
g17
(g25
(I0
tS'b'
tRp1929
(I1
(L0L
tg21
I00
(ltba(lp1930
g1927
atbsg93
S'='
sbag1
(g10
g3
NtRp1931
(dp1932
g13
g1
(g14
g3
NtRp1933
((lp1934
g17
(g18
(I0
tS'b'
tRp1935
((I1
(L1L
tg21
I00
(lp1936
S'Expr'
p1937
at(Nttba(lp1938
g17
(g25
(I0
tS'b'
tRp1939
(I1
(L1L
tg21
I00
(lp1940
g1
(g10
g3
NtRp1941
(dp1942
g13
g1
(g14
g3
NtRp1943
((lp1944
g17
(g18
(I0
tS'b'
tRp1945
((I1
(L1L
tg21
I00
(lp1946
S'Dot_calc'
p1947
at(Nttba(lp1948
g17
(g25
(I0
tS'b'
tRp1949
(I1
(L1L
tg21
I00
(lp1950
g1
(g10
g3
NtRp1951
(dp1952
g13
g1
(g14
g3
NtRp1953
((lp1954
g17
(g18
(I0
tS'b'
tRp1955
((I1
(L3L
tg21
I00
(lp1956
S'Expr1'
p1957
aS'_*_'
p1958
aS'Expr2'
p1959
at(Nttba(lp1960
g17
(g25
(I0
tS'b'
tRp1961
(I1
(L3L
tg21
I00
(lp1962
g1
(g10
g3
NtRp1963
(dp1964
g13
g1
(g14
g3
NtRp1965
((lp1966
g17
(g18
(I0
tS'b'
tRp1967
((I1
(L1L
tg21
I00
(lp1968
S'Val'
p1969
at(Nttba(lp1970
g17
(g25
(I0
tS'b'
tRp1971
(I1
(L1L
tg21
I00
(lp1972
g1
(g10
g3
NtRp1973
(dp1974
g13
g1
(g14
g3
NtRp1975
((lp1976
g17
(g18
(I0
tS'b'
tRp1977
((I1
(L1L
tg21
I00
(lp1978
S'List'
p1979
at(Nttba(lp1980
g17
(g25
(I0
tS'b'
tRp1981
(I1
(L1L
tg21
I00
(lp1982
g1
(g10
g3
NtRp1983
(dp1984
g13
g1
(g14
g3
NtRp1985
((lp1986
g17
(g18
(I0
tS'b'
tRp1987
((I1
(L3L
tg21
I00
(lp1988
S'_[_'
p1989
aS'Exprlist'
p1990
aS'_]_'
p1991
at(Nttba(lp1992
g17
(g25
(I0
tS'b'
tRp1993
(I1
(L3L
tg21
I00
(lp1994
g1
(g10
g3
NtRp1995
(dp1996
g13
g1
(g14
g3
NtRp1997
((lp1998
g17
(g18
(I0
tS'b'
tRp1999
((I1
(L0L
tg21
I00
(lt(Nttba(lp2000
g17
(g25
(I0
tS'b'
tRp2001
(I1
(L0L
tg21
I00
(ltba(lp2002
g1999
atbsg93
S'['
sbag1
(g10
g3
NtRp2003
(dp2004
g13
g1
(g14
g3
NtRp2005
((lp2006
g17
(g18
(I0
tS'b'
tRp2007
((I1
(L1L
tg21
I00
(lp2008
S'Expr'
p2009
at(Nttba(lp2010
g17
(g25
(I0
tS'b'
tRp2011
(I1
(L1L
tg21
I00
(lp2012
g1
(g10
g3
NtRp2013
(dp2014
g13
g1
(g14
g3
NtRp2015
((lp2016
g17
(g18
(I0
tS'b'
tRp2017
((I1
(L1L
tg21
I00
(lp2018
S'Val'
p2019
at(Nttba(lp2020
g17
(g25
(I0
tS'b'
tRp2021
(I1
(L1L
tg21
I00
(lp2022
g1
(g10
g3
NtRp2023
(dp2024
g13
g1
(g14
g3
NtRp2025
((lp2026
g17
(g18
(I0
tS'b'
tRp2027
((I1
(L1L
tg21
I00
(lp2028
S'Number'
p2029
at(Nttba(lp2030
g17
(g25
(I0
tS'b'
tRp2031
(I1
(L1L
tg21
I00
(lp2032
g1
(g10
g3
NtRp2033
(dp2034
g13
g1
(g14
g3
NtRp2035
((lp2036
g17
(g18
(I0
tS'b'
tRp2037
((I1
(L1L
tg21
I00
(lp2038
S'Int'
p2039
at(Nttba(lp2040
g17
(g25
(I0
tS'b'
tRp2041
(I1
(L1L
tg21
I00
(lp2042
g1
(g10
g3
NtRp2043
(dp2044
g13
g1
(g14
g3
NtRp2045
((lp2046
g17
(g18
(I0
tS'b'
tRp2047
((I1
(L1L
tg21
I00
(lp2048
S'_0_'
p2049
at(Nttba(lp2050
g17
(g25
(I0
tS'b'
tRp2051
(I1
(L1L
tg21
I00
(lp2052
g1
(g10
g3
NtRp2053
(dp2054
g13
g1
(g14
g3
NtRp2055
((lp2056
g17
(g18
(I0
tS'b'
tRp2057
((I1
(L0L
tg21
I00
(lt(Nttba(lp2058
g17
(g25
(I0
tS'b'
tRp2059
(I1
(L0L
tg21
I00
(ltba(lp2060
g2057
atbsg93
S'0'
sbatba(lp2061
g2047
atbsg93
g2039
sbatba(lp2062
g2037
atbsg93
g2029
sbatba(lp2063
g2027
atbsg93
g2019
sbatba(lp2064
g17
(g18
(I0
tS'b'
tRp2065
((I1
(L1L
tg21
I00
(lp2066
g2019
at(Nttbatbsg93
S'Expr'
p2067
sbatba(lp2068
g2007
atbsg93
g1990
sbag1
(g10
g3
NtRp2069
(dp2070
g13
g1
(g14
g3
NtRp2071
((lp2072
g17
(g18
(I0
tS'b'
tRp2073
((I1
(L0L
tg21
I00
(lt(Nttba(lp2074
g17
(g25
(I0
tS'b'
tRp2075
(I1
(L0L
tg21
I00
(ltba(lp2076
g2073
atbsg93
S']'
sbatba(lp2077
g1987
atbsg93
g1979
sbatba(lp2078
g1977
atbsg93
g1969
sbatba(lp2079
g17
(g18
(I0
tS'b'
tRp2080
((I1
(L1L
tg21
I00
(lp2081
g1969
at(Nttbatbsg93
S'Expr'
p2082
sbag1
(g10
g3
NtRp2083
(dp2084
g13
g1
(g14
g3
NtRp2085
((lp2086
g17
(g18
(I0
tS'b'
tRp2087
((I1
(L0L
tg21
I00
(lt(Nttba(lp2088
g17
(g25
(I0
tS'b'
tRp2089
(I1
(L0L
tg21
I00
(ltba(lp2090
g2087
atbsg93
S'*'
sbag1
(g10
g3
NtRp2091
(dp2092
g13
g1
(g14
g3
NtRp2093
((lp2094
g17
(g18
(I0
tS'b'
tRp2095
((I1
(L1L
tg21
I00
(lp2096
S'Val'
p2097
at(Nttba(lp2098
g17
(g25
(I0
tS'b'
tRp2099
(I1
(L1L
tg21
I00
(lp2100
g1
(g10
g3
NtRp2101
(dp2102
g13
g1
(g14
g3
NtRp2103
((lp2104
g17
(g18
(I0
tS'b'
tRp2105
((I1
(L1L
tg21
I00
(lp2106
S'Number'
p2107
at(Nttba(lp2108
g17
(g25
(I0
tS'b'
tRp2109
(I1
(L1L
tg21
I00
(lp2110
g1
(g10
g3
NtRp2111
(dp2112
g13
g1
(g14
g3
NtRp2113
((lp2114
g17
(g18
(I0
tS'b'
tRp2115
((I1
(L1L
tg21
I00
(lp2116
S'Int'
p2117
at(Nttba(lp2118
g17
(g25
(I0
tS'b'
tRp2119
(I1
(L1L
tg21
I00
(lp2120
g1
(g10
g3
NtRp2121
(dp2122
g13
g1
(g14
g3
NtRp2123
((lp2124
g17
(g18
(I0
tS'b'
tRp2125
((I1
(L1L
tg21
I00
(lp2126
S'_10_'
p2127
at(Nttba(lp2128
g17
(g25
(I0
tS'b'
tRp2129
(I1
(L1L
tg21
I00
(lp2130
g1
(g10
g3
NtRp2131
(dp2132
g13
g1
(g14
g3
NtRp2133
((lp2134
g17
(g18
(I0
tS'b'
tRp2135
((I1
(L0L
tg21
I00
(lt(Nttba(lp2136
g17
(g25
(I0
tS'b'
tRp2137
(I1
(L0L
tg21
I00
(ltba(lp2138
g2135
atbsg93
S'10'
p2139
sbatba(lp2140
g2125
atbsg93
g2117
sbatba(lp2141
g2115
atbsg93
g2107
sbatba(lp2142
g2105
atbsg93
g2097
sbatba(lp2143
g17
(g18
(I0
tS'b'
tRp2144
((I1
(L1L
tg21
I00
(lp2145
g2097
at(Nttbatbsg93
S'Expr'
p2146
sbatba(lp2147
g1955
atbsg93
g1947
sbatba(lp2148
g1945
atbsg93
S'Expr'
p2149
sbatba(lp2150
g1935
atbsg93
g1867
sbatba(lp2151
g1863
atbsg93
g1855
sbatba(lp2152
g1853
atbsg93
g1844
sbag1
(g10
g3
NtRp2153
(dp2154
g13
g1
(g14
g3
NtRp2155
((lp2156
g17
(g18
(I0
tS'b'
tRp2157
((I1
(L0L
tg21
I00
(lt(Nttba(lp2158
g17
(g25
(I0
tS'b'
tRp2159
(I1
(L0L
tg21
I00
(ltba(lp2160
g2157
atbsg93
S';'
sbatba(lp2161
g1842
atbsg93
g1834
sbatba(lp2162
g1832
atbsg93
S'Stmt'
p2163
sbag1
(g10
g3
NtRp2164
(dp2165
g13
g1
(g14
g3
NtRp2166
((lp2167
g17
(g18
(I0
tS'b'
tRp2168
((I1
(L1L
tg21
I00
(lp2169
S'Block_stmt'
p2170
at(Nttba(lp2171
g17
(g25
(I0
tS'b'
tRp2172
(I1
(L1L
tg21
I00
(lp2173
g1
(g10
g3
NtRp2174
(dp2175
g13
g1
(g14
g3
NtRp2176
((lp2177
g17
(g18
(I0
tS'b'
tRp2178
((I1
(L2L
tg21
I00
(lp2179
S'Block_head'
p2180
aS'Block'
p2181
at(Nttba(lp2182
g17
(g25
(I0
tS'b'
tRp2183
(I1
(L2L
tg21
I00
(lp2184
g1
(g10
g3
NtRp2185
(dp2186
g13
g1
(g14
g3
NtRp2187
((lp2188
g17
(g18
(I0
tS'b'
tRp2189
((I1
(L1L
tg21
I00
(lp2190
S'Loop'
p2191
at(Nttba(lp2192
g17
(g25
(I0
tS'b'
tRp2193
(I1
(L1L
tg21
I00
(lp2194
g1
(g10
g3
NtRp2195
(dp2196
g13
g1
(g14
g3
NtRp2197
((lp2198
g17
(g18
(I0
tS'b'
tRp2199
((I1
(L1L
tg21
I00
(lp2200
S'For'
p2201
at(Nttba(lp2202
g17
(g25
(I0
tS'b'
tRp2203
(I1
(L1L
tg21
I00
(lp2204
g1
(g10
g3
NtRp2205
(dp2206
g13
g1
(g14
g3
NtRp2207
((lp2208
g17
(g18
(I0
tS'b'
tRp2209
((I1
(L4L
tg21
I00
(lp2210
S'_for_'
p2211
aS'Varlist'
p2212
aS'_in_'
p2213
aS'Exprlist'
p2214
at(Nttba(lp2215
g17
(g25
(I0
tS'b'
tRp2216
(I1
(L4L
tg21
I00
(lp2217
g1
(g10
g3
NtRp2218
(dp2219
g13
g1
(g14
g3
NtRp2220
((lp2221
g17
(g18
(I0
tS'b'
tRp2222
((I1
(L0L
tg21
I00
(lt(Nttba(lp2223
g17
(g25
(I0
tS'b'
tRp2224
(I1
(L0L
tg21
I00
(ltba(lp2225
g2222
atbsg93
S'for'
p2226
sbag1
(g10
g3
NtRp2227
(dp2228
g13
g1
(g14
g3
NtRp2229
((lp2230
g17
(g18
(I0
tS'b'
tRp2231
((I1
(L1L
tg21
I00
(lp2232
S'Vartuple'
p2233
at(Nttba(lp2234
g17
(g25
(I0
tS'b'
tRp2235
(I1
(L1L
tg21
I00
(lp2236
g1
(g10
g3
NtRp2237
(dp2238
g13
g1
(g14
g3
NtRp2239
((lp2240
g17
(g18
(I0
tS'b'
tRp2241
((I1
(L1L
tg21
I00
(lp2242
S'Var'
p2243
at(Nttba(lp2244
g17
(g25
(I0
tS'b'
tRp2245
(I1
(L1L
tg21
I00
(lp2246
g1
(g10
g3
NtRp2247
(dp2248
g13
g1
(g14
g3
NtRp2249
((lp2250
g17
(g18
(I0
tS'b'
tRp2251
((I1
(L1L
tg21
I00
(lp2252
S'Id'
p2253
at(Nttba(lp2254
g17
(g25
(I0
tS'b'
tRp2255
(I1
(L1L
tg21
I00
(lp2256
g1
(g10
g3
NtRp2257
(dp2258
g13
g1
(g14
g3
NtRp2259
((lp2260
g17
(g18
(I0
tS'b'
tRp2261
((I1
(L1L
tg21
I00
(lp2262
S'_i_'
p2263
at(Nttba(lp2264
g17
(g25
(I0
tS'b'
tRp2265
(I1
(L1L
tg21
I00
(lp2266
g1
(g10
g3
NtRp2267
(dp2268
g13
g1
(g14
g3
NtRp2269
((lp2270
g17
(g18
(I0
tS'b'
tRp2271
((I1
(L0L
tg21
I00
(lt(Nttba(lp2272
g17
(g25
(I0
tS'b'
tRp2273
(I1
(L0L
tg21
I00
(ltba(lp2274
g2271
atbsg93
S'i'
sbatba(lp2275
g2261
atbsg93
g2253
sbatba(lp2276
g2251
atbsg93
g2243
sbatba(lp2277
g2241
atbsg93
g2233
sbatba(lp2278
g2231
atbsg93
g2212
sbag1
(g10
g3
NtRp2279
(dp2280
g13
g1
(g14
g3
NtRp2281
((lp2282
g17
(g18
(I0
tS'b'
tRp2283
((I1
(L0L
tg21
I00
(lt(Nttba(lp2284
g17
(g25
(I0
tS'b'
tRp2285
(I1
(L0L
tg21
I00
(ltba(lp2286
g2283
atbsg93
S'in'
p2287
sbag1
(g10
g3
NtRp2288
(dp2289
g13
g1
(g14
g3
NtRp2290
((lp2291
g17
(g18
(I0
tS'b'
tRp2292
((I1
(L1L
tg21
I00
(lp2293
S'Expr'
p2294
at(Nttba(lp2295
g17
(g25
(I0
tS'b'
tRp2296
(I1
(L1L
tg21
I00
(lp2297
g1
(g10
g3
NtRp2298
(dp2299
g13
g1
(g14
g3
NtRp2300
((lp2301
g17
(g18
(I0
tS'b'
tRp2302
((I1
(L1L
tg21
I00
(lp2303
S'Funccall'
p2304
at(Nttba(lp2305
g17
(g25
(I0
tS'b'
tRp2306
(I1
(L1L
tg21
I00
(lp2307
g1
(g10
g3
NtRp2308
(dp2309
g13
g1
(g14
g3
NtRp2310
((lp2311
g17
(g18
(I0
tS'b'
tRp2312
((I1
(L4L
tg21
I00
(lp2313
S'Expr'
p2314
aS'_(_'
p2315
aS'Arglist'
p2316
aS'_)_'
p2317
at(Nttba(lp2318
g17
(g25
(I0
tS'b'
tRp2319
(I1
(L4L
tg21
I00
(lp2320
g1
(g10
g3
NtRp2321
(dp2322
g13
g1
(g14
g3
NtRp2323
((lp2324
g17
(g18
(I0
tS'b'
tRp2325
((I1
(L1L
tg21
I00
(lp2326
S'Val'
p2327
at(Nttba(lp2328
g17
(g25
(I0
tS'b'
tRp2329
(I1
(L1L
tg21
I00
(lp2330
g1
(g10
g3
NtRp2331
(dp2332
g13
g1
(g14
g3
NtRp2333
((lp2334
g17
(g18
(I0
tS'b'
tRp2335
((I1
(L1L
tg21
I00
(lp2336
S'Var'
p2337
at(Nttba(lp2338
g17
(g25
(I0
tS'b'
tRp2339
(I1
(L1L
tg21
I00
(lp2340
g1
(g10
g3
NtRp2341
(dp2342
g13
g1
(g14
g3
NtRp2343
((lp2344
g17
(g18
(I0
tS'b'
tRp2345
((I1
(L1L
tg21
I00
(lp2346
S'Id'
p2347
at(Nttba(lp2348
g17
(g25
(I0
tS'b'
tRp2349
(I1
(L1L
tg21
I00
(lp2350
g1
(g10
g3
NtRp2351
(dp2352
g13
g1
(g14
g3
NtRp2353
((lp2354
g17
(g18
(I0
tS'b'
tRp2355
((I1
(L1L
tg21
I00
(lp2356
S'_range_'
p2357
at(Nttba(lp2358
g17
(g25
(I0
tS'b'
tRp2359
(I1
(L1L
tg21
I00
(lp2360
g1
(g10
g3
NtRp2361
(dp2362
g13
g1
(g14
g3
NtRp2363
((lp2364
g17
(g18
(I0
tS'b'
tRp2365
((I1
(L0L
tg21
I00
(lt(Nttba(lp2366
g17
(g25
(I0
tS'b'
tRp2367
(I1
(L0L
tg21
I00
(ltba(lp2368
g2365
atbsg93
S'range'
p2369
sbatba(lp2370
g2355
atbsg93
g2347
sbatba(lp2371
g2345
atbsg93
g2337
sbatba(lp2372
g2335
atbsg93
g2327
sbatba(lp2373
g17
(g18
(I0
tS'b'
tRp2374
((I1
(L1L
tg21
I00
(lp2375
g2327
at(Nttbatbsg93
S'Expr'
p2376
sbag1
(g10
g3
NtRp2377
(dp2378
g13
g1
(g14
g3
NtRp2379
((lp2380
g17
(g18
(I0
tS'b'
tRp2381
((I1
(L0L
tg21
I00
(lt(Nttba(lp2382
g17
(g25
(I0
tS'b'
tRp2383
(I1
(L0L
tg21
I00
(ltba(lp2384
g2381
atbsg93
S'('
sbag1
(g10
g3
NtRp2385
(dp2386
g13
g1
(g14
g3
NtRp2387
((lp2388
g17
(g18
(I0
tS'b'
tRp2389
((I1
(L1L
tg21
I00
(lp2390
S'Pos_arglist'
p2391
at(Nttba(lp2392
g17
(g25
(I0
tS'b'
tRp2393
(I1
(L1L
tg21
I00
(lp2394
g1
(g10
g3
NtRp2395
(dp2396
g13
g1
(g14
g3
NtRp2397
((lp2398
g17
(g18
(I0
tS'b'
tRp2399
((I1
(L1L
tg21
I00
(lp2400
S'Pos_arg'
p2401
at(Nttba(lp2402
g17
(g25
(I0
tS'b'
tRp2403
(I1
(L1L
tg21
I00
(lp2404
g1
(g10
g3
NtRp2405
(dp2406
g13
g1
(g14
g3
NtRp2407
((lp2408
g17
(g18
(I0
tS'b'
tRp2409
((I1
(L1L
tg21
I00
(lp2410
S'Expr'
p2411
at(Nttba(lp2412
g17
(g25
(I0
tS'b'
tRp2413
(I1
(L1L
tg21
I00
(lp2414
g1
(g10
g3
NtRp2415
(dp2416
g13
g1
(g14
g3
NtRp2417
((lp2418
g17
(g18
(I0
tS'b'
tRp2419
((I1
(L1L
tg21
I00
(lp2420
S'Funccall'
p2421
at(Nttba(lp2422
g17
(g25
(I0
tS'b'
tRp2423
(I1
(L1L
tg21
I00
(lp2424
g1
(g10
g3
NtRp2425
(dp2426
g13
g1
(g14
g3
NtRp2427
((lp2428
g17
(g18
(I0
tS'b'
tRp2429
((I1
(L4L
tg21
I00
(lp2430
S'Expr'
p2431
aS'_(_'
p2432
aS'Arglist'
p2433
aS'_)_'
p2434
at(Nttba(lp2435
g17
(g25
(I0
tS'b'
tRp2436
(I1
(L4L
tg21
I00
(lp2437
g1
(g10
g3
NtRp2438
(dp2439
g13
g1
(g14
g3
NtRp2440
((lp2441
g17
(g18
(I0
tS'b'
tRp2442
((I1
(L1L
tg21
I00
(lp2443
S'Val'
p2444
at(Nttba(lp2445
g17
(g25
(I0
tS'b'
tRp2446
(I1
(L1L
tg21
I00
(lp2447
g1
(g10
g3
NtRp2448
(dp2449
g13
g1
(g14
g3
NtRp2450
((lp2451
g17
(g18
(I0
tS'b'
tRp2452
((I1
(L1L
tg21
I00
(lp2453
S'Var'
p2454
at(Nttba(lp2455
g17
(g25
(I0
tS'b'
tRp2456
(I1
(L1L
tg21
I00
(lp2457
g1
(g10
g3
NtRp2458
(dp2459
g13
g1
(g14
g3
NtRp2460
((lp2461
g17
(g18
(I0
tS'b'
tRp2462
((I1
(L1L
tg21
I00
(lp2463
S'Id'
p2464
at(Nttba(lp2465
g17
(g25
(I0
tS'b'
tRp2466
(I1
(L1L
tg21
I00
(lp2467
g1
(g10
g3
NtRp2468
(dp2469
g13
g1
(g14
g3
NtRp2470
((lp2471
g17
(g18
(I0
tS'b'
tRp2472
((I1
(L1L
tg21
I00
(lp2473
S'_len_'
p2474
at(Nttba(lp2475
g17
(g25
(I0
tS'b'
tRp2476
(I1
(L1L
tg21
I00
(lp2477
g1
(g10
g3
NtRp2478
(dp2479
g13
g1
(g14
g3
NtRp2480
((lp2481
g17
(g18
(I0
tS'b'
tRp2482
((I1
(L0L
tg21
I00
(lt(Nttba(lp2483
g17
(g25
(I0
tS'b'
tRp2484
(I1
(L0L
tg21
I00
(ltba(lp2485
g2482
atbsg93
S'len'
p2486
sbatba(lp2487
g2472
atbsg93
g2464
sbatba(lp2488
g2462
atbsg93
g2454
sbatba(lp2489
g2452
atbsg93
g2444
sbatba(lp2490
g17
(g18
(I0
tS'b'
tRp2491
((I1
(L1L
tg21
I00
(lp2492
g2444
at(Nttbatbsg93
S'Expr'
p2493
sbag1
(g10
g3
NtRp2494
(dp2495
g13
g1
(g14
g3
NtRp2496
((lp2497
g17
(g18
(I0
tS'b'
tRp2498
((I1
(L0L
tg21
I00
(lt(Nttba(lp2499
g17
(g25
(I0
tS'b'
tRp2500
(I1
(L0L
tg21
I00
(ltba(lp2501
g2498
atbsg93
S'('
sbag1
(g10
g3
NtRp2502
(dp2503
g13
g1
(g14
g3
NtRp2504
((lp2505
g17
(g18
(I0
tS'b'
tRp2506
((I1
(L1L
tg21
I00
(lp2507
S'Pos_arglist'
p2508
at(Nttba(lp2509
g17
(g25
(I0
tS'b'
tRp2510
(I1
(L1L
tg21
I00
(lp2511
g1
(g10
g3
NtRp2512
(dp2513
g13
g1
(g14
g3
NtRp2514
((lp2515
g17
(g18
(I0
tS'b'
tRp2516
((I1
(L1L
tg21
I00
(lp2517
S'Pos_arg'
p2518
at(Nttba(lp2519
g17
(g25
(I0
tS'b'
tRp2520
(I1
(L1L
tg21
I00
(lp2521
g1
(g10
g3
NtRp2522
(dp2523
g13
g1
(g14
g3
NtRp2524
((lp2525
g17
(g18
(I0
tS'b'
tRp2526
((I1
(L1L
tg21
I00
(lp2527
S'Expr'
p2528
at(Nttba(lp2529
g17
(g25
(I0
tS'b'
tRp2530
(I1
(L1L
tg21
I00
(lp2531
g1
(g10
g3
NtRp2532
(dp2533
g13
g1
(g14
g3
NtRp2534
((lp2535
g17
(g18
(I0
tS'b'
tRp2536
((I1
(L1L
tg21
I00
(lp2537
S'Val'
p2538
at(Nttba(lp2539
g17
(g25
(I0
tS'b'
tRp2540
(I1
(L1L
tg21
I00
(lp2541
g1
(g10
g3
NtRp2542
(dp2543
g13
g1
(g14
g3
NtRp2544
((lp2545
g17
(g18
(I0
tS'b'
tRp2546
((I1
(L1L
tg21
I00
(lp2547
S'Var'
p2548
at(Nttba(lp2549
g17
(g25
(I0
tS'b'
tRp2550
(I1
(L1L
tg21
I00
(lp2551
g1
(g10
g3
NtRp2552
(dp2553
g13
g1
(g14
g3
NtRp2554
((lp2555
g17
(g18
(I0
tS'b'
tRp2556
((I1
(L1L
tg21
I00
(lp2557
S'Id'
p2558
at(Nttba(lp2559
g17
(g25
(I0
tS'b'
tRp2560
(I1
(L1L
tg21
I00
(lp2561
g1
(g10
g3
NtRp2562
(dp2563
g13
g1
(g14
g3
NtRp2564
((lp2565
g17
(g18
(I0
tS'b'
tRp2566
((I1
(L1L
tg21
I00
(lp2567
S'_L_'
p2568
at(Nttba(lp2569
g17
(g25
(I0
tS'b'
tRp2570
(I1
(L1L
tg21
I00
(lp2571
g1
(g10
g3
NtRp2572
(dp2573
g13
g1
(g14
g3
NtRp2574
((lp2575
g17
(g18
(I0
tS'b'
tRp2576
((I1
(L0L
tg21
I00
(lt(Nttba(lp2577
g17
(g25
(I0
tS'b'
tRp2578
(I1
(L0L
tg21
I00
(ltba(lp2579
g2576
atbsg93
S'L'
sbatba(lp2580
g2566
atbsg93
g2558
sbatba(lp2581
g2556
atbsg93
g2548
sbatba(lp2582
g2546
atbsg93
g2538
sbatba(lp2583
g17
(g18
(I0
tS'b'
tRp2584
((I1
(L1L
tg21
I00
(lp2585
g2538
at(Nttbatbsg93
S'Expr'
p2586
sbatba(lp2587
g2526
atbsg93
g2518
sbatba(lp2588
g2516
atbsg93
g2508
sbatba(lp2589
g2506
atbsg93
g2433
sbag1
(g10
g3
NtRp2590
(dp2591
g13
g1
(g14
g3
NtRp2592
((lp2593
g17
(g18
(I0
tS'b'
tRp2594
((I1
(L0L
tg21
I00
(lt(Nttba(lp2595
g17
(g25
(I0
tS'b'
tRp2596
(I1
(L0L
tg21
I00
(ltba(lp2597
g2594
atbsg93
S')'
sbatba(lp2598
g2429
atbsg93
g2421
sbatba(lp2599
g2419
atbsg93
S'Expr'
p2600
sbatba(lp2601
g2409
atbsg93
g2401
sbatba(lp2602
g2399
atbsg93
g2391
sbatba(lp2603
g2389
atbsg93
g2316
sbag1
(g10
g3
NtRp2604
(dp2605
g13
g1
(g14
g3
NtRp2606
((lp2607
g17
(g18
(I0
tS'b'
tRp2608
((I1
(L0L
tg21
I00
(lt(Nttba(lp2609
g17
(g25
(I0
tS'b'
tRp2610
(I1
(L0L
tg21
I00
(ltba(lp2611
g2608
atbsg93
S')'
sbatba(lp2612
g2312
atbsg93
g2304
sbatba(lp2613
g2302
atbsg93
S'Expr'
p2614
sbatba(lp2615
g2292
atbsg93
g2214
sbatba(lp2616
g2209
atbsg93
g2201
sbatba(lp2617
g2199
atbsg93
g2191
sbatba(lp2618
g2189
atbsg93
g2180
sbag1
(g10
g3
NtRp2619
(dp2620
g13
g1
(g14
g3
NtRp2621
((lp2622
g17
(g18
(I0
tS'b'
tRp2623
((I1
(L3L
tg21
I00
(lp2624
S'Blockbegin'
p2625
aS'Prog'
p2626
aS'Blockend'
p2627
at(Nttba(lp2628
g17
(g25
(I0
tS'b'
tRp2629
(I1
(L3L
tg21
I00
(lp2630
g1
(g10
g3
NtRp2631
(dp2632
g13
g1
(g14
g3
NtRp2633
((lp2634
g17
(g18
(I0
tS'b'
tRp2635
((I1
(L1L
tg21
I00
(lp2636
S'_:$blockbegin_'
p2637
at(Nttba(lp2638
g17
(g25
(I0
tS'b'
tRp2639
(I1
(L1L
tg21
I00
(lp2640
g1
(g10
g3
NtRp2641
(dp2642
g13
g1
(g14
g3
NtRp2643
((lp2644
g17
(g18
(I0
tS'b'
tRp2645
((I1
(L0L
tg21
I00
(lt(Nttba(lp2646
g17
(g25
(I0
tS'b'
tRp2647
(I1
(L0L
tg21
I00
(ltba(lp2648
g2645
atbsg93
S':$blockbegin'
p2649
sbatba(lp2650
g2635
atbsg93
g2625
sbag1
(g10
g3
NtRp2651
(dp2652
g13
g1
(g14
g3
NtRp2653
((lp2654
g17
(g18
(I0
tS'b'
tRp2655
((I1
(L1L
tg21
I00
(lp2656
S'Stmt'
p2657
at(Nttba(lp2658
g17
(g25
(I0
tS'b'
tRp2659
(I1
(L1L
tg21
I00
(lp2660
g1
(g10
g3
NtRp2661
(dp2662
g13
g1
(g14
g3
NtRp2663
((lp2664
g17
(g18
(I0
tS'b'
tRp2665
((I1
(L1L
tg21
I00
(lp2666
S'Block_stmt'
p2667
at(Nttba(lp2668
g17
(g25
(I0
tS'b'
tRp2669
(I1
(L1L
tg21
I00
(lp2670
g1
(g10
g3
NtRp2671
(dp2672
g13
g1
(g14
g3
NtRp2673
((lp2674
g17
(g18
(I0
tS'b'
tRp2675
((I1
(L1L
tg21
I00
(lp2676
S'Ifelse'
p2677
at(Nttba(lp2678
g17
(g25
(I0
tS'b'
tRp2679
(I1
(L1L
tg21
I00
(lp2680
g1
(g10
g3
NtRp2681
(dp2682
g13
g1
(g14
g3
NtRp2683
((lp2684
g17
(g18
(I0
tS'b'
tRp2685
((I1
(L4L
tg21
I00
(lp2686
S'If'
p2687
aS'Block1'
p2688
aS'Else'
p2689
aS'Block2'
p2690
at(Nttba(lp2691
g17
(g25
(I0
tS'b'
tRp2692
(I1
(L4L
tg21
I00
(lp2693
g1
(g10
g3
NtRp2694
(dp2695
g13
g1
(g14
g3
NtRp2696
((lp2697
g17
(g18
(I0
tS'b'
tRp2698
((I1
(L2L
tg21
I00
(lp2699
S'_if_'
p2700
aS'Expr'
p2701
at(Nttba(lp2702
g17
(g25
(I0
tS'b'
tRp2703
(I1
(L2L
tg21
I00
(lp2704
g1
(g10
g3
NtRp2705
(dp2706
g13
g1
(g14
g3
NtRp2707
((lp2708
g17
(g18
(I0
tS'b'
tRp2709
((I1
(L0L
tg21
I00
(lt(Nttba(lp2710
g17
(g25
(I0
tS'b'
tRp2711
(I1
(L0L
tg21
I00
(ltba(lp2712
g2709
atbsg93
S'if'
p2713
sbag1
(g10
g3
NtRp2714
(dp2715
g13
g1
(g14
g3
NtRp2716
((lp2717
g17
(g18
(I0
tS'b'
tRp2718
((I1
(L1L
tg21
I00
(lp2719
S'Comparison'
p2720
at(Nttba(lp2721
g17
(g25
(I0
tS'b'
tRp2722
(I1
(L1L
tg21
I00
(lp2723
g1
(g10
g3
NtRp2724
(dp2725
g13
g1
(g14
g3
NtRp2726
((lp2727
g17
(g18
(I0
tS'b'
tRp2728
((I1
(L3L
tg21
I00
(lp2729
S'Expr1'
p2730
aS'Op_cmp'
p2731
aS'Expr2'
p2732
at(Nttba(lp2733
g17
(g25
(I0
tS'b'
tRp2734
(I1
(L3L
tg21
I00
(lp2735
g1
(g10
g3
NtRp2736
(dp2737
g13
g1
(g14
g3
NtRp2738
((lp2739
g17
(g18
(I0
tS'b'
tRp2740
((I1
(L1L
tg21
I00
(lp2741
S'Val'
p2742
at(Nttba(lp2743
g17
(g25
(I0
tS'b'
tRp2744
(I1
(L1L
tg21
I00
(lp2745
g1
(g10
g3
NtRp2746
(dp2747
g13
g1
(g14
g3
NtRp2748
((lp2749
g17
(g18
(I0
tS'b'
tRp2750
((I1
(L1L
tg21
I00
(lp2751
S'Var'
p2752
at(Nttba(lp2753
g17
(g25
(I0
tS'b'
tRp2754
(I1
(L1L
tg21
I00
(lp2755
g1
(g10
g3
NtRp2756
(dp2757
g13
g1
(g14
g3
NtRp2758
((lp2759
g17
(g18
(I0
tS'b'
tRp2760
((I1
(L1L
tg21
I00
(lp2761
S'Id'
p2762
at(Nttba(lp2763
g17
(g25
(I0
tS'b'
tRp2764
(I1
(L1L
tg21
I00
(lp2765
g1
(g10
g3
NtRp2766
(dp2767
g13
g1
(g14
g3
NtRp2768
((lp2769
g17
(g18
(I0
tS'b'
tRp2770
((I1
(L1L
tg21
I00
(lp2771
S'_i_'
p2772
at(Nttba(lp2773
g17
(g25
(I0
tS'b'
tRp2774
(I1
(L1L
tg21
I00
(lp2775
g1
(g10
g3
NtRp2776
(dp2777
g13
g1
(g14
g3
NtRp2778
((lp2779
g17
(g18
(I0
tS'b'
tRp2780
((I1
(L0L
tg21
I00
(lt(Nttba(lp2781
g17
(g25
(I0
tS'b'
tRp2782
(I1
(L0L
tg21
I00
(ltba(lp2783
g2780
atbsg93
S'i'
sbatba(lp2784
g2770
atbsg93
g2762
sbatba(lp2785
g2760
atbsg93
g2752
sbatba(lp2786
g2750
atbsg93
g2742
sbatba(lp2787
g17
(g18
(I0
tS'b'
tRp2788
((I1
(L1L
tg21
I00
(lp2789
g2742
at(Nttbatbsg93
S'Expr'
p2790
sbag1
(g10
g3
NtRp2791
(dp2792
g13
g1
(g14
g3
NtRp2793
((lp2794
g17
(g18
(I0
tS'b'
tRp2795
((I1
(L1L
tg21
I00
(lp2796
S'_>_'
p2797
at(Nttba(lp2798
g17
(g25
(I0
tS'b'
tRp2799
(I1
(L1L
tg21
I00
(lp2800
g1
(g10
g3
NtRp2801
(dp2802
g13
g1
(g14
g3
NtRp2803
((lp2804
g17
(g18
(I0
tS'b'
tRp2805
((I1
(L0L
tg21
I00
(lt(Nttba(lp2806
g17
(g25
(I0
tS'b'
tRp2807
(I1
(L0L
tg21
I00
(ltba(lp2808
g2805
atbsg93
S'>'
sbatba(lp2809
g2795
atbsg93
g2731
sbag1
(g10
g3
NtRp2810
(dp2811
g13
g1
(g14
g3
NtRp2812
((lp2813
g17
(g18
(I0
tS'b'
tRp2814
((I1
(L1L
tg21
I00
(lp2815
S'Val'
p2816
at(Nttba(lp2817
g17
(g25
(I0
tS'b'
tRp2818
(I1
(L1L
tg21
I00
(lp2819
g1
(g10
g3
NtRp2820
(dp2821
g13
g1
(g14
g3
NtRp2822
((lp2823
g17
(g18
(I0
tS'b'
tRp2824
((I1
(L1L
tg21
I00
(lp2825
S'Number'
p2826
at(Nttba(lp2827
g17
(g25
(I0
tS'b'
tRp2828
(I1
(L1L
tg21
I00
(lp2829
g1
(g10
g3
NtRp2830
(dp2831
g13
g1
(g14
g3
NtRp2832
((lp2833
g17
(g18
(I0
tS'b'
tRp2834
((I1
(L1L
tg21
I00
(lp2835
S'Int'
p2836
at(Nttba(lp2837
g17
(g25
(I0
tS'b'
tRp2838
(I1
(L1L
tg21
I00
(lp2839
g1
(g10
g3
NtRp2840
(dp2841
g13
g1
(g14
g3
NtRp2842
((lp2843
g17
(g18
(I0
tS'b'
tRp2844
((I1
(L1L
tg21
I00
(lp2845
S'_3_'
p2846
at(Nttba(lp2847
g17
(g25
(I0
tS'b'
tRp2848
(I1
(L1L
tg21
I00
(lp2849
g1
(g10
g3
NtRp2850
(dp2851
g13
g1
(g14
g3
NtRp2852
((lp2853
g17
(g18
(I0
tS'b'
tRp2854
((I1
(L0L
tg21
I00
(lt(Nttba(lp2855
g17
(g25
(I0
tS'b'
tRp2856
(I1
(L0L
tg21
I00
(ltba(lp2857
g2854
atbsg93
S'3'
sbatba(lp2858
g2844
atbsg93
g2836
sbatba(lp2859
g2834
atbsg93
g2826
sbatba(lp2860
g2824
atbsg93
g2816
sbatba(lp2861
g17
(g18
(I0
tS'b'
tRp2862
((I1
(L1L
tg21
I00
(lp2863
g2816
at(Nttbatbsg93
S'Expr'
p2864
sbatba(lp2865
g2728
atbsg93
g2720
sbatba(lp2866
g2718
atbsg93
S'Expr'
p2867
sbatba(lp2868
g2698
atbsg93
g2687
sbag1
(g10
g3
NtRp2869
(dp2870
g13
g1
(g14
g3
NtRp2871
((lp2872
g17
(g18
(I0
tS'b'
tRp2873
((I1
(L3L
tg21
I00
(lp2874
S'Blockbegin'
p2875
aS'Prog'
p2876
aS'Blockend'
p2877
at(Nttba(lp2878
g17
(g25
(I0
tS'b'
tRp2879
(I1
(L3L
tg21
I00
(lp2880
g1
(g10
g3
NtRp2881
(dp2882
g13
g1
(g14
g3
NtRp2883
((lp2884
g17
(g18
(I0
tS'b'
tRp2885
((I1
(L1L
tg21
I00
(lp2886
S'_:$blockbegin_'
p2887
at(Nttba(lp2888
g17
(g25
(I0
tS'b'
tRp2889
(I1
(L1L
tg21
I00
(lp2890
g1
(g10
g3
NtRp2891
(dp2892
g13
g1
(g14
g3
NtRp2893
((lp2894
g17
(g18
(I0
tS'b'
tRp2895
((I1
(L0L
tg21
I00
(lt(Nttba(lp2896
g17
(g25
(I0
tS'b'
tRp2897
(I1
(L0L
tg21
I00
(ltba(lp2898
g2895
atbsg93
S':$blockbegin'
p2899
sbatba(lp2900
g2885
atbsg93
g2875
sbag1
(g10
g3
NtRp2901
(dp2902
g13
g1
(g14
g3
NtRp2903
((lp2904
g17
(g18
(I0
tS'b'
tRp2905
((I1
(L1L
tg21
I00
(lp2906
S'Stmt'
p2907
at(Nttba(lp2908
g17
(g25
(I0
tS'b'
tRp2909
(I1
(L1L
tg21
I00
(lp2910
g1
(g10
g3
NtRp2911
(dp2912
g13
g1
(g14
g3
NtRp2913
((lp2914
g17
(g18
(I0
tS'b'
tRp2915
((I1
(L1L
tg21
I00
(lp2916
S'Single_stmt'
p2917
at(Nttba(lp2918
g17
(g25
(I0
tS'b'
tRp2919
(I1
(L1L
tg21
I00
(lp2920
g1
(g10
g3
NtRp2921
(dp2922
g13
g1
(g14
g3
NtRp2923
((lp2924
g17
(g18
(I0
tS'b'
tRp2925
((I1
(L2L
tg21
I00
(lp2926
S'Assign_stmt'
p2927
aS'_;_'
p2928
at(Nttba(lp2929
g17
(g25
(I0
tS'b'
tRp2930
(I1
(L2L
tg21
I00
(lp2931
g1
(g10
g3
NtRp2932
(dp2933
g13
g1
(g14
g3
NtRp2934
((lp2935
g17
(g18
(I0
tS'b'
tRp2936
((I1
(L1L
tg21
I00
(lp2937
S'Assign'
p2938
at(Nttba(lp2939
g17
(g25
(I0
tS'b'
tRp2940
(I1
(L1L
tg21
I00
(lp2941
g1
(g10
g3
NtRp2942
(dp2943
g13
g1
(g14
g3
NtRp2944
((lp2945
g17
(g18
(I0
tS'b'
tRp2946
((I1
(L3L
tg21
I00
(lp2947
S'Varlist'
p2948
aS'_=_'
p2949
aS'Exprlist'
p2950
at(Nttba(lp2951
g17
(g25
(I0
tS'b'
tRp2952
(I1
(L3L
tg21
I00
(lp2953
g1
(g10
g3
NtRp2954
(dp2955
g13
g1
(g14
g3
NtRp2956
((lp2957
g17
(g18
(I0
tS'b'
tRp2958
((I1
(L1L
tg21
I00
(lp2959
S'Vartuple'
p2960
at(Nttba(lp2961
g17
(g25
(I0
tS'b'
tRp2962
(I1
(L1L
tg21
I00
(lp2963
g1
(g10
g3
NtRp2964
(dp2965
g13
g1
(g14
g3
NtRp2966
((lp2967
g17
(g18
(I0
tS'b'
tRp2968
((I1
(L1L
tg21
I00
(lp2969
S'Var'
p2970
at(Nttba(lp2971
g17
(g25
(I0
tS'b'
tRp2972
(I1
(L1L
tg21
I00
(lp2973
g1
(g10
g3
NtRp2974
(dp2975
g13
g1
(g14
g3
NtRp2976
((lp2977
g17
(g18
(I0
tS'b'
tRp2978
((I1
(L4L
tg21
I00
(lp2979
S'Var'
p2980
aS'_[_'
p2981
aS'Slice'
p2982
aS'_]_'
p2983
at(Nttba(lp2984
g17
(g25
(I0
tS'b'
tRp2985
(I1
(L4L
tg21
I00
(lp2986
g1
(g10
g3
NtRp2987
(dp2988
g13
g1
(g14
g3
NtRp2989
((lp2990
g17
(g18
(I0
tS'b'
tRp2991
((I1
(L1L
tg21
I00
(lp2992
S'Id'
p2993
at(Nttba(lp2994
g17
(g25
(I0
tS'b'
tRp2995
(I1
(L1L
tg21
I00
(lp2996
g1
(g10
g3
NtRp2997
(dp2998
g13
g1
(g14
g3
NtRp2999
((lp3000
g17
(g18
(I0
tS'b'
tRp3001
((I1
(L1L
tg21
I00
(lp3002
S'_L_'
p3003
at(Nttba(lp3004
g17
(g25
(I0
tS'b'
tRp3005
(I1
(L1L
tg21
I00
(lp3006
g1
(g10
g3
NtRp3007
(dp3008
g13
g1
(g14
g3
NtRp3009
((lp3010
g17
(g18
(I0
tS'b'
tRp3011
((I1
(L0L
tg21
I00
(lt(Nttba(lp3012
g17
(g25
(I0
tS'b'
tRp3013
(I1
(L0L
tg21
I00
(ltba(lp3014
g3011
atbsg93
S'L'
sbatba(lp3015
g3001
atbsg93
g2993
sbatba(lp3016
g2991
atbsg93
g2980
sbag1
(g10
g3
NtRp3017
(dp3018
g13
g1
(g14
g3
NtRp3019
((lp3020
g17
(g18
(I0
tS'b'
tRp3021
((I1
(L0L
tg21
I00
(lt(Nttba(lp3022
g17
(g25
(I0
tS'b'
tRp3023
(I1
(L0L
tg21
I00
(ltba(lp3024
g3021
atbsg93
S'['
sbag1
(g10
g3
NtRp3025
(dp3026
g13
g1
(g14
g3
NtRp3027
((lp3028
g17
(g18
(I0
tS'b'
tRp3029
((I1
(L1L
tg21
I00
(lp3030
S'Expr'
p3031
at(Nttba(lp3032
g17
(g25
(I0
tS'b'
tRp3033
(I1
(L1L
tg21
I00
(lp3034
g1
(g10
g3
NtRp3035
(dp3036
g13
g1
(g14
g3
NtRp3037
((lp3038
g17
(g18
(I0
tS'b'
tRp3039
((I1
(L1L
tg21
I00
(lp3040
S'Val'
p3041
at(Nttba(lp3042
g17
(g25
(I0
tS'b'
tRp3043
(I1
(L1L
tg21
I00
(lp3044
g1
(g10
g3
NtRp3045
(dp3046
g13
g1
(g14
g3
NtRp3047
((lp3048
g17
(g18
(I0
tS'b'
tRp3049
((I1
(L1L
tg21
I00
(lp3050
S'Var'
p3051
at(Nttba(lp3052
g17
(g25
(I0
tS'b'
tRp3053
(I1
(L1L
tg21
I00
(lp3054
g1
(g10
g3
NtRp3055
(dp3056
g13
g1
(g14
g3
NtRp3057
((lp3058
g17
(g18
(I0
tS'b'
tRp3059
((I1
(L1L
tg21
I00
(lp3060
S'Id'
p3061
at(Nttba(lp3062
g17
(g25
(I0
tS'b'
tRp3063
(I1
(L1L
tg21
I00
(lp3064
g1
(g10
g3
NtRp3065
(dp3066
g13
g1
(g14
g3
NtRp3067
((lp3068
g17
(g18
(I0
tS'b'
tRp3069
((I1
(L1L
tg21
I00
(lp3070
S'_i_'
p3071
at(Nttba(lp3072
g17
(g25
(I0
tS'b'
tRp3073
(I1
(L1L
tg21
I00
(lp3074
g1
(g10
g3
NtRp3075
(dp3076
g13
g1
(g14
g3
NtRp3077
((lp3078
g17
(g18
(I0
tS'b'
tRp3079
((I1
(L0L
tg21
I00
(lt(Nttba(lp3080
g17
(g25
(I0
tS'b'
tRp3081
(I1
(L0L
tg21
I00
(ltba(lp3082
g3079
atbsg93
S'i'
sbatba(lp3083
g3069
atbsg93
g3061
sbatba(lp3084
g3059
atbsg93
g3051
sbatba(lp3085
g3049
atbsg93
g3041
sbatba(lp3086
g17
(g18
(I0
tS'b'
tRp3087
((I1
(L1L
tg21
I00
(lp3088
g3041
at(Nttbatbsg93
S'Expr'
p3089
sbatba(lp3090
g3029
atbsg93
g2982
sbag1
(g10
g3
NtRp3091
(dp3092
g13
g1
(g14
g3
NtRp3093
((lp3094
g17
(g18
(I0
tS'b'
tRp3095
((I1
(L0L
tg21
I00
(lt(Nttba(lp3096
g17
(g25
(I0
tS'b'
tRp3097
(I1
(L0L
tg21
I00
(ltba(lp3098
g3095
atbsg93
S']'
sbatba(lp3099
g2978
atbsg93
g2970
sbatba(lp3100
g2968
atbsg93
g2960
sbatba(lp3101
g2958
atbsg93
g2948
sbag1
(g10
g3
NtRp3102
(dp3103
g13
g1
(g14
g3
NtRp3104
((lp3105
g17
(g18
(I0
tS'b'
tRp3106
((I1
(L0L
tg21
I00
(lt(Nttba(lp3107
g17
(g25
(I0
tS'b'
tRp3108
(I1
(L0L
tg21
I00
(ltba(lp3109
g3106
atbsg93
S'='
sbag1
(g10
g3
NtRp3110
(dp3111
g13
g1
(g14
g3
NtRp3112
((lp3113
g17
(g18
(I0
tS'b'
tRp3114
((I1
(L1L
tg21
I00
(lp3115
S'Expr'
p3116
at(Nttba(lp3117
g17
(g25
(I0
tS'b'
tRp3118
(I1
(L1L
tg21
I00
(lp3119
g1
(g10
g3
NtRp3120
(dp3121
g13
g1
(g14
g3
NtRp3122
((lp3123
g17
(g18
(I0
tS'b'
tRp3124
((I1
(L1L
tg21
I00
(lp3125
S'Funccall'
p3126
at(Nttba(lp3127
g17
(g25
(I0
tS'b'
tRp3128
(I1
(L1L
tg21
I00
(lp3129
g1
(g10
g3
NtRp3130
(dp3131
g13
g1
(g14
g3
NtRp3132
((lp3133
g17
(g18
(I0
tS'b'
tRp3134
((I1
(L4L
tg21
I00
(lp3135
S'Expr'
p3136
aS'_(_'
p3137
aS'Arglist'
p3138
aS'_)_'
p3139
at(Nttba(lp3140
g17
(g25
(I0
tS'b'
tRp3141
(I1
(L4L
tg21
I00
(lp3142
g1
(g10
g3
NtRp3143
(dp3144
g13
g1
(g14
g3
NtRp3145
((lp3146
g17
(g18
(I0
tS'b'
tRp3147
((I1
(L1L
tg21
I00
(lp3148
S'Val'
p3149
at(Nttba(lp3150
g17
(g25
(I0
tS'b'
tRp3151
(I1
(L1L
tg21
I00
(lp3152
g1
(g10
g3
NtRp3153
(dp3154
g13
g1
(g14
g3
NtRp3155
((lp3156
g17
(g18
(I0
tS'b'
tRp3157
((I1
(L1L
tg21
I00
(lp3158
S'Var'
p3159
at(Nttba(lp3160
g17
(g25
(I0
tS'b'
tRp3161
(I1
(L1L
tg21
I00
(lp3162
g1
(g10
g3
NtRp3163
(dp3164
g13
g1
(g14
g3
NtRp3165
((lp3166
g17
(g18
(I0
tS'b'
tRp3167
((I1
(L1L
tg21
I00
(lp3168
S'Id'
p3169
at(Nttba(lp3170
g17
(g25
(I0
tS'b'
tRp3171
(I1
(L1L
tg21
I00
(lp3172
g1
(g10
g3
NtRp3173
(dp3174
g13
g1
(g14
g3
NtRp3175
((lp3176
g17
(g18
(I0
tS'b'
tRp3177
((I1
(L1L
tg21
I00
(lp3178
S'_f_'
p3179
at(Nttba(lp3180
g17
(g25
(I0
tS'b'
tRp3181
(I1
(L1L
tg21
I00
(lp3182
g1
(g10
g3
NtRp3183
(dp3184
g13
g1
(g14
g3
NtRp3185
((lp3186
g17
(g18
(I0
tS'b'
tRp3187
((I1
(L0L
tg21
I00
(lt(Nttba(lp3188
g17
(g25
(I0
tS'b'
tRp3189
(I1
(L0L
tg21
I00
(ltba(lp3190
g3187
atbsg93
S'f'
sbatba(lp3191
g3177
atbsg93
g3169
sbatba(lp3192
g3167
atbsg93
g3159
sbatba(lp3193
g3157
atbsg93
g3149
sbatba(lp3194
g17
(g18
(I0
tS'b'
tRp3195
((I1
(L1L
tg21
I00
(lp3196
g3149
at(Nttbatbsg93
S'Expr'
p3197
sbag1
(g10
g3
NtRp3198
(dp3199
g13
g1
(g14
g3
NtRp3200
((lp3201
g17
(g18
(I0
tS'b'
tRp3202
((I1
(L0L
tg21
I00
(lt(Nttba(lp3203
g17
(g25
(I0
tS'b'
tRp3204
(I1
(L0L
tg21
I00
(ltba(lp3205
g3202
atbsg93
S'('
sbag1
(g10
g3
NtRp3206
(dp3207
g13
g1
(g14
g3
NtRp3208
((lp3209
g17
(g18
(I0
tS'b'
tRp3210
((I1
(L1L
tg21
I00
(lp3211
S'Pos_arglist'
p3212
at(Nttba(lp3213
g17
(g25
(I0
tS'b'
tRp3214
(I1
(L1L
tg21
I00
(lp3215
g1
(g10
g3
NtRp3216
(dp3217
g13
g1
(g14
g3
NtRp3218
((lp3219
g17
(g18
(I0
tS'b'
tRp3220
((I1
(L1L
tg21
I00
(lp3221
S'Pos_arg'
p3222
at(Nttba(lp3223
g17
(g25
(I0
tS'b'
tRp3224
(I1
(L1L
tg21
I00
(lp3225
g1
(g10
g3
NtRp3226
(dp3227
g13
g1
(g14
g3
NtRp3228
((lp3229
g17
(g18
(I0
tS'b'
tRp3230
((I1
(L1L
tg21
I00
(lp3231
S'Expr'
p3232
at(Nttba(lp3233
g17
(g25
(I0
tS'b'
tRp3234
(I1
(L1L
tg21
I00
(lp3235
g1
(g10
g3
NtRp3236
(dp3237
g13
g1
(g14
g3
NtRp3238
((lp3239
g17
(g18
(I0
tS'b'
tRp3240
((I1
(L1L
tg21
I00
(lp3241
S'Dash_calc'
p3242
at(Nttba(lp3243
g17
(g25
(I0
tS'b'
tRp3244
(I1
(L1L
tg21
I00
(lp3245
g1
(g10
g3
NtRp3246
(dp3247
g13
g1
(g14
g3
NtRp3248
((lp3249
g17
(g18
(I0
tS'b'
tRp3250
((I1
(L3L
tg21
I00
(lp3251
S'Expr1'
p3252
aS'_+_'
p3253
aS'Expr2'
p3254
at(Nttba(lp3255
g17
(g25
(I0
tS'b'
tRp3256
(I1
(L3L
tg21
I00
(lp3257
g1
(g10
g3
NtRp3258
(dp3259
g13
g1
(g14
g3
NtRp3260
((lp3261
g17
(g18
(I0
tS'b'
tRp3262
((I1
(L1L
tg21
I00
(lp3263
S'Val'
p3264
at(Nttba(lp3265
g17
(g25
(I0
tS'b'
tRp3266
(I1
(L1L
tg21
I00
(lp3267
g1
(g10
g3
NtRp3268
(dp3269
g13
g1
(g14
g3
NtRp3270
((lp3271
g17
(g18
(I0
tS'b'
tRp3272
((I1
(L1L
tg21
I00
(lp3273
S'Var'
p3274
at(Nttba(lp3275
g17
(g25
(I0
tS'b'
tRp3276
(I1
(L1L
tg21
I00
(lp3277
g1
(g10
g3
NtRp3278
(dp3279
g13
g1
(g14
g3
NtRp3280
((lp3281
g17
(g18
(I0
tS'b'
tRp3282
((I1
(L1L
tg21
I00
(lp3283
S'Id'
p3284
at(Nttba(lp3285
g17
(g25
(I0
tS'b'
tRp3286
(I1
(L1L
tg21
I00
(lp3287
g1
(g10
g3
NtRp3288
(dp3289
g13
g1
(g14
g3
NtRp3290
((lp3291
g17
(g18
(I0
tS'b'
tRp3292
((I1
(L1L
tg21
I00
(lp3293
S'_i_'
p3294
at(Nttba(lp3295
g17
(g25
(I0
tS'b'
tRp3296
(I1
(L1L
tg21
I00
(lp3297
g1
(g10
g3
NtRp3298
(dp3299
g13
g1
(g14
g3
NtRp3300
((lp3301
g17
(g18
(I0
tS'b'
tRp3302
((I1
(L0L
tg21
I00
(lt(Nttba(lp3303
g17
(g25
(I0
tS'b'
tRp3304
(I1
(L0L
tg21
I00
(ltba(lp3305
g3302
atbsg93
S'i'
sbatba(lp3306
g3292
atbsg93
g3284
sbatba(lp3307
g3282
atbsg93
g3274
sbatba(lp3308
g3272
atbsg93
g3264
sbatba(lp3309
g17
(g18
(I0
tS'b'
tRp3310
((I1
(L1L
tg21
I00
(lp3311
g3264
at(Nttbatbsg93
S'Expr'
p3312
sbag1
(g10
g3
NtRp3313
(dp3314
g13
g1
(g14
g3
NtRp3315
((lp3316
g17
(g18
(I0
tS'b'
tRp3317
((I1
(L0L
tg21
I00
(lt(Nttba(lp3318
g17
(g25
(I0
tS'b'
tRp3319
(I1
(L0L
tg21
I00
(ltba(lp3320
g3317
atbsg93
S'+'
sbag1
(g10
g3
NtRp3321
(dp3322
g13
g1
(g14
g3
NtRp3323
((lp3324
g17
(g18
(I0
tS'b'
tRp3325
((I1
(L1L
tg21
I00
(lp3326
S'Val'
p3327
at(Nttba(lp3328
g17
(g25
(I0
tS'b'
tRp3329
(I1
(L1L
tg21
I00
(lp3330
g1
(g10
g3
NtRp3331
(dp3332
g13
g1
(g14
g3
NtRp3333
((lp3334
g17
(g18
(I0
tS'b'
tRp3335
((I1
(L1L
tg21
I00
(lp3336
S'Number'
p3337
at(Nttba(lp3338
g17
(g25
(I0
tS'b'
tRp3339
(I1
(L1L
tg21
I00
(lp3340
g1
(g10
g3
NtRp3341
(dp3342
g13
g1
(g14
g3
NtRp3343
((lp3344
g17
(g18
(I0
tS'b'
tRp3345
((I1
(L1L
tg21
I00
(lp3346
S'Int'
p3347
at(Nttba(lp3348
g17
(g25
(I0
tS'b'
tRp3349
(I1
(L1L
tg21
I00
(lp3350
g1
(g10
g3
NtRp3351
(dp3352
g13
g1
(g14
g3
NtRp3353
((lp3354
g17
(g18
(I0
tS'b'
tRp3355
((I1
(L1L
tg21
I00
(lp3356
S'_1_'
p3357
at(Nttba(lp3358
g17
(g25
(I0
tS'b'
tRp3359
(I1
(L1L
tg21
I00
(lp3360
g1
(g10
g3
NtRp3361
(dp3362
g13
g1
(g14
g3
NtRp3363
((lp3364
g17
(g18
(I0
tS'b'
tRp3365
((I1
(L0L
tg21
I00
(lt(Nttba(lp3366
g17
(g25
(I0
tS'b'
tRp3367
(I1
(L0L
tg21
I00
(ltba(lp3368
g3365
atbsg93
S'1'
sbatba(lp3369
g3355
atbsg93
g3347
sbatba(lp3370
g3345
atbsg93
g3337
sbatba(lp3371
g3335
atbsg93
g3327
sbatba(lp3372
g17
(g18
(I0
tS'b'
tRp3373
((I1
(L1L
tg21
I00
(lp3374
g3327
at(Nttbatbsg93
S'Expr'
p3375
sbatba(lp3376
g3250
atbsg93
g3242
sbatba(lp3377
g3240
atbsg93
S'Expr'
p3378
sbatba(lp3379
g3230
atbsg93
g3222
sbatba(lp3380
g3220
atbsg93
g3212
sbatba(lp3381
g3210
atbsg93
g3138
sbag1
(g10
g3
NtRp3382
(dp3383
g13
g1
(g14
g3
NtRp3384
((lp3385
g17
(g18
(I0
tS'b'
tRp3386
((I1
(L0L
tg21
I00
(lt(Nttba(lp3387
g17
(g25
(I0
tS'b'
tRp3388
(I1
(L0L
tg21
I00
(ltba(lp3389
g3386
atbsg93
S')'
sbatba(lp3390
g3134
atbsg93
g3126
sbatba(lp3391
g3124
atbsg93
S'Expr'
p3392
sbatba(lp3393
g3114
atbsg93
g2950
sbatba(lp3394
g2946
atbsg93
g2938
sbatba(lp3395
g2936
atbsg93
g2927
sbag1
(g10
g3
NtRp3396
(dp3397
g13
g1
(g14
g3
NtRp3398
((lp3399
g17
(g18
(I0
tS'b'
tRp3400
((I1
(L0L
tg21
I00
(lt(Nttba(lp3401
g17
(g25
(I0
tS'b'
tRp3402
(I1
(L0L
tg21
I00
(ltba(lp3403
g3400
atbsg93
S';'
sbatba(lp3404
g2925
atbsg93
g2917
sbatba(lp3405
g2915
atbsg93
g2907
sbatba(lp3406
g2905
atbsg93
g2876
sbag1
(g10
g3
NtRp3407
(dp3408
g13
g1
(g14
g3
NtRp3409
((lp3410
g17
(g18
(I0
tS'b'
tRp3411
((I1
(L1L
tg21
I00
(lp3412
S'_$blockend_'
p3413
at(Nttba(lp3414
g17
(g25
(I0
tS'b'
tRp3415
(I1
(L1L
tg21
I00
(lp3416
g1
(g10
g3
NtRp3417
(dp3418
g13
g1
(g14
g3
NtRp3419
((lp3420
g17
(g18
(I0
tS'b'
tRp3421
((I1
(L0L
tg21
I00
(lt(Nttba(lp3422
g17
(g25
(I0
tS'b'
tRp3423
(I1
(L0L
tg21
I00
(ltba(lp3424
g3421
atbsg93
S'$blockend'
p3425
sbatba(lp3426
g3411
atbsg93
g2877
sbatba(lp3427
g2873
atbsg93
S'Block'
p3428
sbag1
(g10
g3
NtRp3429
(dp3430
g13
g1
(g14
g3
NtRp3431
((lp3432
g17
(g18
(I0
tS'b'
tRp3433
((I1
(L1L
tg21
I00
(lp3434
S'_else_'
p3435
at(Nttba(lp3436
g17
(g25
(I0
tS'b'
tRp3437
(I1
(L1L
tg21
I00
(lp3438
g1
(g10
g3
NtRp3439
(dp3440
g13
g1
(g14
g3
NtRp3441
((lp3442
g17
(g18
(I0
tS'b'
tRp3443
((I1
(L0L
tg21
I00
(lt(Nttba(lp3444
g17
(g25
(I0
tS'b'
tRp3445
(I1
(L0L
tg21
I00
(ltba(lp3446
g3443
atbsg93
S'else'
p3447
sbatba(lp3448
g3433
atbsg93
g2689
sbag1
(g10
g3
NtRp3449
(dp3450
g13
g1
(g14
g3
NtRp3451
((lp3452
g17
(g18
(I0
tS'b'
tRp3453
((I1
(L3L
tg21
I00
(lp3454
S'Blockbegin'
p3455
aS'Prog'
p3456
aS'Blockend'
p3457
at(Nttba(lp3458
g17
(g25
(I0
tS'b'
tRp3459
(I1
(L3L
tg21
I00
(lp3460
g1
(g10
g3
NtRp3461
(dp3462
g13
g1
(g14
g3
NtRp3463
((lp3464
g17
(g18
(I0
tS'b'
tRp3465
((I1
(L1L
tg21
I00
(lp3466
S'_:$blockbegin_'
p3467
at(Nttba(lp3468
g17
(g25
(I0
tS'b'
tRp3469
(I1
(L1L
tg21
I00
(lp3470
g1
(g10
g3
NtRp3471
(dp3472
g13
g1
(g14
g3
NtRp3473
((lp3474
g17
(g18
(I0
tS'b'
tRp3475
((I1
(L0L
tg21
I00
(lt(Nttba(lp3476
g17
(g25
(I0
tS'b'
tRp3477
(I1
(L0L
tg21
I00
(ltba(lp3478
g3475
atbsg93
S':$blockbegin'
p3479
sbatba(lp3480
g3465
atbsg93
g3455
sbag1
(g10
g3
NtRp3481
(dp3482
g13
g1
(g14
g3
NtRp3483
((lp3484
g17
(g18
(I0
tS'b'
tRp3485
((I1
(L1L
tg21
I00
(lp3486
S'Stmt'
p3487
at(Nttba(lp3488
g17
(g25
(I0
tS'b'
tRp3489
(I1
(L1L
tg21
I00
(lp3490
g1
(g10
g3
NtRp3491
(dp3492
g13
g1
(g14
g3
NtRp3493
((lp3494
g17
(g18
(I0
tS'b'
tRp3495
((I1
(L1L
tg21
I00
(lp3496
S'Single_stmt'
p3497
at(Nttba(lp3498
g17
(g25
(I0
tS'b'
tRp3499
(I1
(L1L
tg21
I00
(lp3500
g1
(g10
g3
NtRp3501
(dp3502
g13
g1
(g14
g3
NtRp3503
((lp3504
g17
(g18
(I0
tS'b'
tRp3505
((I1
(L2L
tg21
I00
(lp3506
S'Assign_stmt'
p3507
aS'_;_'
p3508
at(Nttba(lp3509
g17
(g25
(I0
tS'b'
tRp3510
(I1
(L2L
tg21
I00
(lp3511
g1
(g10
g3
NtRp3512
(dp3513
g13
g1
(g14
g3
NtRp3514
((lp3515
g17
(g18
(I0
tS'b'
tRp3516
((I1
(L1L
tg21
I00
(lp3517
S'Aug_assign'
p3518
at(Nttba(lp3519
g17
(g25
(I0
tS'b'
tRp3520
(I1
(L1L
tg21
I00
(lp3521
g1
(g10
g3
NtRp3522
(dp3523
g13
g1
(g14
g3
NtRp3524
((lp3525
g17
(g18
(I0
tS'b'
tRp3526
((I1
(L3L
tg21
I00
(lp3527
S'Var'
p3528
aS'Aug_op'
p3529
aS'Exprlist'
p3530
at(Nttba(lp3531
g17
(g25
(I0
tS'b'
tRp3532
(I1
(L3L
tg21
I00
(lp3533
g1
(g10
g3
NtRp3534
(dp3535
g13
g1
(g14
g3
NtRp3536
((lp3537
g17
(g18
(I0
tS'b'
tRp3538
((I1
(L4L
tg21
I00
(lp3539
S'Var'
p3540
aS'_[_'
p3541
aS'Slice'
p3542
aS'_]_'
p3543
at(Nttba(lp3544
g17
(g25
(I0
tS'b'
tRp3545
(I1
(L4L
tg21
I00
(lp3546
g1
(g10
g3
NtRp3547
(dp3548
g13
g1
(g14
g3
NtRp3549
((lp3550
g17
(g18
(I0
tS'b'
tRp3551
((I1
(L1L
tg21
I00
(lp3552
S'Id'
p3553
at(Nttba(lp3554
g17
(g25
(I0
tS'b'
tRp3555
(I1
(L1L
tg21
I00
(lp3556
g1
(g10
g3
NtRp3557
(dp3558
g13
g1
(g14
g3
NtRp3559
((lp3560
g17
(g18
(I0
tS'b'
tRp3561
((I1
(L1L
tg21
I00
(lp3562
S'_L_'
p3563
at(Nttba(lp3564
g17
(g25
(I0
tS'b'
tRp3565
(I1
(L1L
tg21
I00
(lp3566
g1
(g10
g3
NtRp3567
(dp3568
g13
g1
(g14
g3
NtRp3569
((lp3570
g17
(g18
(I0
tS'b'
tRp3571
((I1
(L0L
tg21
I00
(lt(Nttba(lp3572
g17
(g25
(I0
tS'b'
tRp3573
(I1
(L0L
tg21
I00
(ltba(lp3574
g3571
atbsg93
S'L'
sbatba(lp3575
g3561
atbsg93
g3553
sbatba(lp3576
g3551
atbsg93
g3540
sbag1
(g10
g3
NtRp3577
(dp3578
g13
g1
(g14
g3
NtRp3579
((lp3580
g17
(g18
(I0
tS'b'
tRp3581
((I1
(L0L
tg21
I00
(lt(Nttba(lp3582
g17
(g25
(I0
tS'b'
tRp3583
(I1
(L0L
tg21
I00
(ltba(lp3584
g3581
atbsg93
S'['
sbag1
(g10
g3
NtRp3585
(dp3586
g13
g1
(g14
g3
NtRp3587
((lp3588
g17
(g18
(I0
tS'b'
tRp3589
((I1
(L1L
tg21
I00
(lp3590
S'Expr'
p3591
at(Nttba(lp3592
g17
(g25
(I0
tS'b'
tRp3593
(I1
(L1L
tg21
I00
(lp3594
g1
(g10
g3
NtRp3595
(dp3596
g13
g1
(g14
g3
NtRp3597
((lp3598
g17
(g18
(I0
tS'b'
tRp3599
((I1
(L1L
tg21
I00
(lp3600
S'Val'
p3601
at(Nttba(lp3602
g17
(g25
(I0
tS'b'
tRp3603
(I1
(L1L
tg21
I00
(lp3604
g1
(g10
g3
NtRp3605
(dp3606
g13
g1
(g14
g3
NtRp3607
((lp3608
g17
(g18
(I0
tS'b'
tRp3609
((I1
(L1L
tg21
I00
(lp3610
S'Var'
p3611
at(Nttba(lp3612
g17
(g25
(I0
tS'b'
tRp3613
(I1
(L1L
tg21
I00
(lp3614
g1
(g10
g3
NtRp3615
(dp3616
g13
g1
(g14
g3
NtRp3617
((lp3618
g17
(g18
(I0
tS'b'
tRp3619
((I1
(L1L
tg21
I00
(lp3620
S'Id'
p3621
at(Nttba(lp3622
g17
(g25
(I0
tS'b'
tRp3623
(I1
(L1L
tg21
I00
(lp3624
g1
(g10
g3
NtRp3625
(dp3626
g13
g1
(g14
g3
NtRp3627
((lp3628
g17
(g18
(I0
tS'b'
tRp3629
((I1
(L1L
tg21
I00
(lp3630
S'_i_'
p3631
at(Nttba(lp3632
g17
(g25
(I0
tS'b'
tRp3633
(I1
(L1L
tg21
I00
(lp3634
g1
(g10
g3
NtRp3635
(dp3636
g13
g1
(g14
g3
NtRp3637
((lp3638
g17
(g18
(I0
tS'b'
tRp3639
((I1
(L0L
tg21
I00
(lt(Nttba(lp3640
g17
(g25
(I0
tS'b'
tRp3641
(I1
(L0L
tg21
I00
(ltba(lp3642
g3639
atbsg93
S'i'
sbatba(lp3643
g3629
atbsg93
g3621
sbatba(lp3644
g3619
atbsg93
g3611
sbatba(lp3645
g3609
atbsg93
g3601
sbatba(lp3646
g17
(g18
(I0
tS'b'
tRp3647
((I1
(L1L
tg21
I00
(lp3648
g3601
at(Nttbatbsg93
S'Expr'
p3649
sbatba(lp3650
g3589
atbsg93
g3542
sbag1
(g10
g3
NtRp3651
(dp3652
g13
g1
(g14
g3
NtRp3653
((lp3654
g17
(g18
(I0
tS'b'
tRp3655
((I1
(L0L
tg21
I00
(lt(Nttba(lp3656
g17
(g25
(I0
tS'b'
tRp3657
(I1
(L0L
tg21
I00
(ltba(lp3658
g3655
atbsg93
S']'
sbatba(lp3659
g3538
atbsg93
g3528
sbag1
(g10
g3
NtRp3660
(dp3661
g13
g1
(g14
g3
NtRp3662
((lp3663
g17
(g18
(I0
tS'b'
tRp3664
((I1
(L1L
tg21
I00
(lp3665
S'_+=_'
p3666
at(Nttba(lp3667
g17
(g25
(I0
tS'b'
tRp3668
(I1
(L1L
tg21
I00
(lp3669
g1
(g10
g3
NtRp3670
(dp3671
g13
g1
(g14
g3
NtRp3672
((lp3673
g17
(g18
(I0
tS'b'
tRp3674
((I1
(L0L
tg21
I00
(lt(Nttba(lp3675
g17
(g25
(I0
tS'b'
tRp3676
(I1
(L0L
tg21
I00
(ltba(lp3677
g3674
atbsg93
S'+='
p3678
sbatba(lp3679
g3664
atbsg93
g3529
sbag1
(g10
g3
NtRp3680
(dp3681
g13
g1
(g14
g3
NtRp3682
((lp3683
g17
(g18
(I0
tS'b'
tRp3684
((I1
(L1L
tg21
I00
(lp3685
S'Expr'
p3686
at(Nttba(lp3687
g17
(g25
(I0
tS'b'
tRp3688
(I1
(L1L
tg21
I00
(lp3689
g1
(g10
g3
NtRp3690
(dp3691
g13
g1
(g14
g3
NtRp3692
((lp3693
g17
(g18
(I0
tS'b'
tRp3694
((I1
(L1L
tg21
I00
(lp3695
S'Val'
p3696
at(Nttba(lp3697
g17
(g25
(I0
tS'b'
tRp3698
(I1
(L1L
tg21
I00
(lp3699
g1
(g10
g3
NtRp3700
(dp3701
g13
g1
(g14
g3
NtRp3702
((lp3703
g17
(g18
(I0
tS'b'
tRp3704
((I1
(L1L
tg21
I00
(lp3705
S'Number'
p3706
at(Nttba(lp3707
g17
(g25
(I0
tS'b'
tRp3708
(I1
(L1L
tg21
I00
(lp3709
g1
(g10
g3
NtRp3710
(dp3711
g13
g1
(g14
g3
NtRp3712
((lp3713
g17
(g18
(I0
tS'b'
tRp3714
((I1
(L1L
tg21
I00
(lp3715
S'Int'
p3716
at(Nttba(lp3717
g17
(g25
(I0
tS'b'
tRp3718
(I1
(L1L
tg21
I00
(lp3719
g1
(g10
g3
NtRp3720
(dp3721
g13
g1
(g14
g3
NtRp3722
((lp3723
g17
(g18
(I0
tS'b'
tRp3724
((I1
(L1L
tg21
I00
(lp3725
S'_1_'
p3726
at(Nttba(lp3727
g17
(g25
(I0
tS'b'
tRp3728
(I1
(L1L
tg21
I00
(lp3729
g1
(g10
g3
NtRp3730
(dp3731
g13
g1
(g14
g3
NtRp3732
((lp3733
g17
(g18
(I0
tS'b'
tRp3734
((I1
(L0L
tg21
I00
(lt(Nttba(lp3735
g17
(g25
(I0
tS'b'
tRp3736
(I1
(L0L
tg21
I00
(ltba(lp3737
g3734
atbsg93
S'1'
sbatba(lp3738
g3724
atbsg93
g3716
sbatba(lp3739
g3714
atbsg93
g3706
sbatba(lp3740
g3704
atbsg93
g3696
sbatba(lp3741
g17
(g18
(I0
tS'b'
tRp3742
((I1
(L1L
tg21
I00
(lp3743
g3696
at(Nttbatbsg93
S'Expr'
p3744
sbatba(lp3745
g3684
atbsg93
g3530
sbatba(lp3746
g3526
atbsg93
g3518
sbatba(lp3747
g3516
atbsg93
g3507
sbag1
(g10
g3
NtRp3748
(dp3749
g13
g1
(g14
g3
NtRp3750
((lp3751
g17
(g18
(I0
tS'b'
tRp3752
((I1
(L0L
tg21
I00
(lt(Nttba(lp3753
g17
(g25
(I0
tS'b'
tRp3754
(I1
(L0L
tg21
I00
(ltba(lp3755
g3752
atbsg93
S';'
sbatba(lp3756
g3505
atbsg93
g3497
sbatba(lp3757
g3495
atbsg93
g3487
sbatba(lp3758
g3485
atbsg93
g3456
sbag1
(g10
g3
NtRp3759
(dp3760
g13
g1
(g14
g3
NtRp3761
((lp3762
g17
(g18
(I0
tS'b'
tRp3763
((I1
(L1L
tg21
I00
(lp3764
S'_$blockend_'
p3765
at(Nttba(lp3766
g17
(g25
(I0
tS'b'
tRp3767
(I1
(L1L
tg21
I00
(lp3768
g1
(g10
g3
NtRp3769
(dp3770
g13
g1
(g14
g3
NtRp3771
((lp3772
g17
(g18
(I0
tS'b'
tRp3773
((I1
(L0L
tg21
I00
(lt(Nttba(lp3774
g17
(g25
(I0
tS'b'
tRp3775
(I1
(L0L
tg21
I00
(ltba(lp3776
g3773
atbsg93
S'$blockend'
p3777
sbatba(lp3778
g3763
atbsg93
g3457
sbatba(lp3779
g3453
atbsg93
S'Block'
p3780
sbatba(lp3781
g2685
atbsg93
g2677
sbatba(lp3782
g2675
atbsg93
g2667
sbatba(lp3783
g2665
atbsg93
g2657
sbatba(lp3784
g2655
atbsg93
g2626
sbag1
(g10
g3
NtRp3785
(dp3786
g13
g1
(g14
g3
NtRp3787
((lp3788
g17
(g18
(I0
tS'b'
tRp3789
((I1
(L1L
tg21
I00
(lp3790
S'_$blockend_'
p3791
at(Nttba(lp3792
g17
(g25
(I0
tS'b'
tRp3793
(I1
(L1L
tg21
I00
(lp3794
g1
(g10
g3
NtRp3795
(dp3796
g13
g1
(g14
g3
NtRp3797
((lp3798
g17
(g18
(I0
tS'b'
tRp3799
((I1
(L0L
tg21
I00
(lt(Nttba(lp3800
g17
(g25
(I0
tS'b'
tRp3801
(I1
(L0L
tg21
I00
(ltba(lp3802
g3799
atbsg93
S'$blockend'
p3803
sbatba(lp3804
g3789
atbsg93
g2627
sbatba(lp3805
g2623
atbsg93
g2181
sbatba(lp3806
g2178
atbsg93
g2170
sbatba(lp3807
g2168
atbsg93
S'Stmt'
p3808
sbag1
(g10
g3
NtRp3809
(dp3810
g13
g1
(g14
g3
NtRp3811
((lp3812
g17
(g18
(I0
tS'b'
tRp3813
((I1
(L1L
tg21
I00
(lp3814
S'Block_stmt'
p3815
at(Nttba(lp3816
g17
(g25
(I0
tS'b'
tRp3817
(I1
(L1L
tg21
I00
(lp3818
g1
(g10
g3
NtRp3819
(dp3820
g13
g1
(g14
g3
NtRp3821
((lp3822
g17
(g18
(I0
tS'b'
tRp3823
((I1
(L2L
tg21
I00
(lp3824
S'Block_head'
p3825
aS'Block'
p3826
at(Nttba(lp3827
g17
(g25
(I0
tS'b'
tRp3828
(I1
(L2L
tg21
I00
(lp3829
g1
(g10
g3
NtRp3830
(dp3831
g13
g1
(g14
g3
NtRp3832
((lp3833
g17
(g18
(I0
tS'b'
tRp3834
((I1
(L1L
tg21
I00
(lp3835
S'Loop'
p3836
at(Nttba(lp3837
g17
(g25
(I0
tS'b'
tRp3838
(I1
(L1L
tg21
I00
(lp3839
g1
(g10
g3
NtRp3840
(dp3841
g13
g1
(g14
g3
NtRp3842
((lp3843
g17
(g18
(I0
tS'b'
tRp3844
((I1
(L1L
tg21
I00
(lp3845
S'For'
p3846
at(Nttba(lp3847
g17
(g25
(I0
tS'b'
tRp3848
(I1
(L1L
tg21
I00
(lp3849
g1
(g10
g3
NtRp3850
(dp3851
g13
g1
(g14
g3
NtRp3852
((lp3853
g17
(g18
(I0
tS'b'
tRp3854
((I1
(L4L
tg21
I00
(lp3855
S'_for_'
p3856
aS'Varlist'
p3857
aS'_in_'
p3858
aS'Exprlist'
p3859
at(Nttba(lp3860
g17
(g25
(I0
tS'b'
tRp3861
(I1
(L4L
tg21
I00
(lp3862
g1
(g10
g3
NtRp3863
(dp3864
g13
g1
(g14
g3
NtRp3865
((lp3866
g17
(g18
(I0
tS'b'
tRp3867
((I1
(L0L
tg21
I00
(lt(Nttba(lp3868
g17
(g25
(I0
tS'b'
tRp3869
(I1
(L0L
tg21
I00
(ltba(lp3870
g3867
atbsg93
S'for'
p3871
sbag1
(g10
g3
NtRp3872
(dp3873
g13
g1
(g14
g3
NtRp3874
((lp3875
g17
(g18
(I0
tS'b'
tRp3876
((I1
(L1L
tg21
I00
(lp3877
S'Vartuple'
p3878
at(Nttba(lp3879
g17
(g25
(I0
tS'b'
tRp3880
(I1
(L1L
tg21
I00
(lp3881
g1
(g10
g3
NtRp3882
(dp3883
g13
g1
(g14
g3
NtRp3884
((lp3885
g17
(g18
(I0
tS'b'
tRp3886
((I1
(L1L
tg21
I00
(lp3887
S'Var'
p3888
at(Nttba(lp3889
g17
(g25
(I0
tS'b'
tRp3890
(I1
(L1L
tg21
I00
(lp3891
g1
(g10
g3
NtRp3892
(dp3893
g13
g1
(g14
g3
NtRp3894
((lp3895
g17
(g18
(I0
tS'b'
tRp3896
((I1
(L1L
tg21
I00
(lp3897
S'Id'
p3898
at(Nttba(lp3899
g17
(g25
(I0
tS'b'
tRp3900
(I1
(L1L
tg21
I00
(lp3901
g1
(g10
g3
NtRp3902
(dp3903
g13
g1
(g14
g3
NtRp3904
((lp3905
g17
(g18
(I0
tS'b'
tRp3906
((I1
(L1L
tg21
I00
(lp3907
S'_x_'
p3908
at(Nttba(lp3909
g17
(g25
(I0
tS'b'
tRp3910
(I1
(L1L
tg21
I00
(lp3911
g1
(g10
g3
NtRp3912
(dp3913
g13
g1
(g14
g3
NtRp3914
((lp3915
g17
(g18
(I0
tS'b'
tRp3916
((I1
(L0L
tg21
I00
(lt(Nttba(lp3917
g17
(g25
(I0
tS'b'
tRp3918
(I1
(L0L
tg21
I00
(ltba(lp3919
g3916
atbsg93
S'x'
sbatba(lp3920
g3906
atbsg93
g3898
sbatba(lp3921
g3896
atbsg93
g3888
sbatba(lp3922
g3886
atbsg93
g3878
sbatba(lp3923
g3876
atbsg93
g3857
sbag1
(g10
g3
NtRp3924
(dp3925
g13
g1
(g14
g3
NtRp3926
((lp3927
g17
(g18
(I0
tS'b'
tRp3928
((I1
(L0L
tg21
I00
(lt(Nttba(lp3929
g17
(g25
(I0
tS'b'
tRp3930
(I1
(L0L
tg21
I00
(ltba(lp3931
g3928
atbsg93
S'in'
p3932
sbag1
(g10
g3
NtRp3933
(dp3934
g13
g1
(g14
g3
NtRp3935
((lp3936
g17
(g18
(I0
tS'b'
tRp3937
((I1
(L1L
tg21
I00
(lp3938
S'Expr'
p3939
at(Nttba(lp3940
g17
(g25
(I0
tS'b'
tRp3941
(I1
(L1L
tg21
I00
(lp3942
g1
(g10
g3
NtRp3943
(dp3944
g13
g1
(g14
g3
NtRp3945
((lp3946
g17
(g18
(I0
tS'b'
tRp3947
((I1
(L1L
tg21
I00
(lp3948
S'Val'
p3949
at(Nttba(lp3950
g17
(g25
(I0
tS'b'
tRp3951
(I1
(L1L
tg21
I00
(lp3952
g1
(g10
g3
NtRp3953
(dp3954
g13
g1
(g14
g3
NtRp3955
((lp3956
g17
(g18
(I0
tS'b'
tRp3957
((I1
(L1L
tg21
I00
(lp3958
S'Var'
p3959
at(Nttba(lp3960
g17
(g25
(I0
tS'b'
tRp3961
(I1
(L1L
tg21
I00
(lp3962
g1
(g10
g3
NtRp3963
(dp3964
g13
g1
(g14
g3
NtRp3965
((lp3966
g17
(g18
(I0
tS'b'
tRp3967
((I1
(L1L
tg21
I00
(lp3968
S'Id'
p3969
at(Nttba(lp3970
g17
(g25
(I0
tS'b'
tRp3971
(I1
(L1L
tg21
I00
(lp3972
g1
(g10
g3
NtRp3973
(dp3974
g13
g1
(g14
g3
NtRp3975
((lp3976
g17
(g18
(I0
tS'b'
tRp3977
((I1
(L1L
tg21
I00
(lp3978
S'_L_'
p3979
at(Nttba(lp3980
g17
(g25
(I0
tS'b'
tRp3981
(I1
(L1L
tg21
I00
(lp3982
g1
(g10
g3
NtRp3983
(dp3984
g13
g1
(g14
g3
NtRp3985
((lp3986
g17
(g18
(I0
tS'b'
tRp3987
((I1
(L0L
tg21
I00
(lt(Nttba(lp3988
g17
(g25
(I0
tS'b'
tRp3989
(I1
(L0L
tg21
I00
(ltba(lp3990
g3987
atbsg93
S'L'
sbatba(lp3991
g3977
atbsg93
g3969
sbatba(lp3992
g3967
atbsg93
g3959
sbatba(lp3993
g3957
atbsg93
g3949
sbatba(lp3994
g17
(g18
(I0
tS'b'
tRp3995
((I1
(L1L
tg21
I00
(lp3996
g3949
at(Nttbatbsg93
S'Expr'
p3997
sbatba(lp3998
g3937
atbsg93
g3859
sbatba(lp3999
g3854
atbsg93
g3846
sbatba(lp4000
g3844
atbsg93
g3836
sbatba(lp4001
g3834
atbsg93
g3825
sbag1
(g10
g3
NtRp4002
(dp4003
g13
g1
(g14
g3
NtRp4004
((lp4005
g17
(g18
(I0
tS'b'
tRp4006
((I1
(L3L
tg21
I00
(lp4007
S'Blockbegin'
p4008
aS'Prog'
p4009
aS'Blockend'
p4010
at(Nttba(lp4011
g17
(g25
(I0
tS'b'
tRp4012
(I1
(L3L
tg21
I00
(lp4013
g1
(g10
g3
NtRp4014
(dp4015
g13
g1
(g14
g3
NtRp4016
((lp4017
g17
(g18
(I0
tS'b'
tRp4018
((I1
(L1L
tg21
I00
(lp4019
S'_:$blockbegin_'
p4020
at(Nttba(lp4021
g17
(g25
(I0
tS'b'
tRp4022
(I1
(L1L
tg21
I00
(lp4023
g1
(g10
g3
NtRp4024
(dp4025
g13
g1
(g14
g3
NtRp4026
((lp4027
g17
(g18
(I0
tS'b'
tRp4028
((I1
(L0L
tg21
I00
(lt(Nttba(lp4029
g17
(g25
(I0
tS'b'
tRp4030
(I1
(L0L
tg21
I00
(ltba(lp4031
g4028
atbsg93
S':$blockbegin'
p4032
sbatba(lp4033
g4018
atbsg93
g4008
sbag1
(g10
g3
NtRp4034
(dp4035
g13
g1
(g14
g3
NtRp4036
((lp4037
g17
(g18
(I0
tS'b'
tRp4038
((I1
(L1L
tg21
I00
(lp4039
S'Stmt'
p4040
at(Nttba(lp4041
g17
(g25
(I0
tS'b'
tRp4042
(I1
(L1L
tg21
I00
(lp4043
g1
(g10
g3
NtRp4044
(dp4045
g13
g1
(g14
g3
NtRp4046
((lp4047
g17
(g18
(I0
tS'b'
tRp4048
((I1
(L1L
tg21
I00
(lp4049
S'Single_stmt'
p4050
at(Nttba(lp4051
g17
(g25
(I0
tS'b'
tRp4052
(I1
(L1L
tg21
I00
(lp4053
g1
(g10
g3
NtRp4054
(dp4055
g13
g1
(g14
g3
NtRp4056
((lp4057
g17
(g18
(I0
tS'b'
tRp4058
((I1
(L2L
tg21
I00
(lp4059
S'Print_stmt'
p4060
aS'_;_'
p4061
at(Nttba(lp4062
g17
(g25
(I0
tS'b'
tRp4063
(I1
(L2L
tg21
I00
(lp4064
g1
(g10
g3
NtRp4065
(dp4066
g13
g1
(g14
g3
NtRp4067
((lp4068
g17
(g18
(I0
tS'b'
tRp4069
((I1
(L2L
tg21
I00
(lp4070
S'_print_'
p4071
aS'Exprlist'
p4072
at(Nttba(lp4073
g17
(g25
(I0
tS'b'
tRp4074
(I1
(L2L
tg21
I00
(lp4075
g1
(g10
g3
NtRp4076
(dp4077
g13
g1
(g14
g3
NtRp4078
((lp4079
g17
(g18
(I0
tS'b'
tRp4080
((I1
(L0L
tg21
I00
(lt(Nttba(lp4081
g17
(g25
(I0
tS'b'
tRp4082
(I1
(L0L
tg21
I00
(ltba(lp4083
g4080
atbsg93
S'print'
p4084
sbag1
(g10
g3
NtRp4085
(dp4086
g13
g1
(g14
g3
NtRp4087
((lp4088
g17
(g18
(I0
tS'b'
tRp4089
((I1
(L1L
tg21
I00
(lp4090
S'Expr'
p4091
at(Nttba(lp4092
g17
(g25
(I0
tS'b'
tRp4093
(I1
(L1L
tg21
I00
(lp4094
g1
(g10
g3
NtRp4095
(dp4096
g13
g1
(g14
g3
NtRp4097
((lp4098
g17
(g18
(I0
tS'b'
tRp4099
((I1
(L1L
tg21
I00
(lp4100
S'Val'
p4101
at(Nttba(lp4102
g17
(g25
(I0
tS'b'
tRp4103
(I1
(L1L
tg21
I00
(lp4104
g1
(g10
g3
NtRp4105
(dp4106
g13
g1
(g14
g3
NtRp4107
((lp4108
g17
(g18
(I0
tS'b'
tRp4109
((I1
(L1L
tg21
I00
(lp4110
S'Var'
p4111
at(Nttba(lp4112
g17
(g25
(I0
tS'b'
tRp4113
(I1
(L1L
tg21
I00
(lp4114
g1
(g10
g3
NtRp4115
(dp4116
g13
g1
(g14
g3
NtRp4117
((lp4118
g17
(g18
(I0
tS'b'
tRp4119
((I1
(L1L
tg21
I00
(lp4120
S'Id'
p4121
at(Nttba(lp4122
g17
(g25
(I0
tS'b'
tRp4123
(I1
(L1L
tg21
I00
(lp4124
g1
(g10
g3
NtRp4125
(dp4126
g13
g1
(g14
g3
NtRp4127
((lp4128
g17
(g18
(I0
tS'b'
tRp4129
((I1
(L1L
tg21
I00
(lp4130
S'_x_'
p4131
at(Nttba(lp4132
g17
(g25
(I0
tS'b'
tRp4133
(I1
(L1L
tg21
I00
(lp4134
g1
(g10
g3
NtRp4135
(dp4136
g13
g1
(g14
g3
NtRp4137
((lp4138
g17
(g18
(I0
tS'b'
tRp4139
((I1
(L0L
tg21
I00
(lt(Nttba(lp4140
g17
(g25
(I0
tS'b'
tRp4141
(I1
(L0L
tg21
I00
(ltba(lp4142
g4139
atbsg93
S'x'
sbatba(lp4143
g4129
atbsg93
g4121
sbatba(lp4144
g4119
atbsg93
g4111
sbatba(lp4145
g4109
atbsg93
g4101
sbatba(lp4146
g17
(g18
(I0
tS'b'
tRp4147
((I1
(L1L
tg21
I00
(lp4148
g4101
at(Nttbatbsg93
S'Expr'
p4149
sbatba(lp4150
g4089
atbsg93
g4072
sbatba(lp4151
g4069
atbsg93
g4060
sbag1
(g10
g3
NtRp4152
(dp4153
g13
g1
(g14
g3
NtRp4154
((lp4155
g17
(g18
(I0
tS'b'
tRp4156
((I1
(L0L
tg21
I00
(lt(Nttba(lp4157
g17
(g25
(I0
tS'b'
tRp4158
(I1
(L0L
tg21
I00
(ltba(lp4159
g4156
atbsg93
S';'
sbatba(lp4160
g4058
atbsg93
g4050
sbatba(lp4161
g4048
atbsg93
g4040
sbatba(lp4162
g4038
atbsg93
g4009
sbag1
(g10
g3
NtRp4163
(dp4164
g13
g1
(g14
g3
NtRp4165
((lp4166
g17
(g18
(I0
tS'b'
tRp4167
((I1
(L1L
tg21
I00
(lp4168
S'_$blockend_'
p4169
at(Nttba(lp4170
g17
(g25
(I0
tS'b'
tRp4171
(I1
(L1L
tg21
I00
(lp4172
g1
(g10
g3
NtRp4173
(dp4174
g13
g1
(g14
g3
NtRp4175
((lp4176
g17
(g18
(I0
tS'b'
tRp4177
((I1
(L0L
tg21
I00
(lt(Nttba(lp4178
g17
(g25
(I0
tS'b'
tRp4179
(I1
(L0L
tg21
I00
(ltba(lp4180
g4177
atbsg93
S'$blockend'
p4181
sbatba(lp4182
g4167
atbsg93
g4010
sbatba(lp4183
g4006
atbsg93
g3826
sbatba(lp4184
g3823
atbsg93
g3815
sbatba(lp4185
g3813
atbsg93
S'Stmt'
p4186
sbatba(lp4187
g1820
atbsg93
g1791
sbag1
(g10
g3
NtRp4188
(dp4189
g13
g1
(g14
g3
NtRp4190
((lp4191
g17
(g18
(I0
tS'b'
tRp4192
((I1
(L1L
tg21
I00
(lp4193
S'_$blockend_'
p4194
at(Nttba(lp4195
g17
(g25
(I0
tS'b'
tRp4196
(I1
(L1L
tg21
I00
(lp4197
g1
(g10
g3
NtRp4198
(dp4199
g13
g1
(g14
g3
NtRp4200
((lp4201
g17
(g18
(I0
tS'b'
tRp4202
((I1
(L0L
tg21
I00
(lt(Nttba(lp4203
g17
(g25
(I0
tS'b'
tRp4204
(I1
(L0L
tg21
I00
(ltba(lp4205
g4202
atbsg93
S'$blockend'
p4206
sbatba(lp4207
g4192
atbsg93
g1792
sbatba(lp4208
g1788
atbsg93
g1602
sbatba(lp4209
g1599
atbsg93
g1591
sbatba(lp4210
g1589
atbsg93
g1581
sbatba(lp4211
g1579
atbsg93
S'Stmt'
p4212
sbatba(lp4213
g32
atbsg93
g23
sbatba(lp4214
g19
atbsg93
g9
sbsS'pos'
p4215
g11
sb.